 uws

 Timestamp is 5ad451b8 (Mon Apr 16 15:33:12 2018)

 Preferred load address is 10000000

 Start         Length     Name                   Class
 0001:00000000 00000230H .text$di                CODE
 0001:00000230 0004b6a9H .text$mn                CODE
 0001:0004b8d9 00001157H .text$x                 CODE
 0001:0004ca30 000000f9H .text$yd                CODE
 0002:00000000 0000021cH .idata$5                DATA
 0002:0000021c 00000004H .00cfg                  DATA
 0002:00000220 00000004H .CRT$XCA                DATA
 0002:00000224 00000034H .CRT$XCC                DATA
 0002:00000258 00000008H .CRT$XCL                DATA
 0002:00000260 0000002cH .CRT$XCU                DATA
 0002:0000028c 00000004H .CRT$XCZ                DATA
 0002:00000290 00000004H .CRT$XIA                DATA
 0002:00000294 00000018H .CRT$XIC                DATA
 0002:000002ac 00000004H .CRT$XIZ                DATA
 0002:000002b0 00000004H .CRT$XLA                DATA
 0002:000002b4 00000004H .CRT$XLZ                DATA
 0002:000002b8 00000004H .CRT$XPA                DATA
 0002:000002bc 00000004H .CRT$XPB                DATA
 0002:000002c0 00000008H .CRT$XPX                DATA
 0002:000002c8 00000004H .CRT$XPXA               DATA
 0002:000002cc 00000004H .CRT$XPZ                DATA
 0002:000002d0 00000004H .CRT$XTA                DATA
 0002:000002d4 0000000cH .CRT$XTZ                DATA
 0002:000002e0 0000dee0H .rdata                  DATA
 0002:0000e1c0 00000018H .rdata$T                DATA
 0002:0000e1d8 00002258H .rdata$r                DATA
 0002:00010430 000001acH .rdata$sxdata           DATA
 0002:000105dc 0000048cH .rdata$zzzdbg           DATA
 0002:00010a68 00000004H .rtc$IAA                DATA
 0002:00010a6c 00000004H .rtc$IZZ                DATA
 0002:00010a70 00000004H .rtc$TAA                DATA
 0002:00010a74 00000004H .rtc$TZZ                DATA
 0002:00010a78 00002164H .xdata$x                DATA
 0002:00012bdc 00000020H .didat$2                DATA
 0002:00012bfc 00000020H .didat$3                DATA
 0002:00012c1c 000001b0H .didat$4                DATA
 0002:00012dcc 000013a4H .didat$6                DATA
 0002:00014170 000001b0H .didat$7                DATA
 0002:00014320 00004094H .edata                  DATA
 0002:000183b4 00000028H .idata$2                DATA
 0002:000183dc 00000014H .idata$3                DATA
 0002:000183f0 0000021cH .idata$4                DATA
 0002:0001860c 000008c4H .idata$6                DATA
 0003:00000000 00000ae8H .data                   DATA
 0003:00000ae8 00001e20H .data$r                 DATA
 0003:00002908 000001b0H .didat$5                DATA
 0003:00002ab8 000018f0H .bss                    DATA
 0004:00000000 000000c0H .gfids$x                DATA
 0004:000000c0 00000ba4H .gfids$y                DATA
 0005:00000000 00000008H .tls                    DATA
 0005:00000008 00000049H .tls$                   DATA
 0005:00000051 00000001H .tls$ZZZ                DATA
 0006:00000000 00000060H .rsrc$01                DATA
 0006:00000060 00000180H .rsrc$02                DATA

  Address         Publics by Value              Rva+Base       Lib:Object

 0000:00000000       ___guard_fids_count        00000000     <absolute>
 0000:00000000       ___guard_longjmp_table     00000000     <absolute>
 0000:00000000       ___guard_iat_table         00000000     <absolute>
 0000:00000000       ___guard_iat_count         00000000     <absolute>
 0000:00000000       ___guard_longjmp_count     00000000     <absolute>
 0000:00000000       ___guard_fids_table        00000000     <absolute>
 0000:00000000       __except_list              00000000     <absolute>
 0000:00000000       ___dynamic_value_reloc_table 00000000     <absolute>
 0000:0000002c       __tls_array                0000002c     <absolute>
 0000:0000006b       ___safe_se_handler_count   0000006b     <absolute>
 0000:00000100       ___guard_flags             00000100     <absolute>
 0000:00000000       ___ImageBase               10000000     <linker-defined>
 0001:00000230       ?getToken@ExtensionsParser@uWS@@QAEHAAPBDPBD@Z 10001230 f   Extensions.obj
 0001:000002d0       ??0ExtensionsParser@uWS@@QAE@PBDI@Z 100012d0 f   Extensions.obj
 0001:000003b0       ?append@?$basic_string@DU?$char_traits@D@std@@V?$allocator@D@2@@std@@QAEAAV12@PBD@Z 100013b0 f i Extensions.obj
 0001:000003f0       ??1?$basic_string@DU?$char_traits@D@std@@V?$allocator@D@2@@std@@QAE@XZ 100013f0 f i Extensions.obj
 0001:00000430       ??0?$basic_string@DU?$char_traits@D@std@@V?$allocator@D@2@@std@@QAE@$$QAV01@@Z 10001430 f i Extensions.obj
 0001:000004b0       ?_Tidy@?$basic_string@DU?$char_traits@D@std@@V?$allocator@D@2@@std@@QAEX_NI@Z 100014b0 f i Extensions.obj
 0001:00000510       ?append@?$basic_string@DU?$char_traits@D@std@@V?$allocator@D@2@@std@@QAEAAV12@PBDI@Z 10001510 f i Extensions.obj
 0001:00000640       ?append@?$basic_string@DU?$char_traits@D@std@@V?$allocator@D@2@@std@@QAEAAV12@ABV12@II@Z 10001640 f i Extensions.obj
 0001:00000740       ?_Assign_rv@?$basic_string@DU?$char_traits@D@std@@V?$allocator@D@2@@std@@QAEX$$QAV12@@Z 10001740 f i Extensions.obj
 0001:000007b0       ?deallocate@?$_Wrap_alloc@V?$allocator@D@std@@@std@@QAEXPADI@Z 100017b0 f i Extensions.obj
 0001:00000800       ?_Grow@?$basic_string@DU?$char_traits@D@std@@V?$allocator@D@2@@std@@QAE_NI_N@Z 10001800 f i Extensions.obj
 0001:00000870       ?_Copy@?$basic_string@DU?$char_traits@D@std@@V?$allocator@D@2@@std@@QAEXII@Z 10001870 f i Extensions.obj
 0001:00000960       ?generateOffer@?$ExtensionsNegotiator@$00@uWS@@QAE?AV?$basic_string@DU?$char_traits@D@std@@V?$allocator@D@2@@std@@XZ 10001960 f i Extensions.obj
 0001:000009c0       ?readOffer@?$ExtensionsNegotiator@$00@uWS@@QAEXV?$basic_string@DU?$char_traits@D@std@@V?$allocator@D@2@@std@@@Z 100019c0 f i Extensions.obj
 0001:00000a80       ?change@Poll@@QAEXPAULoop@@PAU1@H@Z 10001a80 f i Group.obj
 0001:00000aa0       ?_Decref@_Ref_count_base@std@@QAEXXZ 10001aa0 f i Group.obj
 0001:00000ad0       ?_Mtx_lockX@std@@YAHPAU_Mtx_internal_imp_t@@@Z 10001ad0 f i Group.obj
 0001:00000af0       ?_Mtx_unlockX@std@@YAHPAU_Mtx_internal_imp_t@@@Z 10001af0 f i Group.obj
 0001:00000b10       ?passwordCallback@Context@TLS@uS@@CAHPADHHPAX@Z 10001b10 f i Group.obj
 0001:00000b50       ??0Context@TLS@uS@@QAE@PAUssl_ctx_st@@@Z 10001b50 f i Group.obj
 0001:00000b70       ??BContext@TLS@uS@@QAE_NXZ 10001b70 f i Group.obj
 0001:00000b80       ??C?$shared_ptr@V__ExceptionPtr@@@std@@QBEPAV__ExceptionPtr@@XZ 10001b80 f i libcpmt:excptptr.obj
 0001:00000b80       ?getLoop@Node@uS@@QAEPAULoop@@XZ 10001b80 f i Group.obj
 0001:00000b80       ?getNativeContext@Context@TLS@uS@@QAEPAUssl_ctx_st@@XZ 10001b80 f i Group.obj
 0001:00000b90       ??0Context@TLS@uS@@QAE@XZ  10001b90 f i Group.obj
 0001:00000bb0       ?getMemoryBlockIndex@NodeData@uS@@SAHI@Z 10001bb0 f i Group.obj
 0001:00000bd0       ?getSmallMemoryBlock@NodeData@uS@@QAEPADH@Z 10001bd0 f i Group.obj
 0001:00000c00       ?freeSmallMemoryBlock@NodeData@uS@@QAEXPADH@Z 10001c00 f i Group.obj
 0001:00000c30       ?addAsync@NodeData@uS@@QAEXXZ 10001c30 f i Group.obj
 0001:00000c60       ?clearPendingPollChanges@NodeData@uS@@QAEXPAUPoll@@@Z 10001c60 f i Group.obj
 0001:00000ce0       ??0NodeData@uS@@QAE@XZ     10001ce0 f i Group.obj
 0001:00000d20       ??1NodeData@uS@@QAE@XZ     10001d20 f i Group.obj
 0001:00000d80       ??0NodeData@uS@@QAE@ABU01@@Z 10001d80 f i Group.obj
 0001:00000df0       ??0NodeData@uS@@QAE@$$QAU01@@Z 10001df0 f i Group.obj
 0001:00000ec0       ??4NodeData@uS@@QAEAAU01@ABU01@@Z 10001ec0 f i Group.obj
 0001:00000f30       ??4NodeData@uS@@QAEAAU01@$$QAU01@@Z 10001f30 f i Group.obj
 0001:00001040       ?getPoll@Socket@uS@@IAEHXZ 10002040 f i Group.obj
 0001:00001050       ?setPoll@Socket@uS@@IAEHH@Z 10002050 f i Group.obj
 0001:00001070       ?setShuttingDown@Socket@uS@@IAEX_N@Z 10002070 f i Group.obj
 0001:00001090       ?transfer@Socket@uS@@IAEXPAUNodeData@2@P6AXPAUPoll@@@Z@Z 10002090 f i Group.obj
 0001:00001210       ?changePoll@Socket@uS@@IAEXPAU12@@Z 10002210 f i Group.obj
 0001:000012b0       ?cancelTimeout@Socket@uS@@IAEXXZ 100022b0 f i Group.obj
 0001:000012e0       ?hasEmptyQueue@Socket@uS@@IAE_NXZ 100022e0 f i Group.obj
 0001:000012f0       ?enqueue@Socket@uS@@IAEXPAUMessage@Queue@12@@Z 100022f0 f i Group.obj
 0001:00001320       ?allocMessage@Socket@uS@@IAEPAUMessage@Queue@12@IPBD@Z 10002320 f i Group.obj
 0001:00001360       ?freeMessage@Socket@uS@@IAEXPAUMessage@Queue@12@@Z 10002360 f i Group.obj
 0001:00001370       ?write@Socket@uS@@IAE_NPAUMessage@Queue@12@AA_N@Z 10002370 f i Group.obj
 0001:00001460       ??0Socket@uS@@QAE@PAUNodeData@1@PAULoop@@IPAUssl_st@@@Z 10002460 f i Group.obj
 0001:000014e0       ?getNodeData@Socket@uS@@QAEPAUNodeData@2@XZ 100024e0 f i Group.obj
 0001:000014e0       ?GetNumberOfVirtualProcessors@SchedulerBase@details@Concurrency@@UBEIXZ 100024e0 f i libconcrt:SchedulerBase.obj
 0001:000014f0       ?getUserData@Socket@uS@@QAEPAXXZ 100024f0 f i Group.obj
 0001:00001500       ?setUserData@Socket@uS@@QAEXPAX@Z 10002500 f i Group.obj
 0001:00001510       ?setNoDelay@Socket@uS@@QAEXH@Z 10002510 f i Group.obj
 0001:00001540       ?_Do_call@?$_Func_impl@V<lambda_53ff3ec277c749501ec9217002aa9d7b>@@V?$allocator@H@std@@XPAU?$HttpSocket@$0A@@uWS@@@std@@EAEX$$QAPAU?$HttpSocket@$0A@@uWS@@@Z 10002540 f i Group.obj
 0001:00001540       ?_Do_call@?$_Func_impl@V<lambda_1c688c24fd597b5f755e83302e53023b>@@V?$allocator@H@std@@XH@std@@EAEX$$QAH@Z 10002540 f i Group.obj
 0001:00001540       ?_Do_call@?$_Func_impl@V<lambda_5649a9b854e06245aa815fce0d27ad2c>@@V?$allocator@H@std@@XPAUHttpResponse@uWS@@@std@@EAEX$$QAPAUHttpResponse@uWS@@@Z 10002540 f i Group.obj
 0001:00001540       ?_Do_call@?$_Func_impl@V<lambda_cdf10bf5b5f8358ddc09646490ca2bd3>@@V?$allocator@H@std@@XPAU?$WebSocket@$0A@@uWS@@@std@@EAEX$$QAPAU?$WebSocket@$0A@@uWS@@@Z 10002540 f i Group.obj
 0001:00001540       ?_Do_call@?$_Func_impl@V<lambda_284e8f57f50590e9327d257d2c58f5ae>@@V?$allocator@H@std@@XPAX@std@@EAEX$$QAPAX@Z 10002540 f i Group.obj
 0001:00001540       ?_Do_call@?$_Func_impl@V<lambda_5c2f79513d0504d139958871698dd577>@@V?$allocator@H@std@@XPAU?$HttpSocket@$0A@@uWS@@@std@@EAEX$$QAPAU?$HttpSocket@$0A@@uWS@@@Z 10002540 f i Group.obj
 0001:00001540       ?_Do_call@?$_Func_impl@V<lambda_3fbfd5c44bc064280253334d66644dd0>@@V?$allocator@H@std@@XPAU?$HttpSocket@$00@uWS@@@std@@EAEX$$QAPAU?$HttpSocket@$00@uWS@@@Z 10002540 f i Group.obj
 0001:00001540       ?_Do_call@?$_Func_impl@V<lambda_3feb86e2305b43992e78a155d1556379>@@V?$allocator@H@std@@XPAU?$WebSocket@$00@uWS@@@std@@EAEX$$QAPAU?$WebSocket@$00@uWS@@@Z 10002540 f i Group.obj
 0001:00001540       ?_Do_call@?$_Func_impl@V<lambda_26a43c5493e1ef97d75dc73d0d6d2fb0>@@V?$allocator@H@std@@XPAUHttpResponse@uWS@@@std@@EAEX$$QAPAUHttpResponse@uWS@@@Z 10002540 f i Group.obj
 0001:00001540       ?imbue@?$basic_streambuf@DU?$char_traits@D@std@@@std@@MAEXABVlocale@2@@Z 10002540 f i libcpmt:cout.obj
 0001:00001540       ?_Do_call@?$_Func_impl@V<lambda_3794209ab7a2ee1b14680313776aa0cb>@@V?$allocator@H@std@@XPAU?$HttpSocket@$00@uWS@@@std@@EAEX$$QAPAU?$HttpSocket@$00@uWS@@@Z 10002540 f i Group.obj
 0001:00001540       ?cork@Socket@uS@@QAEXH@Z   10002540 f i Group.obj
 0001:00001550       ?shutdown@Socket@uS@@QAEXXZ 10002550 f i Group.obj
 0001:00001590       ?isShuttingDown@Socket@uS@@QAE_NXZ 10002590 f i Group.obj
 0001:000015a0       ??1Socket@uS@@QAE@XZ       100025a0 f i Group.obj
 0001:000015b0       ??0Socket@uS@@QAE@$$QAU01@@Z 100025b0 f i Group.obj
 0001:00001600       ??1?$HttpSocket@$00@uWS@@QAE@XZ 10002600 f i Group.obj
 0001:00001600       ??1?$HttpSocket@$0A@@uWS@@QAE@XZ 10002600 f i Group.obj
 0001:00001650       ??0?$HttpSocket@$00@uWS@@QAE@$$QAU01@@Z 10002650 f i Group.obj
 0001:00001650       ??0?$HttpSocket@$0A@@uWS@@QAE@$$QAU01@@Z 10002650 f i Group.obj
 0001:000016d0       ??_FNode@uS@@QAEXXZ        100026d0 f i Group.obj
 0001:000016f0       ??0Hub@uWS@@QAE@H_NI@Z     100026f0 f i Group.obj
 0001:00001790       ??1Hub@uWS@@QAE@XZ         10002790 f i Group.obj
 0001:00001800       ??1?$Group@$00@uWS@@QAE@XZ 10002800 f i Group.obj
 0001:00001800       ??1?$Group@$0A@@uWS@@QAE@XZ 10002800 f i Group.obj
 0001:00001a90       ??0?$Group@$00@uWS@@QAE@ABU01@@Z 10002a90 f i Group.obj
 0001:00001a90       ??0?$Group@$0A@@uWS@@QAE@ABU01@@Z 10002a90 f i Group.obj
 0001:00001cd0       ??0?$Group@$0A@@uWS@@QAE@$$QAU01@@Z 10002cd0 f i Group.obj
 0001:00001cd0       ??0?$Group@$00@uWS@@QAE@$$QAU01@@Z 10002cd0 f i Group.obj
 0001:00002110       ??4?$Group@$0A@@uWS@@QAEAAU01@ABU01@@Z 10003110 f i Group.obj
 0001:00002110       ??4?$Group@$00@uWS@@QAEAAU01@ABU01@@Z 10003110 f i Group.obj
 0001:00002580       ??4?$Group@$0A@@uWS@@QAEAAU01@$$QAU01@@Z 10003580 f i Group.obj
 0001:00002580       ??4?$Group@$00@uWS@@QAEAAU01@$$QAU01@@Z 10003580 f i Group.obj
 0001:00002790       ??_FHub@uWS@@QAEXXZ        10003790 f i Group.obj
 0001:000027a0       ??4?$WebSocketProtocol@$0A@U?$WebSocket@$0A@@uWS@@@uWS@@QAEAAV01@$$QAV01@@Z 100037a0 f i WebSocket.obj
 0001:000027a0       ??4?$WebSocketProtocol@$0A@U?$WebSocket@$0A@@uWS@@@uWS@@QAEAAV01@ABV01@@Z 100037a0 f i WebSocket.obj
 0001:000027a0       ??4?$WebSocketProtocol@$00U?$WebSocket@$00@uWS@@@uWS@@QAEAAV01@ABV01@@Z 100037a0 f i Group.obj
 0001:000027a0       ??4?$WebSocketProtocol@$00U?$WebSocket@$00@uWS@@@uWS@@QAEAAV01@$$QAV01@@Z 100037a0 f i Group.obj
 0001:000027b0       ??4?$function@$$A6AXPAU?$WebSocket@$00@uWS@@PADI@Z@std@@QAEAAV01@$$QAV01@@Z 100037b0 f i Group.obj
 0001:000027b0       ??4?$function@$$A6AXH@Z@std@@QAEAAV01@$$QAV01@@Z 100037b0 f i Group.obj
 0001:000027b0       ??4?$function@$$A6AXPAUHttpResponse@uWS@@@Z@std@@QAEAAV01@$$QAV01@@Z 100037b0 f i Group.obj
 0001:000027b0       ??4?$function@$$A6AXPAU?$WebSocket@$0A@@uWS@@UHttpRequest@2@@Z@std@@QAEAAV01@$$QAV01@@Z 100037b0 f i Group.obj
 0001:000027b0       ??4?$function@$$A6AXPAU?$WebSocket@$00@uWS@@@Z@std@@QAEAAV01@$$QAV01@@Z 100037b0 f i Group.obj
 0001:000027b0       ??4?$function@$$A6AXPAUHttpResponse@uWS@@PADII@Z@std@@QAEAAV01@$$QAV01@@Z 100037b0 f i Group.obj
 0001:000027b0       ??4?$function@$$A6AXPAU?$HttpSocket@$00@uWS@@@Z@std@@QAEAAV01@$$QAV01@@Z 100037b0 f i Group.obj
 0001:000027b0       ??4?$function@$$A6AXPAU?$HttpSocket@$0A@@uWS@@UHttpRequest@2@@Z@std@@QAEAAV01@$$QAV01@@Z 100037b0 f i Group.obj
 0001:000027b0       ??4?$function@$$A6AXPAU?$WebSocket@$00@uWS@@PADIW4OpCode@2@@Z@std@@QAEAAV01@$$QAV01@@Z 100037b0 f i Group.obj
 0001:000027b0       ??4?$function@$$A6AXPAU?$HttpSocket@$00@uWS@@UHttpRequest@2@@Z@std@@QAEAAV01@$$QAV01@@Z 100037b0 f i Group.obj
 0001:000027b0       ??4?$function@$$A6AXPAU?$WebSocket@$0A@@uWS@@@Z@std@@QAEAAV01@$$QAV01@@Z 100037b0 f i Group.obj
 0001:000027b0       ??4?$function@$$A6AXPAU?$HttpSocket@$0A@@uWS@@@Z@std@@QAEAAV01@$$QAV01@@Z 100037b0 f i Group.obj
 0001:000027b0       ??4?$function@$$A6AXPAU?$WebSocket@$00@uWS@@HPADI@Z@std@@QAEAAV01@$$QAV01@@Z 100037b0 f i Group.obj
 0001:000027b0       ??4?$function@$$A6AXPAX@Z@std@@QAEAAV01@$$QAV01@@Z 100037b0 f i Group.obj
 0001:000027b0       ??4?$function@$$A6AXPAU?$WebSocket@$0A@@uWS@@PADIW4OpCode@2@@Z@std@@QAEAAV01@$$QAV01@@Z 100037b0 f i Group.obj
 0001:000027b0       ??4?$function@$$A6AXPAU?$WebSocket@$00@uWS@@UHttpRequest@2@@Z@std@@QAEAAV01@$$QAV01@@Z 100037b0 f i Group.obj
 0001:000027b0       ??4?$function@$$A6AXPAU?$WebSocket@$0A@@uWS@@HPADI@Z@std@@QAEAAV01@$$QAV01@@Z 100037b0 f i Group.obj
 0001:000027b0       ??4?$function@$$A6AXPAU?$WebSocket@$0A@@uWS@@PADI@Z@std@@QAEAAV01@$$QAV01@@Z 100037b0 f i Group.obj
 0001:000027b0       ??4?$function@$$A6AXPAUHttpResponse@uWS@@UHttpRequest@2@PADII@Z@std@@QAEAAV01@$$QAV01@@Z 100037b0 f i Group.obj
 0001:00002820       ?from@?$Group@$0A@@uWS@@SAPAU12@PAUSocket@uS@@@Z 10003820 f i Group.obj
 0001:00002820       ?from@?$Group@$00@uWS@@SAPAU12@PAUSocket@uS@@@Z 10003820 f i Group.obj
 0001:00002830       ?listen@?$Group@$00@uWS@@QAEXW4ListenOptions@2@@Z 10003830 f i Group.obj
 0001:00002830       ?listen@?$Group@$0A@@uWS@@QAEXW4ListenOptions@2@@Z 10003830 f i Group.obj
 0001:00002870       ?addAsync@?$Group@$00@uWS@@QAEXXZ 10003870 f i Group.obj
 0001:00002870       ?addAsync@?$Group@$0A@@uWS@@QAEXXZ 10003870 f i Group.obj
 0001:000028b0       ?push_back@?$vector@PAUPoll@@V?$allocator@PAUPoll@@@std@@@std@@QAEXABQAUPoll@@@Z 100038b0 f i Group.obj
 0001:00002910       ??4?$vector@PAUPoll@@V?$allocator@PAUPoll@@@std@@@std@@QAEAAV01@ABV01@@Z 10003910 f i Group.obj
 0001:00002a00       ??0?$vector@PAUPoll@@V?$allocator@PAUPoll@@@std@@@std@@QAE@ABV01@@Z 10003a00 f i Group.obj
 0001:00002a90       ?assign@?$basic_string@DU?$char_traits@D@std@@V?$allocator@D@2@@std@@QAEAAV12@$$QAV12@@Z 10003a90 f i addon.obj
 0001:00002a90       ??4?$basic_string@DU?$char_traits@D@std@@V?$allocator@D@2@@std@@QAEAAV01@$$QAV01@@Z 10003a90 f i Group.obj
 0001:00002af0       ??0?$WebSocketState@$0A@@uWS@@QAE@XZ 10003af0 f i Group.obj
 0001:00002b10       ??4?$WebSocketState@$0A@@uWS@@QAEAAU01@$$QAU01@@Z 10003b10 f i Group.obj
 0001:00002b30       ??4?$WebSocketState@$0A@@uWS@@QAEAAU01@ABU01@@Z 10003b30 f i Group.obj
 0001:00002b50       ??1?$WebSocket@$0A@@uWS@@QAE@XZ 10003b50 f i Group.obj
 0001:00002ba0       ??0?$WebSocket@$0A@@uWS@@QAE@$$QAU01@@Z 10003ba0 f i Group.obj
 0001:00002c30       ??0?$WebSocketState@$00@uWS@@QAE@XZ 10003c30 f i Group.obj
 0001:00002c50       ??4?$WebSocketState@$00@uWS@@QAEAAU01@$$QAU01@@Z 10003c50 f i Group.obj
 0001:00002c90       ??4?$WebSocketState@$00@uWS@@QAEAAU01@ABU01@@Z 10003c90 f i Group.obj
 0001:00002cb0       ??1?$WebSocket@$00@uWS@@QAE@XZ 10003cb0 f i Group.obj
 0001:00002d00       ??0?$WebSocket@$00@uWS@@QAE@$$QAU01@@Z 10003d00 f i Group.obj
 0001:00002d90       ?_Tidy@?$deque@PAUPoll@@V?$allocator@PAUPoll@@@std@@@std@@IAEXXZ 10003d90 f i Group.obj
 0001:00002e50       ??4?$deque@PAUPoll@@V?$allocator@PAUPoll@@@std@@@std@@QAEAAV01@ABV01@@Z 10003e50 f i Group.obj
 0001:00003070       ??0?$deque@PAUPoll@@V?$allocator@PAUPoll@@@std@@@std@@QAE@$$QAV01@@Z 10004070 f i Group.obj
 0001:00003110       ??0?$deque@PAUPoll@@V?$allocator@PAUPoll@@@std@@@std@@QAE@ABV01@@Z 10004110 f i Group.obj
 0001:000031b0       ?deallocate@?$_Wrap_alloc@V?$allocator@PAUPoll@@@std@@@std@@QAEXPAPAUPoll@@I@Z 100041b0 f i Group.obj
 0001:000031b0       ?deallocate@?$_Wrap_alloc@V?$allocator@PAPAUPoll@@@std@@@std@@QAEXPAPAPAUPoll@@I@Z 100041b0 f i Group.obj
 0001:00003210       ?_Reserve@?$vector@PAUPoll@@V?$allocator@PAUPoll@@@std@@@std@@IAEXI@Z 10004210 f i Group.obj
 0001:00003270       ?_Buy@?$vector@PAUPoll@@V?$allocator@PAUPoll@@@std@@@std@@IAE_NI@Z 10004270 f i Group.obj
 0001:000032d0       ?assign@?$basic_string@DU?$char_traits@D@std@@V?$allocator@D@2@@std@@QAEAAV12@ABV12@II@Z 100042d0 f i Group.obj
 0001:000033e0       ?_Swap@?$_Func_class@XPAU?$HttpSocket@$00@uWS@@@std@@IAEXAAV12@@Z 100043e0 f i Group.obj
 0001:000033e0       ?_Swap@?$_Func_class@XPAU?$HttpSocket@$0A@@uWS@@UHttpRequest@2@@std@@IAEXAAV12@@Z 100043e0 f i Group.obj
 0001:000033e0       ?_Swap@?$_Func_class@XPAU?$WebSocket@$0A@@uWS@@@std@@IAEXAAV12@@Z 100043e0 f i Group.obj
 0001:000033e0       ?_Swap@?$_Func_class@XPAU?$WebSocket@$00@uWS@@UHttpRequest@2@@std@@IAEXAAV12@@Z 100043e0 f i Group.obj
 0001:000033e0       ?_Swap@?$_Func_class@XPAU?$WebSocket@$00@uWS@@PADI@std@@IAEXAAV12@@Z 100043e0 f i Group.obj
 0001:000033e0       ?_Swap@?$_Func_class@XPAU?$WebSocket@$0A@@uWS@@PADIW4OpCode@2@@std@@IAEXAAV12@@Z 100043e0 f i Group.obj
 0001:000033e0       ?_Swap@?$_Func_class@XPAU?$WebSocket@$00@uWS@@PADIW4OpCode@2@@std@@IAEXAAV12@@Z 100043e0 f i Group.obj
 0001:000033e0       ?_Swap@?$_Func_class@XPAUHttpResponse@uWS@@@std@@IAEXAAV12@@Z 100043e0 f i Group.obj
 0001:000033e0       ?_Swap@?$_Func_class@XPAUHttpResponse@uWS@@PADII@std@@IAEXAAV12@@Z 100043e0 f i Group.obj
 0001:000033e0       ?_Swap@?$_Func_class@XPAU?$WebSocket@$00@uWS@@@std@@IAEXAAV12@@Z 100043e0 f i Group.obj
 0001:000033e0       ?_Swap@?$_Func_class@XPAX@std@@IAEXAAV12@@Z 100043e0 f i Group.obj
 0001:000033e0       ?_Swap@?$_Func_class@XPAU?$WebSocket@$0A@@uWS@@HPADI@std@@IAEXAAV12@@Z 100043e0 f i Group.obj
 0001:000033e0       ?_Swap@?$_Func_class@XPAU?$WebSocket@$0A@@uWS@@PADI@std@@IAEXAAV12@@Z 100043e0 f i Group.obj
 0001:000033e0       ?_Swap@?$_Func_class@XPAU?$WebSocket@$00@uWS@@HPADI@std@@IAEXAAV12@@Z 100043e0 f i Group.obj
 0001:000033e0       ?_Swap@?$_Func_class@XPAU?$WebSocket@$0A@@uWS@@UHttpRequest@2@@std@@IAEXAAV12@@Z 100043e0 f i Group.obj
 0001:000033e0       ?_Swap@?$_Func_class@XPAUHttpResponse@uWS@@UHttpRequest@2@PADII@std@@IAEXAAV12@@Z 100043e0 f i Group.obj
 0001:000033e0       ?_Swap@?$_Func_class@XH@std@@IAEXAAV12@@Z 100043e0 f i Group.obj
 0001:000033e0       ?_Swap@?$_Func_class@XPAU?$HttpSocket@$0A@@uWS@@@std@@IAEXAAV12@@Z 100043e0 f i Group.obj
 0001:000033e0       ?_Swap@?$_Func_class@XPAU?$HttpSocket@$00@uWS@@UHttpRequest@2@@std@@IAEXAAV12@@Z 100043e0 f i Group.obj
 0001:00003500       ?erase@?$deque@PAUPoll@@V?$allocator@PAUPoll@@@std@@@std@@QAE?AV?$_Deque_iterator@V?$_Deque_val@U?$_Deque_simple_types@PAUPoll@@@std@@@std@@@2@V?$_Deque_const_iterator@V?$_Deque_val@U?$_Deque_simple_types@PAUPoll@@@std@@@std@@@2@0@Z 10004500 f i Group.obj
 0001:000036c0       ?allocate@?$_Wrap_alloc@V?$allocator@PAUPoll@@@std@@@std@@QAEPAPAUPoll@@I@Z 100046c0 f i Group.obj
 0001:000036c0       ?allocate@?$_Wrap_alloc@V?$allocator@PAPAUPoll@@@std@@@std@@QAEPAPAPAUPoll@@I@Z 100046c0 f i Group.obj
 0001:00003720       ?_Reallocate@?$vector@PAUPoll@@V?$allocator@PAUPoll@@@std@@@std@@IAEXI@Z 10004720 f i Group.obj
 0001:000037c0       ?erase@?$basic_string@DU?$char_traits@D@std@@V?$allocator@D@2@@std@@QAEAAV12@II@Z 100047c0 f i Group.obj
 0001:00003860       ?timerCallback@?$Group@$00@uWS@@KAXPAUTimer@@@Z 10004860 f i Group.obj
 0001:000038b0       ?addWebSocket@?$Group@$00@uWS@@IAEXPAU?$WebSocket@$00@2@@Z 100048b0 f i Group.obj
 0001:000038b0       ?addWebSocket@?$Group@$0A@@uWS@@IAEXPAU?$WebSocket@$0A@@2@@Z 100048b0 f i Group.obj
 0001:00003900       ?removeWebSocket@?$Group@$0A@@uWS@@IAEXPAU?$WebSocket@$0A@@2@@Z 10004900 f i Group.obj
 0001:00003900       ?removeWebSocket@?$Group@$00@uWS@@IAEXPAU?$WebSocket@$00@2@@Z 10004900 f i Group.obj
 0001:000039a0       ?addHttpSocket@?$Group@$00@uWS@@IAEXPAU?$HttpSocket@$00@2@@Z 100049a0 f i Group.obj
 0001:00003a50       ?removeHttpSocket@?$Group@$0A@@uWS@@IAEXPAU?$HttpSocket@$0A@@2@@Z 10004a50 f i Group.obj
 0001:00003a50       ?removeHttpSocket@?$Group@$00@uWS@@IAEXPAU?$HttpSocket@$00@2@@Z 10004a50 f i Group.obj
 0001:00003b10       ??0?$Group@$00@uWS@@IAE@HIPAUHub@1@PAUNodeData@uS@@@Z 10004b10 f i Group.obj
 0001:00003f20       ?stopListening@?$Group@$00@uWS@@IAEXXZ 10004f20 f i Group.obj
 0001:00003f80       ?onConnection@?$Group@$0A@@uWS@@QAEXV?$function@$$A6AXPAU?$WebSocket@$0A@@uWS@@UHttpRequest@2@@Z@std@@@Z 10004f80 f i Group.obj
 0001:00003f80       ?onConnection@?$Group@$00@uWS@@QAEXV?$function@$$A6AXPAU?$WebSocket@$00@uWS@@UHttpRequest@2@@Z@std@@@Z 10004f80 f i Group.obj
 0001:00004010       ?onTransfer@?$Group@$0A@@uWS@@QAEXV?$function@$$A6AXPAU?$WebSocket@$0A@@uWS@@@Z@std@@@Z 10005010 f i Group.obj
 0001:00004010       ?onTransfer@?$Group@$00@uWS@@QAEXV?$function@$$A6AXPAU?$WebSocket@$00@uWS@@@Z@std@@@Z 10005010 f i Group.obj
 0001:000040a0       ?onMessage@?$Group@$00@uWS@@QAEXV?$function@$$A6AXPAU?$WebSocket@$00@uWS@@PADIW4OpCode@2@@Z@std@@@Z 100050a0 f i Group.obj
 0001:000040a0       ?onMessage@?$Group@$0A@@uWS@@QAEXV?$function@$$A6AXPAU?$WebSocket@$0A@@uWS@@PADIW4OpCode@2@@Z@std@@@Z 100050a0 f i Group.obj
 0001:00004130       ?onDisconnection@?$Group@$0A@@uWS@@QAEXV?$function@$$A6AXPAU?$WebSocket@$0A@@uWS@@HPADI@Z@std@@@Z 10005130 f i Group.obj
 0001:00004130       ?onDisconnection@?$Group@$00@uWS@@QAEXV?$function@$$A6AXPAU?$WebSocket@$00@uWS@@HPADI@Z@std@@@Z 10005130 f i Group.obj
 0001:000041c0       ?onPing@?$Group@$00@uWS@@QAEXV?$function@$$A6AXPAU?$WebSocket@$00@uWS@@PADI@Z@std@@@Z 100051c0 f i Group.obj
 0001:000041c0       ?onPing@?$Group@$0A@@uWS@@QAEXV?$function@$$A6AXPAU?$WebSocket@$0A@@uWS@@PADI@Z@std@@@Z 100051c0 f i Group.obj
 0001:00004250       ?onPong@?$Group@$0A@@uWS@@QAEXV?$function@$$A6AXPAU?$WebSocket@$0A@@uWS@@PADI@Z@std@@@Z 10005250 f i Group.obj
 0001:00004250       ?onPong@?$Group@$00@uWS@@QAEXV?$function@$$A6AXPAU?$WebSocket@$00@uWS@@PADI@Z@std@@@Z 10005250 f i Group.obj
 0001:000042e0       ?onError@?$Group@$0A@@uWS@@QAEXV?$function@$$A6AXPAX@Z@std@@@Z 100052e0 f i Group.obj
 0001:000042e0       ?onError@?$Group@$00@uWS@@QAEXV?$function@$$A6AXH@Z@std@@@Z 100052e0 f i Group.obj
 0001:00004370       ?onHttpConnection@?$Group@$0A@@uWS@@QAEXV?$function@$$A6AXPAU?$HttpSocket@$0A@@uWS@@@Z@std@@@Z 10005370 f i Group.obj
 0001:00004370       ?onHttpConnection@?$Group@$00@uWS@@QAEXV?$function@$$A6AXPAU?$HttpSocket@$00@uWS@@@Z@std@@@Z 10005370 f i Group.obj
 0001:00004400       ?onHttpRequest@?$Group@$00@uWS@@QAEXV?$function@$$A6AXPAUHttpResponse@uWS@@UHttpRequest@2@PADII@Z@std@@@Z 10005400 f i Group.obj
 0001:00004400       ?onHttpRequest@?$Group@$0A@@uWS@@QAEXV?$function@$$A6AXPAUHttpResponse@uWS@@UHttpRequest@2@PADII@Z@std@@@Z 10005400 f i Group.obj
 0001:00004490       ?onHttpData@?$Group@$0A@@uWS@@QAEXV?$function@$$A6AXPAUHttpResponse@uWS@@PADII@Z@std@@@Z 10005490 f i Group.obj
 0001:00004490       ?onHttpData@?$Group@$00@uWS@@QAEXV?$function@$$A6AXPAUHttpResponse@uWS@@PADII@Z@std@@@Z 10005490 f i Group.obj
 0001:00004520       ?onHttpDisconnection@?$Group@$00@uWS@@QAEXV?$function@$$A6AXPAU?$HttpSocket@$00@uWS@@@Z@std@@@Z 10005520 f i Group.obj
 0001:00004520       ?onHttpDisconnection@?$Group@$0A@@uWS@@QAEXV?$function@$$A6AXPAU?$HttpSocket@$0A@@uWS@@@Z@std@@@Z 10005520 f i Group.obj
 0001:000045b0       ?onCancelledHttpRequest@?$Group@$0A@@uWS@@QAEXV?$function@$$A6AXPAUHttpResponse@uWS@@@Z@std@@@Z 100055b0 f i Group.obj
 0001:000045b0       ?onCancelledHttpRequest@?$Group@$00@uWS@@QAEXV?$function@$$A6AXPAUHttpResponse@uWS@@@Z@std@@@Z 100055b0 f i Group.obj
 0001:00004640       ?onHttpUpgrade@?$Group@$0A@@uWS@@QAEXV?$function@$$A6AXPAU?$HttpSocket@$0A@@uWS@@UHttpRequest@2@@Z@std@@@Z 10005640 f i Group.obj
 0001:00004640       ?onHttpUpgrade@?$Group@$00@uWS@@QAEXV?$function@$$A6AXPAU?$HttpSocket@$00@uWS@@UHttpRequest@2@@Z@std@@@Z 10005640 f i Group.obj
 0001:000046d0       ?broadcast@?$Group@$00@uWS@@QAEXPBDIW4OpCode@2@@Z 100056d0 f i Group.obj
 0001:00004750       ?setUserData@?$Group@$00@uWS@@QAEXPAX@Z 10005750 f i Group.obj
 0001:00004750       ?setUserData@?$Group@$0A@@uWS@@QAEXPAX@Z 10005750 f i Group.obj
 0001:00004760       ?getUserData@?$Group@$0A@@uWS@@QAEPAXXZ 10005760 f i Group.obj
 0001:00004760       ?getUserData@?$Group@$00@uWS@@QAEPAXXZ 10005760 f i Group.obj
 0001:00004770       ?terminate@?$Group@$00@uWS@@QAEXXZ 10005770 f i Group.obj
 0001:000047d0       ?close@?$Group@$00@uWS@@QAEXHPADI@Z 100057d0 f i Group.obj
 0001:00004870       ?startAutoPing@?$Group@$00@uWS@@QAEXHV?$basic_string@DU?$char_traits@D@std@@V?$allocator@D@2@@std@@@Z 10005870 f i Group.obj
 0001:000048f0       ?timerCallback@?$Group@$0A@@uWS@@KAXPAUTimer@@@Z 100058f0 f i Group.obj
 0001:00004940       ?addHttpSocket@?$Group@$0A@@uWS@@IAEXPAU?$HttpSocket@$0A@@2@@Z 10005940 f i Group.obj
 0001:000049f0       ??0?$Group@$0A@@uWS@@IAE@HIPAUHub@1@PAUNodeData@uS@@@Z 100059f0 f i Group.obj
 0001:00004e00       ?stopListening@?$Group@$0A@@uWS@@IAEXXZ 10005e00 f i Group.obj
 0001:00004e20       ?broadcast@?$Group@$0A@@uWS@@QAEXPBDIW4OpCode@2@@Z 10005e20 f i Group.obj
 0001:00004ea0       ?terminate@?$Group@$0A@@uWS@@QAEXXZ 10005ea0 f i Group.obj
 0001:00004ed0       ?close@?$Group@$0A@@uWS@@QAEXHPADI@Z 10005ed0 f i Group.obj
 0001:00004f40       ?startAutoPing@?$Group@$0A@@uWS@@QAEXHV?$basic_string@DU?$char_traits@D@std@@V?$allocator@D@2@@std@@@Z 10005f40 f i Group.obj
 0001:00004fc0       ??$move@V?$_Deque_iterator@V?$_Deque_val@U?$_Deque_simple_types@PAUPoll@@@std@@@std@@@std@@V12@@std@@YA?AV?$_Deque_iterator@V?$_Deque_val@U?$_Deque_simple_types@PAUPoll@@@std@@@std@@@0@V10@00@Z 10005fc0 f i Group.obj
 0001:00004fc0       ??$copy@V?$_Deque_const_iterator@V?$_Deque_val@U?$_Deque_simple_types@PAUPoll@@@std@@@std@@@std@@V?$_Deque_iterator@V?$_Deque_val@U?$_Deque_simple_types@PAUPoll@@@std@@@std@@@2@@std@@YA?AV?$_Deque_iterator@V?$_Deque_val@U?$_Deque_simple_types@PAUPoll@@@std@@@std@@@0@V?$_Deque_const_iterator@V?$_Deque_val@U?$_Deque_simple_types@PAUPoll@@@std@@@std@@@0@0V10@@Z 10005fc0 f i Group.obj
 0001:00005060       ??$insert@V?$_Deque_const_iterator@V?$_Deque_val@U?$_Deque_simple_types@PAUPoll@@@std@@@std@@@std@@@?$deque@PAUPoll@@V?$allocator@PAUPoll@@@std@@@std@@QAE?AV?$_Deque_iterator@V?$_Deque_val@U?$_Deque_simple_types@PAUPoll@@@std@@@std@@@1@V?$_Deque_const_iterator@V?$_Deque_val@U?$_Deque_simple_types@PAUPoll@@@std@@@std@@@1@00@Z 10006060 f i Group.obj
 0001:00005320       ??$_Construct@V?$_Deque_const_iterator@V?$_Deque_val@U?$_Deque_simple_types@PAUPoll@@@std@@@std@@@std@@@?$deque@PAUPoll@@V?$allocator@PAUPoll@@@std@@@std@@QAEXV?$_Deque_const_iterator@V?$_Deque_val@U?$_Deque_simple_types@PAUPoll@@@std@@@std@@@1@0@Z 10006320 f i Group.obj
 0001:00005370       ??$move_backward@V?$_Deque_iterator@V?$_Deque_val@U?$_Deque_simple_types@PAUPoll@@@std@@@std@@@std@@V12@@std@@YA?AV?$_Deque_iterator@V?$_Deque_val@U?$_Deque_simple_types@PAUPoll@@@std@@@std@@@0@V10@00@Z 10006370 f i Group.obj
 0001:00005410       ??$emplace_back@ABQAUPoll@@@?$deque@PAUPoll@@V?$allocator@PAUPoll@@@std@@@std@@QAEXABQAUPoll@@@Z 10006410 f i Group.obj
 0001:00005410       ?push_back@?$deque@PAUPoll@@V?$allocator@PAUPoll@@@std@@@std@@QAEXABQAUPoll@@@Z 10006410 f i Group.obj
 0001:000054a0       ?push_front@?$deque@PAUPoll@@V?$allocator@PAUPoll@@@std@@@std@@QAEXABQAUPoll@@@Z 100064a0 f i Group.obj
 0001:00005530       ?terminate@?$HttpSocket@$0A@@uWS@@QAEXXZ 10006530 f i Group.obj
 0001:00005540       ?terminate@?$HttpSocket@$00@uWS@@QAEXXZ 10006540 f i Group.obj
 0001:00005550       ?_Growmap@?$deque@PAUPoll@@V?$allocator@PAUPoll@@@std@@@std@@IAEXI@Z 10006550 f i Group.obj
 0001:00005680       ??$_Remove_unchecked@PAPAUPoll@@PAU1@@std@@YAPAPAUPoll@@PAPAU1@0ABQAU1@@Z 10006680 f i Group.obj
 0001:000056e0       ??$forEach@V<lambda_ed7721f338fae1d4065c432407fabd6f>@@@?$Group@$00@uWS@@QAEXABV<lambda_ed7721f338fae1d4065c432407fabd6f>@@@Z 100066e0 f i Group.obj
 0001:000057d0       ??$forEachHttpSocket@V<lambda_e3c4d13a524d5fc04d0447c2f2299581>@@@?$Group@$00@uWS@@QAEXABV<lambda_e3c4d13a524d5fc04d0447c2f2299581>@@@Z 100067d0 f i Group.obj
 0001:000058d0       ??$closeSocket@UListenSocket@uS@@@Socket@uS@@QAEXXZ 100068d0 f i Group.obj
 0001:00005940       ??$forEach@V<lambda_760f0747da77efccdcc96afca83efd90>@@@?$Group@$00@uWS@@QAEXABV<lambda_760f0747da77efccdcc96afca83efd90>@@@Z 10006940 f i Group.obj
 0001:00005940       ??$forEach@V<lambda_668bd26804534d77f2a14683dc139fad>@@@?$Group@$0A@@uWS@@QAEXABV<lambda_668bd26804534d77f2a14683dc139fad>@@@Z 10006940 f i Group.obj
 0001:00005a30       ??$forEach@V<lambda_79dcd712b498323de6f7f574a6c3bda6>@@@?$Group@$00@uWS@@QAEXABV<lambda_79dcd712b498323de6f7f574a6c3bda6>@@@Z 10006a30 f i Group.obj
 0001:00005b20       ??$forEach@V<lambda_d7c6b5007c032a852f137f51d047f8bd>@@@?$Group@$00@uWS@@QAEXABV<lambda_d7c6b5007c032a852f137f51d047f8bd>@@@Z 10006b20 f i Group.obj
 0001:00005c10       ??$forEach@V<lambda_5cd4950eeacb0dedb8ed22d2d7386b5d>@@@?$Group@$0A@@uWS@@QAEXABV<lambda_5cd4950eeacb0dedb8ed22d2d7386b5d>@@@Z 10006c10 f i Group.obj
 0001:00005d00       ??$forEachHttpSocket@V<lambda_f9cd7fb08b75339f382246eb46bea20e>@@@?$Group@$0A@@uWS@@QAEXABV<lambda_f9cd7fb08b75339f382246eb46bea20e>@@@Z 10006d00 f i Group.obj
 0001:00005e00       ??$forEach@V<lambda_a8eb33c9eaad3fb7c8cb52dba722e99b>@@@?$Group@$0A@@uWS@@QAEXABV<lambda_a8eb33c9eaad3fb7c8cb52dba722e99b>@@@Z 10006e00 f i Group.obj
 0001:00005ef0       ??$forEach@V<lambda_2e3be9c1121aa02fda6be46532c78cb6>@@@?$Group@$0A@@uWS@@QAEXABV<lambda_2e3be9c1121aa02fda6be46532c78cb6>@@@Z 10006ef0 f i Group.obj
 0001:00005fe0       ??$_Move_no_deprecate@V?$_Deque_iterator@V?$_Deque_val@U?$_Deque_simple_types@PAUPoll@@@std@@@std@@@std@@V12@@std@@YA?AV?$_Deque_iterator@V?$_Deque_val@U?$_Deque_simple_types@PAUPoll@@@std@@@std@@@0@V10@00@Z 10006fe0 f i Group.obj
 0001:00005fe0       ??$_Copy_no_deprecate@V?$_Deque_const_iterator@V?$_Deque_val@U?$_Deque_simple_types@PAUPoll@@@std@@@std@@@std@@V?$_Deque_iterator@V?$_Deque_val@U?$_Deque_simple_types@PAUPoll@@@std@@@std@@@2@@std@@YA?AV?$_Deque_iterator@V?$_Deque_val@U?$_Deque_simple_types@PAUPoll@@@std@@@std@@@0@V?$_Deque_const_iterator@V?$_Deque_val@U?$_Deque_simple_types@PAUPoll@@@std@@@std@@@0@0V10@@Z 10006fe0 f i Group.obj
 0001:00006080       ??$rotate@V?$_Deque_iterator@V?$_Deque_val@U?$_Deque_simple_types@PAUPoll@@@std@@@std@@@std@@@std@@YA?AV?$_Deque_iterator@V?$_Deque_val@U?$_Deque_simple_types@PAUPoll@@@std@@@std@@@0@V10@00@Z 10007080 f i Group.obj
 0001:00006150       ??$_Move_backward1@V?$_Deque_unchecked_iterator@V?$_Deque_val@U?$_Deque_simple_types@PAUPoll@@@std@@@std@@@std@@V?$_Deque_iterator@V?$_Deque_val@U?$_Deque_simple_types@PAUPoll@@@std@@@std@@@2@@std@@YA?AV?$_Deque_iterator@V?$_Deque_val@U?$_Deque_simple_types@PAUPoll@@@std@@@std@@@0@V?$_Deque_unchecked_iterator@V?$_Deque_val@U?$_Deque_simple_types@PAUPoll@@@std@@@std@@@0@0V10@Urandom_access_iterator_tag@0@2@Z 10007150 f i Group.obj
 0001:000061d0       ??_GListenSocket@uS@@QAEPAXI@Z 100071d0 f i Group.obj
 0001:00006230       ??$_Move_no_deprecate1@V?$_Deque_unchecked_iterator@V?$_Deque_val@U?$_Deque_simple_types@PAUPoll@@@std@@@std@@@std@@V?$_Deque_iterator@V?$_Deque_val@U?$_Deque_simple_types@PAUPoll@@@std@@@std@@@2@@std@@YA?AV?$_Deque_iterator@V?$_Deque_val@U?$_Deque_simple_types@PAUPoll@@@std@@@std@@@0@V?$_Deque_unchecked_iterator@V?$_Deque_val@U?$_Deque_simple_types@PAUPoll@@@std@@@std@@@0@0V10@Urandom_access_iterator_tag@0@2@Z 10007230 f i Group.obj
 0001:00006230       ??$_Copy_no_deprecate1@V?$_Deque_unchecked_const_iterator@V?$_Deque_val@U?$_Deque_simple_types@PAUPoll@@@std@@@std@@@std@@V?$_Deque_iterator@V?$_Deque_val@U?$_Deque_simple_types@PAUPoll@@@std@@@std@@@2@@std@@YA?AV?$_Deque_iterator@V?$_Deque_val@U?$_Deque_simple_types@PAUPoll@@@std@@@std@@@0@V?$_Deque_unchecked_const_iterator@V?$_Deque_val@U?$_Deque_simple_types@PAUPoll@@@std@@@std@@@0@0V10@Urandom_access_iterator_tag@0@2@Z 10007230 f i Group.obj
 0001:000062b0       ??$_Reverse_unchecked@V?$_Deque_unchecked_iterator@V?$_Deque_val@U?$_Deque_simple_types@PAUPoll@@@std@@@std@@@std@@@std@@YAXV?$_Deque_unchecked_iterator@V?$_Deque_val@U?$_Deque_simple_types@PAUPoll@@@std@@@std@@@0@0@Z 100072b0 f i Group.obj
 0001:00006320       ??$_Rotate_unchecked1@V?$_Deque_unchecked_iterator@V?$_Deque_val@U?$_Deque_simple_types@PAUPoll@@@std@@@std@@@std@@@std@@YA?AV?$_Deque_unchecked_iterator@V?$_Deque_val@U?$_Deque_simple_types@PAUPoll@@@std@@@std@@@0@V10@00Urandom_access_iterator_tag@0@@Z 10007320 f i Group.obj
 0001:00006390       ??$_Move_backward_unchecked1@V?$_Deque_unchecked_iterator@V?$_Deque_val@U?$_Deque_simple_types@PAUPoll@@@std@@@std@@@std@@V12@@std@@YA?AV?$_Deque_unchecked_iterator@V?$_Deque_val@U?$_Deque_simple_types@PAUPoll@@@std@@@std@@@0@V10@00U_General_ptr_iterator_tag@0@@Z 10007390 f i Group.obj
 0001:00006410       ??$_Copy_unchecked1@V?$_Deque_unchecked_const_iterator@V?$_Deque_val@U?$_Deque_simple_types@PAUPoll@@@std@@@std@@@std@@V?$_Deque_unchecked_iterator@V?$_Deque_val@U?$_Deque_simple_types@PAUPoll@@@std@@@std@@@2@@std@@YA?AV?$_Deque_unchecked_iterator@V?$_Deque_val@U?$_Deque_simple_types@PAUPoll@@@std@@@std@@@0@V?$_Deque_unchecked_const_iterator@V?$_Deque_val@U?$_Deque_simple_types@PAUPoll@@@std@@@std@@@0@0V10@U_General_ptr_iterator_tag@0@@Z 10007410 f i Group.obj
 0001:00006410       ??$_Move_unchecked1@V?$_Deque_unchecked_iterator@V?$_Deque_val@U?$_Deque_simple_types@PAUPoll@@@std@@@std@@@std@@V12@@std@@YA?AV?$_Deque_unchecked_iterator@V?$_Deque_val@U?$_Deque_simple_types@PAUPoll@@@std@@@std@@@0@V10@00U_General_ptr_iterator_tag@0@@Z 10007410 f i Group.obj
 0001:00006490       ?_Delete_this@?$_Func_impl@V<lambda_480ce1beb17acf0344804a3db5b6865b>@@V?$allocator@H@std@@XPAUHttpResponse@uWS@@UHttpRequest@5@PADII@std@@EAEX_N@Z 10007490 f i Group.obj
 0001:00006490       ?_Delete_this@?$_Func_impl@V<lambda_26a43c5493e1ef97d75dc73d0d6d2fb0>@@V?$allocator@H@std@@XPAUHttpResponse@uWS@@@std@@EAEX_N@Z 10007490 f i Group.obj
 0001:00006490       ?_Delete_this@?$_Func_impl@V<lambda_96818ef0bffebe7784dafdd6b8650226>@@V?$allocator@H@std@@XPAU?$WebSocket@$0A@@uWS@@PADIW4OpCode@5@@std@@EAEX_N@Z 10007490 f i Group.obj
 0001:00006490       ?_Delete_this@?$_Func_impl@V<lambda_e1637142ea344e884e17eb9d2de27d2d>@@V?$allocator@H@std@@XPAU?$WebSocket@$00@uWS@@HPADI@std@@EAEX_N@Z 10007490 f i addon.obj
 0001:00006490       ?_Delete_this@?$_Func_impl@V<lambda_1d46c80fc537237927264025b327cfb0>@@V?$allocator@H@std@@XPAU?$WebSocket@$0A@@uWS@@PADI@std@@EAEX_N@Z 10007490 f i addon.obj
 0001:00006490       ?_Delete_this@?$_Func_impl@V<lambda_3794209ab7a2ee1b14680313776aa0cb>@@V?$allocator@H@std@@XPAU?$HttpSocket@$00@uWS@@@std@@EAEX_N@Z 10007490 f i Group.obj
 0001:00006490       ?_Delete_this@?$_Func_impl@V<lambda_5c2f79513d0504d139958871698dd577>@@V?$allocator@H@std@@XPAU?$HttpSocket@$0A@@uWS@@@std@@EAEX_N@Z 10007490 f i Group.obj
 0001:00006490       ?_Delete_this@?$_Func_impl@V<lambda_1c688c24fd597b5f755e83302e53023b>@@V?$allocator@H@std@@XH@std@@EAEX_N@Z 10007490 f i Group.obj
 0001:00006490       ?_Delete_this@?$_Func_impl@V<lambda_cd4883bb11e6c621b1acc92b6d8da8c1>@@V?$allocator@H@std@@XPAU?$WebSocket@$0A@@uWS@@PADIW4OpCode@5@@std@@EAEX_N@Z 10007490 f i addon.obj
 0001:00006490       ?_Delete_this@?$_Func_impl@V<lambda_99ef38e60bffb9212b3d1e3c55a2df69>@@V?$allocator@H@std@@XPAUHttpResponse@uWS@@UHttpRequest@5@PADII@std@@EAEX_N@Z 10007490 f i Group.obj
 0001:00006490       ?_Delete_this@?$_Func_impl@V<lambda_3fbfd5c44bc064280253334d66644dd0>@@V?$allocator@H@std@@XPAU?$HttpSocket@$00@uWS@@@std@@EAEX_N@Z 10007490 f i Group.obj
 0001:00006490       ?_Delete_this@?$_Func_impl@V<lambda_799e88e5857d2eeece038297701e4a0c>@@V?$allocator@H@std@@XPAU?$WebSocket@$0A@@uWS@@PADI@std@@EAEX_N@Z 10007490 f i Group.obj
 0001:00006490       ?_Delete_this@?$_Func_impl@V<lambda_284e8f57f50590e9327d257d2c58f5ae>@@V?$allocator@H@std@@XPAX@std@@EAEX_N@Z 10007490 f i Group.obj
 0001:00006490       ?_Delete_this@?$_Func_impl@V<lambda_29fc594577301b1bc2b03af6825a474b>@@V?$allocator@H@std@@XPAU?$WebSocket@$00@uWS@@PADI@std@@EAEX_N@Z 10007490 f i Group.obj
 0001:00006490       ?_Delete_this@?$_Func_impl@V<lambda_5e248ff5b85a9cbef0f96485f89af0f4>@@V?$allocator@H@std@@XPAU?$WebSocket@$00@uWS@@PADIW4OpCode@5@@std@@EAEX_N@Z 10007490 f i Group.obj
 0001:00006490       ?_Delete_this@?$_Func_impl@V<lambda_ab21da79468cf75ef8a5b2c19fc9df60>@@V?$allocator@H@std@@XPAUHttpResponse@uWS@@PADII@std@@EAEX_N@Z 10007490 f i addon.obj
 0001:00006490       ?_Delete_this@?$_Func_impl@V<lambda_133e58a517827c34a78e0f1d8439cbb2>@@V?$allocator@H@std@@XPAU?$WebSocket@$00@uWS@@UHttpRequest@5@@std@@EAEX_N@Z 10007490 f i addon.obj
 0001:00006490       ?_Delete_this@?$_Func_impl@V<lambda_a9c374da5dc12dabd3c598763daba76e>@@V?$allocator@H@std@@XPAU?$WebSocket@$0A@@uWS@@HPADI@std@@EAEX_N@Z 10007490 f i addon.obj
 0001:00006490       ?_Delete_this@?$_Func_impl@V<lambda_8f1b2285fb4d43b2e4da5a4614c9e8de>@@V?$allocator@H@std@@XPAU?$WebSocket@$0A@@uWS@@PADI@std@@EAEX_N@Z 10007490 f i addon.obj
 0001:00006490       ?_Delete_this@?$_Func_impl@V<lambda_5b1a45c89178d2c3a17a0ad1b46255d4>@@V?$allocator@H@std@@XPAUHttpResponse@uWS@@PADII@std@@EAEX_N@Z 10007490 f i Group.obj
 0001:00006490       ?_Delete_this@?$_Func_impl@V<lambda_a28187498a520298138e8f32ba6c243d>@@V?$allocator@H@std@@XPAU?$WebSocket@$00@uWS@@HPADI@std@@EAEX_N@Z 10007490 f i Group.obj
 0001:00006490       ?_Delete_this@?$_Func_impl@V<lambda_99f67bed414616fd95dc4419d5bb6d86>@@V?$allocator@H@std@@XPAU?$WebSocket@$00@uWS@@PADI@std@@EAEX_N@Z 10007490 f i addon.obj
 0001:00006490       ?_Delete_this@?$_Func_impl@V<lambda_53ff3ec277c749501ec9217002aa9d7b>@@V?$allocator@H@std@@XPAU?$HttpSocket@$0A@@uWS@@@std@@EAEX_N@Z 10007490 f i Group.obj
 0001:00006490       ?_Delete_this@?$_Func_impl@V<lambda_48a2ad8411dfb78ca19670ff520707ee>@@V?$allocator@H@std@@XPAU?$WebSocket@$00@uWS@@PADIW4OpCode@5@@std@@EAEX_N@Z 10007490 f i addon.obj
 0001:00006490       ?_Delete_this@?$_Func_impl@V<lambda_cdf10bf5b5f8358ddc09646490ca2bd3>@@V?$allocator@H@std@@XPAU?$WebSocket@$0A@@uWS@@@std@@EAEX_N@Z 10007490 f i Group.obj
 0001:00006490       ?_Delete_this@?$_Func_impl@V<lambda_208c1e08f92f7c47e87798a7b3d6644f>@@V?$allocator@H@std@@XPAU?$WebSocket@$0A@@uWS@@UHttpRequest@5@@std@@EAEX_N@Z 10007490 f i addon.obj
 0001:00006490       ?_Delete_this@?$_Func_impl@V<lambda_3feb86e2305b43992e78a155d1556379>@@V?$allocator@H@std@@XPAU?$WebSocket@$00@uWS@@@std@@EAEX_N@Z 10007490 f i Group.obj
 0001:00006490       ?_Delete_this@?$_Func_impl@V<lambda_5649a9b854e06245aa815fce0d27ad2c>@@V?$allocator@H@std@@XPAUHttpResponse@uWS@@@std@@EAEX_N@Z 10007490 f i Group.obj
 0001:00006490       ?_Delete_this@?$_Func_impl@V<lambda_63233af269ebf66ec6711baf6bbbbf3c>@@V?$allocator@H@std@@XPAU?$WebSocket@$00@uWS@@UHttpRequest@5@@std@@EAEX_N@Z 10007490 f i Group.obj
 0001:00006490       ?_Delete_this@?$_Func_impl@V<lambda_af7a5422dd374fbb44bb0600bceb4c12>@@V?$allocator@H@std@@XPAUHttpResponse@uWS@@UHttpRequest@5@PADII@std@@EAEX_N@Z 10007490 f i addon.obj
 0001:00006490       ?_Delete_this@?$_Func_impl@V<lambda_6fd7a6803027b820a651af240ae00b15>@@V?$allocator@H@std@@XPAU?$WebSocket@$0A@@uWS@@HPADI@std@@EAEX_N@Z 10007490 f i Group.obj
 0001:00006490       ?_Delete_this@?$_Func_impl@V<lambda_14958bf5dc4f051e32ab96422140a561>@@V?$allocator@H@std@@XPAX@std@@EAEX_N@Z 10007490 f i addon.obj
 0001:00006490       ?_Delete_this@?$_Func_impl@V<lambda_b50986b69c5d421d67f8cf1f1e01cf51>@@V?$allocator@H@std@@XPAUHttpResponse@uWS@@PADII@std@@EAEX_N@Z 10007490 f i Group.obj
 0001:00006490       ?_Delete_this@?$_Func_impl@V<lambda_cd9dafd5dd8557c825a5e1eed9936cb1>@@V?$allocator@H@std@@XPAU?$WebSocket@$00@uWS@@PADI@std@@EAEX_N@Z 10007490 f i addon.obj
 0001:00006490       ?_Delete_this@?$_Func_impl@V<lambda_cbf472aa6ee717239cd6161d1e7aab15>@@V?$allocator@H@std@@XPAUHttpResponse@uWS@@@std@@EAEX_N@Z 10007490 f i addon.obj
 0001:00006490       ?_Delete_this@?$_Func_impl@V<lambda_c86eed9c1ab0c35de2c7db853439f0fe>@@V?$allocator@H@std@@XPAU?$WebSocket@$0A@@uWS@@UHttpRequest@5@@std@@EAEX_N@Z 10007490 f i Group.obj
 0001:000064b0       ?_Get@?$_Func_impl@V<lambda_14958bf5dc4f051e32ab96422140a561>@@V?$allocator@H@std@@XPAX@std@@EBEPBXXZ 100074b0 f i addon.obj
 0001:000064b0       ?_Get@?$_Func_impl@V<lambda_53ff3ec277c749501ec9217002aa9d7b>@@V?$allocator@H@std@@XPAU?$HttpSocket@$0A@@uWS@@@std@@EBEPBXXZ 100074b0 f i Group.obj
 0001:000064b0       ?_Get@?$_Func_impl@V<lambda_3fbfd5c44bc064280253334d66644dd0>@@V?$allocator@H@std@@XPAU?$HttpSocket@$00@uWS@@@std@@EBEPBXXZ 100074b0 f i Group.obj
 0001:000064b0       ?_Get@?$_Func_impl@V<lambda_cd4883bb11e6c621b1acc92b6d8da8c1>@@V?$allocator@H@std@@XPAU?$WebSocket@$0A@@uWS@@PADIW4OpCode@5@@std@@EBEPBXXZ 100074b0 f i addon.obj
 0001:000064b0       ?_Get@?$_Func_impl@V<lambda_1c688c24fd597b5f755e83302e53023b>@@V?$allocator@H@std@@XH@std@@EBEPBXXZ 100074b0 f i Group.obj
 0001:000064b0       ?_Get@?$_Func_impl@V<lambda_ab21da79468cf75ef8a5b2c19fc9df60>@@V?$allocator@H@std@@XPAUHttpResponse@uWS@@PADII@std@@EBEPBXXZ 100074b0 f i addon.obj
 0001:000064b0       ?_Get@?$_Func_impl@V<lambda_af7a5422dd374fbb44bb0600bceb4c12>@@V?$allocator@H@std@@XPAUHttpResponse@uWS@@UHttpRequest@5@PADII@std@@EBEPBXXZ 100074b0 f i addon.obj
 0001:000064b0       ?_Get@?$_Func_impl@V<lambda_29fc594577301b1bc2b03af6825a474b>@@V?$allocator@H@std@@XPAU?$WebSocket@$00@uWS@@PADI@std@@EBEPBXXZ 100074b0 f i Group.obj
 0001:000064b0       ?_Get@?$_Func_impl@V<lambda_6fd7a6803027b820a651af240ae00b15>@@V?$allocator@H@std@@XPAU?$WebSocket@$0A@@uWS@@HPADI@std@@EBEPBXXZ 100074b0 f i Group.obj
 0001:000064b0       ?_Get@?$_Func_impl@V<lambda_a9c374da5dc12dabd3c598763daba76e>@@V?$allocator@H@std@@XPAU?$WebSocket@$0A@@uWS@@HPADI@std@@EBEPBXXZ 100074b0 f i addon.obj
 0001:000064b0       ?_Get@?$_Func_impl@V<lambda_cbf472aa6ee717239cd6161d1e7aab15>@@V?$allocator@H@std@@XPAUHttpResponse@uWS@@@std@@EBEPBXXZ 100074b0 f i addon.obj
 0001:000064b0       ?_Get@?$_Func_impl@V<lambda_799e88e5857d2eeece038297701e4a0c>@@V?$allocator@H@std@@XPAU?$WebSocket@$0A@@uWS@@PADI@std@@EBEPBXXZ 100074b0 f i Group.obj
 0001:000064b0       ?_Get@?$_Func_impl@V<lambda_5b1a45c89178d2c3a17a0ad1b46255d4>@@V?$allocator@H@std@@XPAUHttpResponse@uWS@@PADII@std@@EBEPBXXZ 100074b0 f i Group.obj
 0001:000064b0       ?_Get@?$_Func_impl@V<lambda_5e248ff5b85a9cbef0f96485f89af0f4>@@V?$allocator@H@std@@XPAU?$WebSocket@$00@uWS@@PADIW4OpCode@5@@std@@EBEPBXXZ 100074b0 f i Group.obj
 0001:000064b0       ?_Get@?$_Func_impl@V<lambda_48a2ad8411dfb78ca19670ff520707ee>@@V?$allocator@H@std@@XPAU?$WebSocket@$00@uWS@@PADIW4OpCode@5@@std@@EBEPBXXZ 100074b0 f i addon.obj
 0001:000064b0       ?_Get@?$_Func_impl@V<lambda_8f1b2285fb4d43b2e4da5a4614c9e8de>@@V?$allocator@H@std@@XPAU?$WebSocket@$0A@@uWS@@PADI@std@@EBEPBXXZ 100074b0 f i addon.obj
 0001:000064b0       ?_Get@?$_Func_impl@V<lambda_480ce1beb17acf0344804a3db5b6865b>@@V?$allocator@H@std@@XPAUHttpResponse@uWS@@UHttpRequest@5@PADII@std@@EBEPBXXZ 100074b0 f i Group.obj
 0001:000064b0       ?_Get@?$_Func_impl@V<lambda_26a43c5493e1ef97d75dc73d0d6d2fb0>@@V?$allocator@H@std@@XPAUHttpResponse@uWS@@@std@@EBEPBXXZ 100074b0 f i Group.obj
 0001:000064b0       ?_Get@?$_Func_impl@V<lambda_284e8f57f50590e9327d257d2c58f5ae>@@V?$allocator@H@std@@XPAX@std@@EBEPBXXZ 100074b0 f i Group.obj
 0001:000064b0       ?_Get@?$_Func_impl@V<lambda_5c2f79513d0504d139958871698dd577>@@V?$allocator@H@std@@XPAU?$HttpSocket@$0A@@uWS@@@std@@EBEPBXXZ 100074b0 f i Group.obj
 0001:000064b0       ?_Get@?$_Func_impl@V<lambda_a28187498a520298138e8f32ba6c243d>@@V?$allocator@H@std@@XPAU?$WebSocket@$00@uWS@@HPADI@std@@EBEPBXXZ 100074b0 f i Group.obj
 0001:000064b0       ?_Get@?$_Func_impl@V<lambda_96818ef0bffebe7784dafdd6b8650226>@@V?$allocator@H@std@@XPAU?$WebSocket@$0A@@uWS@@PADIW4OpCode@5@@std@@EBEPBXXZ 100074b0 f i Group.obj
 0001:000064b0       ?_Get@?$_Func_impl@V<lambda_3feb86e2305b43992e78a155d1556379>@@V?$allocator@H@std@@XPAU?$WebSocket@$00@uWS@@@std@@EBEPBXXZ 100074b0 f i Group.obj
 0001:000064b0       ?_Get@?$_Func_impl@V<lambda_3794209ab7a2ee1b14680313776aa0cb>@@V?$allocator@H@std@@XPAU?$HttpSocket@$00@uWS@@@std@@EBEPBXXZ 100074b0 f i Group.obj
 0001:000064b0       ?_Get@?$_Func_impl@V<lambda_b50986b69c5d421d67f8cf1f1e01cf51>@@V?$allocator@H@std@@XPAUHttpResponse@uWS@@PADII@std@@EBEPBXXZ 100074b0 f i Group.obj
 0001:000064b0       ?_Get@?$_Func_impl@V<lambda_cdf10bf5b5f8358ddc09646490ca2bd3>@@V?$allocator@H@std@@XPAU?$WebSocket@$0A@@uWS@@@std@@EBEPBXXZ 100074b0 f i Group.obj
 0001:000064b0       ?_Get@?$_Func_impl@V<lambda_63233af269ebf66ec6711baf6bbbbf3c>@@V?$allocator@H@std@@XPAU?$WebSocket@$00@uWS@@UHttpRequest@5@@std@@EBEPBXXZ 100074b0 f i Group.obj
 0001:000064b0       ?_Get@?$_Func_impl@V<lambda_99f67bed414616fd95dc4419d5bb6d86>@@V?$allocator@H@std@@XPAU?$WebSocket@$00@uWS@@PADI@std@@EBEPBXXZ 100074b0 f i addon.obj
 0001:000064b0       ?_Get@?$_Func_impl@V<lambda_cd9dafd5dd8557c825a5e1eed9936cb1>@@V?$allocator@H@std@@XPAU?$WebSocket@$00@uWS@@PADI@std@@EBEPBXXZ 100074b0 f i addon.obj
 0001:000064b0       ?_Get@?$_Func_impl@V<lambda_1d46c80fc537237927264025b327cfb0>@@V?$allocator@H@std@@XPAU?$WebSocket@$0A@@uWS@@PADI@std@@EBEPBXXZ 100074b0 f i addon.obj
 0001:000064b0       ?_Get@?$_Func_impl@V<lambda_c86eed9c1ab0c35de2c7db853439f0fe>@@V?$allocator@H@std@@XPAU?$WebSocket@$0A@@uWS@@UHttpRequest@5@@std@@EBEPBXXZ 100074b0 f i Group.obj
 0001:000064b0       ?_Get@?$_Func_impl@V<lambda_133e58a517827c34a78e0f1d8439cbb2>@@V?$allocator@H@std@@XPAU?$WebSocket@$00@uWS@@UHttpRequest@5@@std@@EBEPBXXZ 100074b0 f i addon.obj
 0001:000064b0       ?_Get@?$_Func_impl@V<lambda_208c1e08f92f7c47e87798a7b3d6644f>@@V?$allocator@H@std@@XPAU?$WebSocket@$0A@@uWS@@UHttpRequest@5@@std@@EBEPBXXZ 100074b0 f i addon.obj
 0001:000064b0       ?_Get@?$_Func_impl@V<lambda_e1637142ea344e884e17eb9d2de27d2d>@@V?$allocator@H@std@@XPAU?$WebSocket@$00@uWS@@HPADI@std@@EBEPBXXZ 100074b0 f i addon.obj
 0001:000064b0       ?_Get@?$_Func_impl@V<lambda_99ef38e60bffb9212b3d1e3c55a2df69>@@V?$allocator@H@std@@XPAUHttpResponse@uWS@@UHttpRequest@5@PADII@std@@EBEPBXXZ 100074b0 f i Group.obj
 0001:000064b0       ?_Get@?$_Func_impl@V<lambda_5649a9b854e06245aa815fce0d27ad2c>@@V?$allocator@H@std@@XPAUHttpResponse@uWS@@@std@@EBEPBXXZ 100074b0 f i Group.obj
 0001:000064c0       ?_Target_type@?$_Func_impl@V<lambda_5b1a45c89178d2c3a17a0ad1b46255d4>@@V?$allocator@H@std@@XPAUHttpResponse@uWS@@PADII@std@@EBEABVtype_info@@XZ 100074c0 f i Group.obj
 0001:000064d0       ?_Do_call@?$_Func_impl@V<lambda_5b1a45c89178d2c3a17a0ad1b46255d4>@@V?$allocator@H@std@@XPAUHttpResponse@uWS@@PADII@std@@EAEX$$QAPAUHttpResponse@uWS@@$$QAPAD$$QAI2@Z 100074d0 f i Group.obj
 0001:000064d0       ?_Do_call@?$_Func_impl@V<lambda_b50986b69c5d421d67f8cf1f1e01cf51>@@V?$allocator@H@std@@XPAUHttpResponse@uWS@@PADII@std@@EAEX$$QAPAUHttpResponse@uWS@@$$QAPAD$$QAI2@Z 100074d0 f i Group.obj
 0001:000064d0       ?_Do_call@?$_Func_impl@V<lambda_96818ef0bffebe7784dafdd6b8650226>@@V?$allocator@H@std@@XPAU?$WebSocket@$0A@@uWS@@PADIW4OpCode@5@@std@@EAEX$$QAPAU?$WebSocket@$0A@@uWS@@$$QAPAD$$QAI$$QAW4OpCode@4@@Z 100074d0 f i Group.obj
 0001:000064d0       ?CreateNodeTopology@ResourceManager@details@Concurrency@@UAEXIPAIPAPAI0@Z 100074d0 f i libconcrt:ResourceManager.obj
 0001:000064d0       ?_Do_call@?$_Func_impl@V<lambda_6fd7a6803027b820a651af240ae00b15>@@V?$allocator@H@std@@XPAU?$WebSocket@$0A@@uWS@@HPADI@std@@EAEX$$QAPAU?$WebSocket@$0A@@uWS@@$$QAH$$QAPAD$$QAI@Z 100074d0 f i Group.obj
 0001:000064d0       ?_Do_call@?$_Func_impl@V<lambda_a28187498a520298138e8f32ba6c243d>@@V?$allocator@H@std@@XPAU?$WebSocket@$00@uWS@@HPADI@std@@EAEX$$QAPAU?$WebSocket@$00@uWS@@$$QAH$$QAPAD$$QAI@Z 100074d0 f i Group.obj
 0001:000064d0       ?_Do_call@?$_Func_impl@V<lambda_5e248ff5b85a9cbef0f96485f89af0f4>@@V?$allocator@H@std@@XPAU?$WebSocket@$00@uWS@@PADIW4OpCode@5@@std@@EAEX$$QAPAU?$WebSocket@$00@uWS@@$$QAPAD$$QAI$$QAW4OpCode@4@@Z 100074d0 f i Group.obj
 0001:000064e0       ?_Move@?$_Func_impl@V<lambda_5b1a45c89178d2c3a17a0ad1b46255d4>@@V?$allocator@H@std@@XPAUHttpResponse@uWS@@PADII@std@@EAEPAV?$_Func_base@XPAUHttpResponse@uWS@@PADII@2@PAX@Z 100074e0 f i Group.obj
 0001:000064e0       ?_Copy@?$_Func_impl@V<lambda_5b1a45c89178d2c3a17a0ad1b46255d4>@@V?$allocator@H@std@@XPAUHttpResponse@uWS@@PADII@std@@EBEPAV?$_Func_base@XPAUHttpResponse@uWS@@PADII@2@PAX@Z 100074e0 f i Group.obj
 0001:00006500       ?_Target_type@?$_Func_impl@V<lambda_5649a9b854e06245aa815fce0d27ad2c>@@V?$allocator@H@std@@XPAUHttpResponse@uWS@@@std@@EBEABVtype_info@@XZ 10007500 f i Group.obj
 0001:00006510       ?_Copy@?$_Func_impl@V<lambda_5649a9b854e06245aa815fce0d27ad2c>@@V?$allocator@H@std@@XPAUHttpResponse@uWS@@@std@@EBEPAV?$_Func_base@XPAUHttpResponse@uWS@@@2@PAX@Z 10007510 f i Group.obj
 0001:00006510       ?_Move@?$_Func_impl@V<lambda_5649a9b854e06245aa815fce0d27ad2c>@@V?$allocator@H@std@@XPAUHttpResponse@uWS@@@std@@EAEPAV?$_Func_base@XPAUHttpResponse@uWS@@@2@PAX@Z 10007510 f i Group.obj
 0001:00006530       ?_Target_type@?$_Func_impl@V<lambda_53ff3ec277c749501ec9217002aa9d7b>@@V?$allocator@H@std@@XPAU?$HttpSocket@$0A@@uWS@@@std@@EBEABVtype_info@@XZ 10007530 f i Group.obj
 0001:00006540       ?_Copy@?$_Func_impl@V<lambda_53ff3ec277c749501ec9217002aa9d7b>@@V?$allocator@H@std@@XPAU?$HttpSocket@$0A@@uWS@@@std@@EBEPAV?$_Func_base@XPAU?$HttpSocket@$0A@@uWS@@@2@PAX@Z 10007540 f i Group.obj
 0001:00006540       ?_Move@?$_Func_impl@V<lambda_53ff3ec277c749501ec9217002aa9d7b>@@V?$allocator@H@std@@XPAU?$HttpSocket@$0A@@uWS@@@std@@EAEPAV?$_Func_base@XPAU?$HttpSocket@$0A@@uWS@@@2@PAX@Z 10007540 f i Group.obj
 0001:00006560       ?_Target_type@?$_Func_impl@V<lambda_5c2f79513d0504d139958871698dd577>@@V?$allocator@H@std@@XPAU?$HttpSocket@$0A@@uWS@@@std@@EBEABVtype_info@@XZ 10007560 f i Group.obj
 0001:00006570       ?_Copy@?$_Func_impl@V<lambda_5c2f79513d0504d139958871698dd577>@@V?$allocator@H@std@@XPAU?$HttpSocket@$0A@@uWS@@@std@@EBEPAV?$_Func_base@XPAU?$HttpSocket@$0A@@uWS@@@2@PAX@Z 10007570 f i Group.obj
 0001:00006570       ?_Move@?$_Func_impl@V<lambda_5c2f79513d0504d139958871698dd577>@@V?$allocator@H@std@@XPAU?$HttpSocket@$0A@@uWS@@@std@@EAEPAV?$_Func_base@XPAU?$HttpSocket@$0A@@uWS@@@2@PAX@Z 10007570 f i Group.obj
 0001:00006590       ?_Target_type@?$_Func_impl@V<lambda_480ce1beb17acf0344804a3db5b6865b>@@V?$allocator@H@std@@XPAUHttpResponse@uWS@@UHttpRequest@5@PADII@std@@EBEABVtype_info@@XZ 10007590 f i Group.obj
 0001:000065a0       ?_Do_call@?$_Func_impl@V<lambda_480ce1beb17acf0344804a3db5b6865b>@@V?$allocator@H@std@@XPAUHttpResponse@uWS@@UHttpRequest@5@PADII@std@@EAEX$$QAPAUHttpResponse@uWS@@$$QAUHttpRequest@4@$$QAPAD$$QAI3@Z 100075a0 f i Group.obj
 0001:000065a0       ?_Do_call@?$_Func_impl@V<lambda_99ef38e60bffb9212b3d1e3c55a2df69>@@V?$allocator@H@std@@XPAUHttpResponse@uWS@@UHttpRequest@5@PADII@std@@EAEX$$QAPAUHttpResponse@uWS@@$$QAUHttpRequest@4@$$QAPAD$$QAI3@Z 100075a0 f i Group.obj
 0001:000065b0       ?_Copy@?$_Func_impl@V<lambda_480ce1beb17acf0344804a3db5b6865b>@@V?$allocator@H@std@@XPAUHttpResponse@uWS@@UHttpRequest@5@PADII@std@@EBEPAV?$_Func_base@XPAUHttpResponse@uWS@@UHttpRequest@2@PADII@2@PAX@Z 100075b0 f i Group.obj
 0001:000065b0       ?_Move@?$_Func_impl@V<lambda_480ce1beb17acf0344804a3db5b6865b>@@V?$allocator@H@std@@XPAUHttpResponse@uWS@@UHttpRequest@5@PADII@std@@EAEPAV?$_Func_base@XPAUHttpResponse@uWS@@UHttpRequest@2@PADII@2@PAX@Z 100075b0 f i Group.obj
 0001:000065d0       ?_Target_type@?$_Func_impl@V<lambda_284e8f57f50590e9327d257d2c58f5ae>@@V?$allocator@H@std@@XPAX@std@@EBEABVtype_info@@XZ 100075d0 f i Group.obj
 0001:000065e0       ?_Move@?$_Func_impl@V<lambda_284e8f57f50590e9327d257d2c58f5ae>@@V?$allocator@H@std@@XPAX@std@@EAEPAV?$_Func_base@XPAX@2@PAX@Z 100075e0 f i Group.obj
 0001:000065e0       ?_Copy@?$_Func_impl@V<lambda_284e8f57f50590e9327d257d2c58f5ae>@@V?$allocator@H@std@@XPAX@std@@EBEPAV?$_Func_base@XPAX@2@PAX@Z 100075e0 f i Group.obj
 0001:00006600       ?_Target_type@?$_Func_impl@V<lambda_799e88e5857d2eeece038297701e4a0c>@@V?$allocator@H@std@@XPAU?$WebSocket@$0A@@uWS@@PADI@std@@EBEABVtype_info@@XZ 10007600 f i Group.obj
 0001:00006610       ?_Do_call@?$_Func_impl@V<lambda_29fc594577301b1bc2b03af6825a474b>@@V?$allocator@H@std@@XPAU?$WebSocket@$00@uWS@@PADI@std@@EAEX$$QAPAU?$WebSocket@$00@uWS@@$$QAPAD$$QAI@Z 10007610 f i Group.obj
 0001:00006610       ?_Do_call@?$_Func_impl@V<lambda_799e88e5857d2eeece038297701e4a0c>@@V?$allocator@H@std@@XPAU?$WebSocket@$0A@@uWS@@PADI@std@@EAEX$$QAPAU?$WebSocket@$0A@@uWS@@$$QAPAD$$QAI@Z 10007610 f i Group.obj
 0001:00006620       ?_Copy@?$_Func_impl@V<lambda_799e88e5857d2eeece038297701e4a0c>@@V?$allocator@H@std@@XPAU?$WebSocket@$0A@@uWS@@PADI@std@@EBEPAV?$_Func_base@XPAU?$WebSocket@$0A@@uWS@@PADI@2@PAX@Z 10007620 f i Group.obj
 0001:00006620       ?_Move@?$_Func_impl@V<lambda_799e88e5857d2eeece038297701e4a0c>@@V?$allocator@H@std@@XPAU?$WebSocket@$0A@@uWS@@PADI@std@@EAEPAV?$_Func_base@XPAU?$WebSocket@$0A@@uWS@@PADI@2@PAX@Z 10007620 f i Group.obj
 0001:00006640       ?_Target_type@?$_Func_impl@V<lambda_6fd7a6803027b820a651af240ae00b15>@@V?$allocator@H@std@@XPAU?$WebSocket@$0A@@uWS@@HPADI@std@@EBEABVtype_info@@XZ 10007640 f i Group.obj
 0001:00006650       ?_Copy@?$_Func_impl@V<lambda_6fd7a6803027b820a651af240ae00b15>@@V?$allocator@H@std@@XPAU?$WebSocket@$0A@@uWS@@HPADI@std@@EBEPAV?$_Func_base@XPAU?$WebSocket@$0A@@uWS@@HPADI@2@PAX@Z 10007650 f i Group.obj
 0001:00006650       ?_Move@?$_Func_impl@V<lambda_6fd7a6803027b820a651af240ae00b15>@@V?$allocator@H@std@@XPAU?$WebSocket@$0A@@uWS@@HPADI@std@@EAEPAV?$_Func_base@XPAU?$WebSocket@$0A@@uWS@@HPADI@2@PAX@Z 10007650 f i Group.obj
 0001:00006670       ?_Target_type@?$_Func_impl@V<lambda_96818ef0bffebe7784dafdd6b8650226>@@V?$allocator@H@std@@XPAU?$WebSocket@$0A@@uWS@@PADIW4OpCode@5@@std@@EBEABVtype_info@@XZ 10007670 f i Group.obj
 0001:00006680       ?_Copy@?$_Func_impl@V<lambda_96818ef0bffebe7784dafdd6b8650226>@@V?$allocator@H@std@@XPAU?$WebSocket@$0A@@uWS@@PADIW4OpCode@5@@std@@EBEPAV?$_Func_base@XPAU?$WebSocket@$0A@@uWS@@PADIW4OpCode@2@@2@PAX@Z 10007680 f i Group.obj
 0001:00006680       ?_Move@?$_Func_impl@V<lambda_96818ef0bffebe7784dafdd6b8650226>@@V?$allocator@H@std@@XPAU?$WebSocket@$0A@@uWS@@PADIW4OpCode@5@@std@@EAEPAV?$_Func_base@XPAU?$WebSocket@$0A@@uWS@@PADIW4OpCode@2@@2@PAX@Z 10007680 f i Group.obj
 0001:000066a0       ?_Target_type@?$_Func_impl@V<lambda_cdf10bf5b5f8358ddc09646490ca2bd3>@@V?$allocator@H@std@@XPAU?$WebSocket@$0A@@uWS@@@std@@EBEABVtype_info@@XZ 100076a0 f i Group.obj
 0001:000066b0       ?_Copy@?$_Func_impl@V<lambda_cdf10bf5b5f8358ddc09646490ca2bd3>@@V?$allocator@H@std@@XPAU?$WebSocket@$0A@@uWS@@@std@@EBEPAV?$_Func_base@XPAU?$WebSocket@$0A@@uWS@@@2@PAX@Z 100076b0 f i Group.obj
 0001:000066b0       ?_Move@?$_Func_impl@V<lambda_cdf10bf5b5f8358ddc09646490ca2bd3>@@V?$allocator@H@std@@XPAU?$WebSocket@$0A@@uWS@@@std@@EAEPAV?$_Func_base@XPAU?$WebSocket@$0A@@uWS@@@2@PAX@Z 100076b0 f i Group.obj
 0001:000066d0       ?_Target_type@?$_Func_impl@V<lambda_c86eed9c1ab0c35de2c7db853439f0fe>@@V?$allocator@H@std@@XPAU?$WebSocket@$0A@@uWS@@UHttpRequest@5@@std@@EBEABVtype_info@@XZ 100076d0 f i Group.obj
 0001:000066e0       ?_Do_call@?$_Func_impl@V<lambda_c86eed9c1ab0c35de2c7db853439f0fe>@@V?$allocator@H@std@@XPAU?$WebSocket@$0A@@uWS@@UHttpRequest@5@@std@@EAEX$$QAPAU?$WebSocket@$0A@@uWS@@$$QAUHttpRequest@4@@Z 100076e0 f i Group.obj
 0001:000066e0       ?NotifyResourcesExternallyIdle@ThreadScheduler@details@Concurrency@@UAEXPAPAUIVirtualProcessorRoot@3@I@Z 100076e0 f i libconcrt:ThreadScheduler.obj
 0001:000066e0       ?_Do_call@?$_Func_impl@V<lambda_63233af269ebf66ec6711baf6bbbbf3c>@@V?$allocator@H@std@@XPAU?$WebSocket@$00@uWS@@UHttpRequest@5@@std@@EAEX$$QAPAU?$WebSocket@$00@uWS@@$$QAUHttpRequest@4@@Z 100076e0 f i Group.obj
 0001:000066e0       ?NotifyResourcesExternallyBusy@ThreadScheduler@details@Concurrency@@UAEXPAPAUIVirtualProcessorRoot@3@I@Z 100076e0 f i libconcrt:ThreadScheduler.obj
 0001:000066e0       ?VirtualProcessorActiveNotification@SchedulerBase@details@Concurrency@@MAEX_NJ@Z 100076e0 f i libconcrt:SchedulerBase.obj
 0001:000066f0       ?_Copy@?$_Func_impl@V<lambda_c86eed9c1ab0c35de2c7db853439f0fe>@@V?$allocator@H@std@@XPAU?$WebSocket@$0A@@uWS@@UHttpRequest@5@@std@@EBEPAV?$_Func_base@XPAU?$WebSocket@$0A@@uWS@@UHttpRequest@2@@2@PAX@Z 100076f0 f i Group.obj
 0001:000066f0       ?_Move@?$_Func_impl@V<lambda_c86eed9c1ab0c35de2c7db853439f0fe>@@V?$allocator@H@std@@XPAU?$WebSocket@$0A@@uWS@@UHttpRequest@5@@std@@EAEPAV?$_Func_base@XPAU?$WebSocket@$0A@@uWS@@UHttpRequest@2@@2@PAX@Z 100076f0 f i Group.obj
 0001:00006710       ?_Target_type@?$_Func_impl@V<lambda_b50986b69c5d421d67f8cf1f1e01cf51>@@V?$allocator@H@std@@XPAUHttpResponse@uWS@@PADII@std@@EBEABVtype_info@@XZ 10007710 f i Group.obj
 0001:00006720       ?_Move@?$_Func_impl@V<lambda_b50986b69c5d421d67f8cf1f1e01cf51>@@V?$allocator@H@std@@XPAUHttpResponse@uWS@@PADII@std@@EAEPAV?$_Func_base@XPAUHttpResponse@uWS@@PADII@2@PAX@Z 10007720 f i Group.obj
 0001:00006720       ?_Copy@?$_Func_impl@V<lambda_b50986b69c5d421d67f8cf1f1e01cf51>@@V?$allocator@H@std@@XPAUHttpResponse@uWS@@PADII@std@@EBEPAV?$_Func_base@XPAUHttpResponse@uWS@@PADII@2@PAX@Z 10007720 f i Group.obj
 0001:00006740       ?_Target_type@?$_Func_impl@V<lambda_26a43c5493e1ef97d75dc73d0d6d2fb0>@@V?$allocator@H@std@@XPAUHttpResponse@uWS@@@std@@EBEABVtype_info@@XZ 10007740 f i Group.obj
 0001:00006750       ?_Copy@?$_Func_impl@V<lambda_26a43c5493e1ef97d75dc73d0d6d2fb0>@@V?$allocator@H@std@@XPAUHttpResponse@uWS@@@std@@EBEPAV?$_Func_base@XPAUHttpResponse@uWS@@@2@PAX@Z 10007750 f i Group.obj
 0001:00006750       ?_Move@?$_Func_impl@V<lambda_26a43c5493e1ef97d75dc73d0d6d2fb0>@@V?$allocator@H@std@@XPAUHttpResponse@uWS@@@std@@EAEPAV?$_Func_base@XPAUHttpResponse@uWS@@@2@PAX@Z 10007750 f i Group.obj
 0001:00006770       ?_Target_type@?$_Func_impl@V<lambda_3794209ab7a2ee1b14680313776aa0cb>@@V?$allocator@H@std@@XPAU?$HttpSocket@$00@uWS@@@std@@EBEABVtype_info@@XZ 10007770 f i Group.obj
 0001:00006780       ?_Move@?$_Func_impl@V<lambda_3794209ab7a2ee1b14680313776aa0cb>@@V?$allocator@H@std@@XPAU?$HttpSocket@$00@uWS@@@std@@EAEPAV?$_Func_base@XPAU?$HttpSocket@$00@uWS@@@2@PAX@Z 10007780 f i Group.obj
 0001:00006780       ?_Copy@?$_Func_impl@V<lambda_3794209ab7a2ee1b14680313776aa0cb>@@V?$allocator@H@std@@XPAU?$HttpSocket@$00@uWS@@@std@@EBEPAV?$_Func_base@XPAU?$HttpSocket@$00@uWS@@@2@PAX@Z 10007780 f i Group.obj
 0001:000067a0       ?_Target_type@?$_Func_impl@V<lambda_3fbfd5c44bc064280253334d66644dd0>@@V?$allocator@H@std@@XPAU?$HttpSocket@$00@uWS@@@std@@EBEABVtype_info@@XZ 100077a0 f i Group.obj
 0001:000067b0       ?_Copy@?$_Func_impl@V<lambda_3fbfd5c44bc064280253334d66644dd0>@@V?$allocator@H@std@@XPAU?$HttpSocket@$00@uWS@@@std@@EBEPAV?$_Func_base@XPAU?$HttpSocket@$00@uWS@@@2@PAX@Z 100077b0 f i Group.obj
 0001:000067b0       ?_Move@?$_Func_impl@V<lambda_3fbfd5c44bc064280253334d66644dd0>@@V?$allocator@H@std@@XPAU?$HttpSocket@$00@uWS@@@std@@EAEPAV?$_Func_base@XPAU?$HttpSocket@$00@uWS@@@2@PAX@Z 100077b0 f i Group.obj
 0001:000067d0       ?_Target_type@?$_Func_impl@V<lambda_99ef38e60bffb9212b3d1e3c55a2df69>@@V?$allocator@H@std@@XPAUHttpResponse@uWS@@UHttpRequest@5@PADII@std@@EBEABVtype_info@@XZ 100077d0 f i Group.obj
 0001:000067e0       ?_Move@?$_Func_impl@V<lambda_99ef38e60bffb9212b3d1e3c55a2df69>@@V?$allocator@H@std@@XPAUHttpResponse@uWS@@UHttpRequest@5@PADII@std@@EAEPAV?$_Func_base@XPAUHttpResponse@uWS@@UHttpRequest@2@PADII@2@PAX@Z 100077e0 f i Group.obj
 0001:000067e0       ?_Copy@?$_Func_impl@V<lambda_99ef38e60bffb9212b3d1e3c55a2df69>@@V?$allocator@H@std@@XPAUHttpResponse@uWS@@UHttpRequest@5@PADII@std@@EBEPAV?$_Func_base@XPAUHttpResponse@uWS@@UHttpRequest@2@PADII@2@PAX@Z 100077e0 f i Group.obj
 0001:00006800       ?_Target_type@?$_Func_impl@V<lambda_1c688c24fd597b5f755e83302e53023b>@@V?$allocator@H@std@@XH@std@@EBEABVtype_info@@XZ 10007800 f i Group.obj
 0001:00006810       ?_Move@?$_Func_impl@V<lambda_1c688c24fd597b5f755e83302e53023b>@@V?$allocator@H@std@@XH@std@@EAEPAV?$_Func_base@XH@2@PAX@Z 10007810 f i Group.obj
 0001:00006810       ?_Copy@?$_Func_impl@V<lambda_1c688c24fd597b5f755e83302e53023b>@@V?$allocator@H@std@@XH@std@@EBEPAV?$_Func_base@XH@2@PAX@Z 10007810 f i Group.obj
 0001:00006830       ?_Target_type@?$_Func_impl@V<lambda_29fc594577301b1bc2b03af6825a474b>@@V?$allocator@H@std@@XPAU?$WebSocket@$00@uWS@@PADI@std@@EBEABVtype_info@@XZ 10007830 f i Group.obj
 0001:00006840       ?_Move@?$_Func_impl@V<lambda_29fc594577301b1bc2b03af6825a474b>@@V?$allocator@H@std@@XPAU?$WebSocket@$00@uWS@@PADI@std@@EAEPAV?$_Func_base@XPAU?$WebSocket@$00@uWS@@PADI@2@PAX@Z 10007840 f i Group.obj
 0001:00006840       ?_Copy@?$_Func_impl@V<lambda_29fc594577301b1bc2b03af6825a474b>@@V?$allocator@H@std@@XPAU?$WebSocket@$00@uWS@@PADI@std@@EBEPAV?$_Func_base@XPAU?$WebSocket@$00@uWS@@PADI@2@PAX@Z 10007840 f i Group.obj
 0001:00006860       ?_Target_type@?$_Func_impl@V<lambda_a28187498a520298138e8f32ba6c243d>@@V?$allocator@H@std@@XPAU?$WebSocket@$00@uWS@@HPADI@std@@EBEABVtype_info@@XZ 10007860 f i Group.obj
 0001:00006870       ?_Move@?$_Func_impl@V<lambda_a28187498a520298138e8f32ba6c243d>@@V?$allocator@H@std@@XPAU?$WebSocket@$00@uWS@@HPADI@std@@EAEPAV?$_Func_base@XPAU?$WebSocket@$00@uWS@@HPADI@2@PAX@Z 10007870 f i Group.obj
 0001:00006870       ?_Copy@?$_Func_impl@V<lambda_a28187498a520298138e8f32ba6c243d>@@V?$allocator@H@std@@XPAU?$WebSocket@$00@uWS@@HPADI@std@@EBEPAV?$_Func_base@XPAU?$WebSocket@$00@uWS@@HPADI@2@PAX@Z 10007870 f i Group.obj
 0001:00006890       ?_Target_type@?$_Func_impl@V<lambda_5e248ff5b85a9cbef0f96485f89af0f4>@@V?$allocator@H@std@@XPAU?$WebSocket@$00@uWS@@PADIW4OpCode@5@@std@@EBEABVtype_info@@XZ 10007890 f i Group.obj
 0001:000068a0       ?_Copy@?$_Func_impl@V<lambda_5e248ff5b85a9cbef0f96485f89af0f4>@@V?$allocator@H@std@@XPAU?$WebSocket@$00@uWS@@PADIW4OpCode@5@@std@@EBEPAV?$_Func_base@XPAU?$WebSocket@$00@uWS@@PADIW4OpCode@2@@2@PAX@Z 100078a0 f i Group.obj
 0001:000068a0       ?_Move@?$_Func_impl@V<lambda_5e248ff5b85a9cbef0f96485f89af0f4>@@V?$allocator@H@std@@XPAU?$WebSocket@$00@uWS@@PADIW4OpCode@5@@std@@EAEPAV?$_Func_base@XPAU?$WebSocket@$00@uWS@@PADIW4OpCode@2@@2@PAX@Z 100078a0 f i Group.obj
 0001:000068c0       ?_Target_type@?$_Func_impl@V<lambda_3feb86e2305b43992e78a155d1556379>@@V?$allocator@H@std@@XPAU?$WebSocket@$00@uWS@@@std@@EBEABVtype_info@@XZ 100078c0 f i Group.obj
 0001:000068d0       ?_Move@?$_Func_impl@V<lambda_3feb86e2305b43992e78a155d1556379>@@V?$allocator@H@std@@XPAU?$WebSocket@$00@uWS@@@std@@EAEPAV?$_Func_base@XPAU?$WebSocket@$00@uWS@@@2@PAX@Z 100078d0 f i Group.obj
 0001:000068d0       ?_Copy@?$_Func_impl@V<lambda_3feb86e2305b43992e78a155d1556379>@@V?$allocator@H@std@@XPAU?$WebSocket@$00@uWS@@@std@@EBEPAV?$_Func_base@XPAU?$WebSocket@$00@uWS@@@2@PAX@Z 100078d0 f i Group.obj
 0001:000068f0       ?_Target_type@?$_Func_impl@V<lambda_63233af269ebf66ec6711baf6bbbbf3c>@@V?$allocator@H@std@@XPAU?$WebSocket@$00@uWS@@UHttpRequest@5@@std@@EBEABVtype_info@@XZ 100078f0 f i Group.obj
 0001:00006900       ?_Copy@?$_Func_impl@V<lambda_63233af269ebf66ec6711baf6bbbbf3c>@@V?$allocator@H@std@@XPAU?$WebSocket@$00@uWS@@UHttpRequest@5@@std@@EBEPAV?$_Func_base@XPAU?$WebSocket@$00@uWS@@UHttpRequest@2@@2@PAX@Z 10007900 f i Group.obj
 0001:00006900       ?_Move@?$_Func_impl@V<lambda_63233af269ebf66ec6711baf6bbbbf3c>@@V?$allocator@H@std@@XPAU?$WebSocket@$00@uWS@@UHttpRequest@5@@std@@EAEPAV?$_Func_base@XPAU?$WebSocket@$00@uWS@@UHttpRequest@2@@2@PAX@Z 10007900 f i Group.obj
 0001:00006920       ??1_Ref_count_base@std@@UAE@XZ 10007920 f i Networking.obj
 0001:00006930       ?_Get_deleter@_Ref_count_base@std@@UBEPAXABVtype_info@@@Z 10007930 f i Networking.obj
 0001:00006940       ??_G_Ref_count_base@std@@UAEPAXI@Z 10007940 f i Networking.obj
 0001:00006940       ??_E_Ref_count_base@std@@UAEPAXI@Z 10007940 f i * CIL library *:* CIL module *
 0001:00006970       ??0Context@TLS@uS@@QAE@ABV012@@Z 10007970 f   Networking.obj
 0001:000069a0       ??4Context@TLS@uS@@QAEAAV012@ABV012@@Z 100079a0 f   Networking.obj
 0001:000069c0       ??1Context@TLS@uS@@QAE@XZ  100079c0 f   Networking.obj
 0001:00006a10       ?createContext@TLS@uS@@YA?AVContext@12@V?$basic_string@DU?$char_traits@D@std@@V?$allocator@D@2@@std@@00@Z 10007a10 f   Networking.obj
 0001:00006c60       ??$reset@V?$basic_string@DU?$char_traits@D@std@@V?$allocator@D@2@@std@@@?$shared_ptr@V?$basic_string@DU?$char_traits@D@std@@V?$allocator@D@2@@std@@@std@@QAEXPAV?$basic_string@DU?$char_traits@D@std@@V?$allocator@D@2@@1@@Z 10007c60 f i Networking.obj
 0001:00006cc0       ??$?0V?$basic_string@DU?$char_traits@D@std@@V?$allocator@D@2@@std@@@?$shared_ptr@V?$basic_string@DU?$char_traits@D@std@@V?$allocator@D@2@@std@@@std@@QAE@PAV?$basic_string@DU?$char_traits@D@std@@V?$allocator@D@2@@1@@Z 10007cc0 f i Networking.obj
 0001:00006d40       ?_Delete_this@?$_Ref_count@V?$basic_string@DU?$char_traits@D@std@@V?$allocator@D@2@@std@@@std@@EAEXXZ 10007d40 f i Networking.obj
 0001:00006d50       ?_Destroy@?$_Ref_count@V?$basic_string@DU?$char_traits@D@std@@V?$allocator@D@2@@std@@@std@@EAEXXZ 10007d50 f i Networking.obj
 0001:00006db0       ??_E?$_Ref_count@V?$basic_string@DU?$char_traits@D@std@@V?$allocator@D@2@@std@@@std@@UAEPAXI@Z 10007db0 f i * CIL library *:* CIL module *
 0001:00006db0       ??_G?$_Ref_count@V?$basic_string@DU?$char_traits@D@std@@V?$allocator@D@2@@std@@@std@@UAEPAXI@Z 10007db0 f i Networking.obj
 0001:00006de0       ?stoi@std@@YAHABV?$basic_string@DU?$char_traits@D@std@@V?$allocator@D@2@@1@PAIH@Z 10007de0 f i Hub.obj
 0001:00006e40       ?inflate@Hub@uWS@@IAEPADPADAAII@Z 10007e40 f   Hub.obj
 0001:00006f60       ?onServerAccept@Hub@uWS@@KAXPAUSocket@uS@@@Z 10007f60 f   Hub.obj
 0001:00007030       ?onClientConnection@Hub@uWS@@KAXPAUSocket@uS@@_N@Z 10008030 f   Hub.obj
 0001:000070c0       ?listen@Hub@uWS@@QAE_NPBDHVContext@TLS@uS@@HPAU?$Group@$00@2@@Z 100080c0 f   Hub.obj
 0001:00007180       ?listen@Hub@uWS@@QAE_NHVContext@TLS@uS@@HPAU?$Group@$00@2@@Z 10008180 f   Hub.obj
 0001:00007210       ?connect@Hub@uWS@@QAEXV?$basic_string@DU?$char_traits@D@std@@V?$allocator@D@2@@std@@PAXV?$map@V?$basic_string@DU?$char_traits@D@std@@V?$allocator@D@2@@std@@V12@U?$less@V?$basic_string@DU?$char_traits@D@std@@V?$allocator@D@2@@std@@@2@V?$allocator@U?$pair@$$CBV?$basic_string@DU?$char_traits@D@std@@V?$allocator@D@2@@std@@V12@@std@@@2@@4@HPAU?$Group@$0A@@2@@Z 10008210 f   Hub.obj
 0001:00007bf0       ?upgrade@Hub@uWS@@QAEXIPBDPAUssl_st@@0I0IPAU?$Group@$00@2@@Z 10008bf0 f   Hub.obj
 0001:00007dc0       ??_G?$HttpSocket@$00@uWS@@QAEPAXI@Z 10008dc0 f i Hub.obj
 0001:00007dc0       ??_G?$HttpSocket@$0A@@uWS@@QAEPAXI@Z 10008dc0 f i HTTPSocket.obj
 0001:00007e20       ??R?$_Func_class@XPAU?$HttpSocket@$00@uWS@@UHttpRequest@2@@std@@QBEXPAU?$HttpSocket@$00@uWS@@UHttpRequest@3@@Z 10008e20 f i HTTPSocket.obj
 0001:00007e20       ??R?$_Func_class@XPAU?$WebSocket@$0A@@uWS@@UHttpRequest@2@@std@@QBEXPAU?$WebSocket@$0A@@uWS@@UHttpRequest@3@@Z 10008e20 f i HTTPSocket.obj
 0001:00007e20       ??R?$_Func_class@XPAU?$WebSocket@$00@uWS@@UHttpRequest@2@@std@@QBEXPAU?$WebSocket@$00@uWS@@UHttpRequest@3@@Z 10008e20 f i Hub.obj
 0001:00007e40       ??0?$WebSocket@$00@uWS@@IAE@_NPAUSocket@uS@@@Z 10008e40 f i Hub.obj
 0001:00007ed0       ??0?$HttpSocket@$0A@@uWS@@QAE@PAUSocket@uS@@@Z 10008ed0 f i Hub.obj
 0001:00007ed0       ??0?$HttpSocket@$00@uWS@@QAE@PAUSocket@uS@@@Z 10008ed0 f i Hub.obj
 0001:00007f50       ?clear@?$basic_string@DU?$char_traits@D@std@@V?$allocator@D@2@@std@@QAEXXZ 10008f50 f i Hub.obj
 0001:00007f70       ??0?$basic_string@DU?$char_traits@D@std@@V?$allocator@D@2@@std@@QAE@PBD@Z 10008f70 f i Hub.obj
 0001:00007fc0       ?_Traits_compare@?$basic_string@DU?$char_traits@D@std@@V?$allocator@D@2@@std@@SAHQBDI0I@Z 10008fc0 f i Hub.obj
 0001:00008050       ?find_first_of@?$basic_string@DU?$char_traits@D@std@@V?$allocator@D@2@@std@@QBEIPBDII@Z 10009050 f i Hub.obj
 0001:000080d0       ?find@?$basic_string@DU?$char_traits@D@std@@V?$allocator@D@2@@std@@QBEIPBDII@Z 100090d0 f i Hub.obj
 0001:000081d0       ?assign@?$basic_string@DU?$char_traits@D@std@@V?$allocator@D@2@@std@@QAEAAV12@PBDI@Z 100091d0 f i Hub.obj
 0001:000082d0       ?erase@?$_Tree@V?$_Tmap_traits@V?$basic_string@DU?$char_traits@D@std@@V?$allocator@D@2@@std@@V12@U?$less@V?$basic_string@DU?$char_traits@D@std@@V?$allocator@D@2@@std@@@2@V?$allocator@U?$pair@$$CBV?$basic_string@DU?$char_traits@D@std@@V?$allocator@D@2@@std@@V12@@std@@@2@$0A@@std@@@std@@QAE?AV?$_Tree_iterator@V?$_Tree_val@U?$_Tree_simple_types@U?$pair@$$CBV?$basic_string@DU?$char_traits@D@std@@V?$allocator@D@2@@std@@V12@@std@@@std@@@std@@@2@V?$_Tree_const_iterator@V?$_Tree_val@U?$_Tree_simple_types@U?$pair@$$CBV?$basic_string@DU?$char_traits@D@std@@V?$allocator@D@2@@std@@V12@@std@@@std@@@std@@@2@0@Z 100092d0 f i Hub.obj
 0001:00008380       ?clear@?$_Tree@V?$_Tmap_traits@V?$basic_string@DU?$char_traits@D@std@@V?$allocator@D@2@@std@@V12@U?$less@V?$basic_string@DU?$char_traits@D@std@@V?$allocator@D@2@@std@@@2@V?$allocator@U?$pair@$$CBV?$basic_string@DU?$char_traits@D@std@@V?$allocator@D@2@@std@@V12@@std@@@2@$0A@@std@@@std@@QAEXXZ 10009380 f i Hub.obj
 0001:000083d0       ?erase@?$_Tree@V?$_Tmap_traits@V?$basic_string@DU?$char_traits@D@std@@V?$allocator@D@2@@std@@V12@U?$less@V?$basic_string@DU?$char_traits@D@std@@V?$allocator@D@2@@std@@@2@V?$allocator@U?$pair@$$CBV?$basic_string@DU?$char_traits@D@std@@V?$allocator@D@2@@std@@V12@@std@@@2@$0A@@std@@@std@@QAE?AV?$_Tree_iterator@V?$_Tree_val@U?$_Tree_simple_types@U?$pair@$$CBV?$basic_string@DU?$char_traits@D@std@@V?$allocator@D@2@@std@@V12@@std@@@std@@@std@@@2@V?$_Tree_const_iterator@V?$_Tree_val@U?$_Tree_simple_types@U?$pair@$$CBV?$basic_string@DU?$char_traits@D@std@@V?$allocator@D@2@@std@@V12@@std@@@std@@@std@@@2@@Z 100093d0 f i Hub.obj
 0001:000087f0       ?_Erase@?$_Tree@V?$_Tmap_traits@V?$basic_string@DU?$char_traits@D@std@@V?$allocator@D@2@@std@@V12@U?$less@V?$basic_string@DU?$char_traits@D@std@@V?$allocator@D@2@@std@@@2@V?$allocator@U?$pair@$$CBV?$basic_string@DU?$char_traits@D@std@@V?$allocator@D@2@@std@@V12@@std@@@2@$0A@@std@@@std@@IAEXPAU?$_Tree_node@U?$pair@$$CBV?$basic_string@DU?$char_traits@D@std@@V?$allocator@D@2@@std@@V12@@std@@PAX@2@@Z 100097f0 f i Hub.obj
 0001:00008830       ??$_Integral_to_string@DH@std@@YA?AV?$basic_string@DU?$char_traits@D@std@@V?$allocator@D@2@@0@H@Z 10009830 f i Hub.obj
 0001:000088e0       ??$listen@$1?onServerAccept@Hub@uWS@@KAXPAUSocket@uS@@@Z@Node@uS@@QAE_NPBDHVContext@TLS@1@HPAUNodeData@1@PAX@Z 100098e0 f i Hub.obj
 0001:00008b30       ??$connect@$1?allocateHttpSocket@uWS@@YAPAUSocket@uS@@PAU34@@Z$1?onClientConnection@Hub@2@KAX0_N@Z@Node@uS@@QAEPAUSocket@1@PBDH_NPAUNodeData@1@@Z 10009b30 f i Hub.obj
 0001:00008d10       ??$?HDU?$char_traits@D@std@@V?$allocator@D@1@@std@@YA?AV?$basic_string@DU?$char_traits@D@std@@V?$allocator@D@2@@0@PBDABV10@@Z 10009d10 f i Hub.obj
 0001:00008d80       ??$sslIoHandler@U?$HttpSocket@$00@uWS@@@Socket@uS@@KAXPAUPoll@@HH@Z 10009d80 f i Hub.obj
 0001:00008f50       ??$ioHandler@U?$HttpSocket@$00@uWS@@@Socket@uS@@KAXPAUPoll@@HH@Z 10009f50 f i Hub.obj
 0001:00009090       ??$sslIoHandler@U?$HttpSocket@$0A@@uWS@@@Socket@uS@@KAXPAUPoll@@HH@Z 1000a090 f i Hub.obj
 0001:00009260       ??$ioHandler@U?$HttpSocket@$0A@@uWS@@@Socket@uS@@KAXPAUPoll@@HH@Z 1000a260 f i Hub.obj
 0001:000093a0       ??$accept_poll_cb@$1?onServerAccept@Hub@uWS@@KAXPAUSocket@uS@@@Z@Node@uS@@CAXPAUPoll@@HH@Z 1000a3a0 f i Hub.obj
 0001:000093c0       ??$connect_cb@$1?onClientConnection@Hub@uWS@@KAXPAUSocket@uS@@_N@Z@Node@uS@@CAXPAUPoll@@HH@Z 1000a3c0 f i Hub.obj
 0001:000093e0       ??$sslIoHandler@U?$WebSocket@$00@uWS@@@Socket@uS@@KAXPAUPoll@@HH@Z 1000a3e0 f i Hub.obj
 0001:000095d0       ??$ioHandler@U?$WebSocket@$00@uWS@@@Socket@uS@@KAXPAUPoll@@HH@Z 1000a5d0 f i Hub.obj
 0001:00009730       ??$accept_cb@$1?onServerAccept@Hub@uWS@@KAXPAUSocket@uS@@@Z$0A@@Node@uS@@CAXPAUListenSocket@1@@Z 1000a730 f i Hub.obj
 0001:000098b0       ??1?$pair@$$CBV?$basic_string@DU?$char_traits@D@std@@V?$allocator@D@2@@std@@V12@@std@@QAE@XZ 1000a8b0 f i Hub.obj
 0001:00009920       ??$accept_timer_cb@$1?onServerAccept@Hub@uWS@@KAXPAUSocket@uS@@@Z@Node@uS@@CAXPAUTimer@@@Z 1000a920 f i Hub.obj
 0001:00009940       ??$accept_cb@$1?onServerAccept@Hub@uWS@@KAXPAUSocket@uS@@@Z$00@Node@uS@@CAXPAUListenSocket@1@@Z 1000a940 f i Hub.obj
 0001:00009aa0       ?asyncCallback@NodeData@uS@@SAXPAUAsync@@@Z 1000aaa0 f   Node.obj
 0001:00009c20       ??0Node@uS@@QAE@HHH_N@Z    1000ac20 f   Node.obj
 0001:00009d80       ?run@Node@uS@@QAEXXZ       1000ad80 f   Node.obj
 0001:00009da0       ??1Node@uS@@QAE@XZ         1000ada0 f   Node.obj
 0001:00009ea0       _htonll                    1000aea0 f i WebSocket.obj
 0001:00009f30       ?send@?$WebSocket@$0A@@uWS@@QAEXPBDW4OpCode@2@@Z 1000af30 f i WebSocket.obj
 0001:00009f60       ?ping@?$WebSocket@$0A@@uWS@@QAEXPBD@Z 1000af60 f i WebSocket.obj
 0001:00009fa0       ?forceClose@?$WebSocket@$0A@@uWS@@KAXPAU?$WebSocketState@$0A@@2@@Z 1000afa0 f i WebSocket.obj
 0001:00009fc0       ?setCompressed@?$WebSocket@$0A@@uWS@@KA_NPAU?$WebSocketState@$0A@@2@@Z 1000afc0 f i WebSocket.obj
 0001:00009fe0       ?refusePayloadLength@?$WebSocket@$00@uWS@@KA_N_KPAU?$WebSocketState@$00@2@@Z 1000afe0 f i WebSocket.obj
 0001:00009fe0       ?refusePayloadLength@?$WebSocket@$0A@@uWS@@KA_N_KPAU?$WebSocketState@$0A@@2@@Z 1000afe0 f i WebSocket.obj
 0001:0000a010       ??0?$WebSocket@$0A@@uWS@@IAE@_NPAUSocket@uS@@@Z 1000b010 f i WebSocket.obj
 0001:0000a0a0       ?send@?$WebSocket@$00@uWS@@QAEXPBDW4OpCode@2@@Z 1000b0a0 f i WebSocket.obj
 0001:0000a0d0       ?ping@?$WebSocket@$00@uWS@@QAEXPBD@Z 1000b0d0 f i WebSocket.obj
 0001:0000a110       ?forceClose@?$WebSocket@$00@uWS@@KAXPAU?$WebSocketState@$00@2@@Z 1000b110 f i WebSocket.obj
 0001:0000a130       ?setCompressed@?$WebSocket@$00@uWS@@KA_NPAU?$WebSocketState@$00@2@@Z 1000b130 f i WebSocket.obj
 0001:0000a150       ?resize@?$basic_string@DU?$char_traits@D@std@@V?$allocator@D@2@@std@@QAEXI@Z 1000b150 f i WebSocket.obj
 0001:0000a180       ?_Chassign@?$basic_string@DU?$char_traits@D@std@@V?$allocator@D@2@@std@@QAEXIID@Z 1000b180 f i WebSocket.obj
 0001:0000a1d0       ?append@?$basic_string@DU?$char_traits@D@std@@V?$allocator@D@2@@std@@QAEAAV12@ID@Z 1000b1d0 f i WebSocket.obj
 0001:0000a270       ?onData@?$WebSocket@$00@uWS@@KAPAUSocket@uS@@PAU34@PADI@Z 1000b270 f i WebSocket.obj
 0001:0000a2a0       ?onEnd@?$WebSocket@$00@uWS@@KAXPAUSocket@uS@@@Z 1000b2a0 f i WebSocket.obj
 0001:0000a3d0       ?handleFragment@?$WebSocket@$00@uWS@@KA_NPADIIH_NPAU?$WebSocketState@$00@2@@Z 1000b3d0 f i WebSocket.obj
 0001:0000a750       ?sendPrepared@?$WebSocket@$00@uWS@@QAEXPAUPreparedMessage@12@PAX@Z 1000b750 f i WebSocket.obj
 0001:0000a750       ?sendPrepared@?$WebSocket@$0A@@uWS@@QAEXPAUPreparedMessage@12@PAX@Z 1000b750 f i WebSocket.obj
 0001:0000a880       ?finalizeMessage@?$WebSocket@$0A@@uWS@@SAXPAUPreparedMessage@12@@Z 1000b880 f i WebSocket.obj
 0001:0000a880       ?finalizeMessage@?$WebSocket@$00@uWS@@SAXPAUPreparedMessage@12@@Z 1000b880 f i WebSocket.obj
 0001:0000a8a0       ?close@?$WebSocket@$00@uWS@@QAEXHPBDI@Z 1000b8a0 f i WebSocket.obj
 0001:0000aa10       ?transfer@?$WebSocket@$00@uWS@@QAEXPAU?$Group@$00@2@@Z 1000ba10 f i WebSocket.obj
 0001:0000aa10       ?transfer@?$WebSocket@$0A@@uWS@@QAEXPAU?$Group@$0A@@2@@Z 1000ba10 f i WebSocket.obj
 0001:0000aaf0       ?terminate@?$WebSocket@$00@uWS@@QAEXXZ 1000baf0 f i WebSocket.obj
 0001:0000ab00       ?send@?$WebSocket@$00@uWS@@QAEXPBDIW4OpCode@2@P6AXPAU12@PAX_N3@Z3@Z 1000bb00 f i WebSocket.obj
 0001:0000aba0       ?prepareMessage@?$WebSocket@$00@uWS@@SAPAUPreparedMessage@12@PADIW4OpCode@2@_NP6AXPAU12@PAX24@Z@Z 1000bba0 f i WebSocket.obj
 0001:0000abf0       ?prepareMessageBatch@?$WebSocket@$00@uWS@@SAPAUPreparedMessage@12@AAV?$vector@V?$basic_string@DU?$char_traits@D@std@@V?$allocator@D@2@@std@@V?$allocator@V?$basic_string@DU?$char_traits@D@std@@V?$allocator@D@2@@std@@@2@@std@@AAV?$vector@HV?$allocator@H@std@@@5@W4OpCode@2@_NP6AXPAU12@PAX35@Z@Z 1000bbf0 f i WebSocket.obj
 0001:0000ae90       ?onData@?$WebSocket@$0A@@uWS@@KAPAUSocket@uS@@PAU34@PADI@Z 1000be90 f i WebSocket.obj
 0001:0000aec0       ?onEnd@?$WebSocket@$0A@@uWS@@KAXPAUSocket@uS@@@Z 1000bec0 f i WebSocket.obj
 0001:0000aff0       ?handleFragment@?$WebSocket@$0A@@uWS@@KA_NPADIIH_NPAU?$WebSocketState@$0A@@2@@Z 1000bff0 f i WebSocket.obj
 0001:0000b370       ?close@?$WebSocket@$0A@@uWS@@QAEXHPBDI@Z 1000c370 f i WebSocket.obj
 0001:0000b4a0       ?terminate@?$WebSocket@$0A@@uWS@@QAEXXZ 1000c4a0 f i WebSocket.obj
 0001:0000b4b0       ?send@?$WebSocket@$0A@@uWS@@QAEXPBDIW4OpCode@2@P6AXPAU12@PAX_N3@Z3@Z 1000c4b0 f i WebSocket.obj
 0001:0000b4d0       ?prepareMessage@?$WebSocket@$0A@@uWS@@SAPAUPreparedMessage@12@PADIW4OpCode@2@_NP6AXPAU12@PAX24@Z@Z 1000c4d0 f i WebSocket.obj
 0001:0000b520       ?prepareMessageBatch@?$WebSocket@$0A@@uWS@@SAPAUPreparedMessage@12@AAV?$vector@V?$basic_string@DU?$char_traits@D@std@@V?$allocator@D@2@@std@@V?$allocator@V?$basic_string@DU?$char_traits@D@std@@V?$allocator@D@2@@std@@@2@@std@@AAV?$vector@HV?$allocator@H@std@@@5@W4OpCode@2@_NP6AXPAU12@PAX35@Z@Z 1000c520 f i WebSocket.obj
 0001:0000b720       ?consume@?$WebSocketProtocol@$0A@U?$WebSocket@$0A@@uWS@@@uWS@@SAXPADIPAU?$WebSocketState@$0A@@2@@Z 1000c720 f i WebSocket.obj
 0001:0000b940       ?formatMessage@?$WebSocketProtocol@$0A@U?$WebSocket@$0A@@uWS@@@uWS@@SAIPADPBDIW4OpCode@2@I_N@Z 1000c940 f i WebSocket.obj
 0001:0000ba10       ?formatClosePayload@?$WebSocketProtocol@$0A@U?$WebSocket@$0A@@uWS@@@uWS@@SAIPADGPBDI@Z 1000ca10 f i WebSocket.obj
 0001:0000ba10       ?formatClosePayload@?$WebSocketProtocol@$00U?$WebSocket@$00@uWS@@@uWS@@SAIPADGPBDI@Z 1000ca10 f i WebSocket.obj
 0001:0000ba50       ?parseClosePayload@?$WebSocketProtocol@$0A@U?$WebSocket@$0A@@uWS@@@uWS@@SA?AUCloseFrame@12@PADI@Z 1000ca50 f i WebSocket.obj
 0001:0000ba50       ?parseClosePayload@?$WebSocketProtocol@$00U?$WebSocket@$00@uWS@@@uWS@@SA?AUCloseFrame@12@PADI@Z 1000ca50 f i WebSocket.obj
 0001:0000bb20       ?isValidUtf8@?$WebSocketProtocol@$00U?$WebSocket@$00@uWS@@@uWS@@SA_NPAEI@Z 1000cb20 f i WebSocket.obj
 0001:0000bb20       ?isValidUtf8@?$WebSocketProtocol@$0A@U?$WebSocket@$0A@@uWS@@@uWS@@SA_NPAEI@Z 1000cb20 f i WebSocket.obj
 0001:0000bc60       ?consume@?$WebSocketProtocol@$00U?$WebSocket@$00@uWS@@@uWS@@SAXPADIPAU?$WebSocketState@$00@2@@Z 1000cc60 f i WebSocket.obj
 0001:0000be80       ?formatMessage@?$WebSocketProtocol@$00U?$WebSocket@$00@uWS@@@uWS@@SAIPADPBDIW4OpCode@2@I_N@Z 1000ce80 f i WebSocket.obj
 0001:0000bf10       ??R?$_Func_class@XPAU?$WebSocket@$00@uWS@@PADI@std@@QBEXPAU?$WebSocket@$00@uWS@@PADI@Z 1000cf10 f i WebSocket.obj
 0001:0000bf10       ??R?$_Func_class@XPAU?$WebSocket@$0A@@uWS@@PADI@std@@QBEXPAU?$WebSocket@$0A@@uWS@@PADI@Z 1000cf10 f i WebSocket.obj
 0001:0000bf40       ??R?$_Func_class@XPAU?$WebSocket@$00@uWS@@PADIW4OpCode@2@@std@@QBEXPAU?$WebSocket@$00@uWS@@PADIW4OpCode@3@@Z 1000cf40 f i WebSocket.obj
 0001:0000bf40       ??R?$_Func_class@XPAU?$WebSocket@$0A@@uWS@@PADIW4OpCode@2@@std@@QBEXPAU?$WebSocket@$0A@@uWS@@PADIW4OpCode@3@@Z 1000cf40 f i WebSocket.obj
 0001:0000bf70       ?consumeContinuation@?$WebSocketProtocol@$0A@U?$WebSocket@$0A@@uWS@@@uWS@@CA_NAAPADAAIPAU?$WebSocketState@$0A@@2@@Z 1000cf70 f i WebSocket.obj
 0001:0000c020       ?rsv1@?$WebSocketProtocol@$0A@U?$WebSocket@$0A@@uWS@@@uWS@@CA_NPAD@Z 1000d020 f i WebSocket.obj
 0001:0000c020       ?rsv1@?$WebSocketProtocol@$00U?$WebSocket@$00@uWS@@@uWS@@CA_NPAD@Z 1000d020 f i WebSocket.obj
 0001:0000c030       ?rsv23@?$WebSocketProtocol@$0A@U?$WebSocket@$0A@@uWS@@@uWS@@CA_NPAD@Z 1000d030 f i WebSocket.obj
 0001:0000c030       ?rsv23@?$WebSocketProtocol@$00U?$WebSocket@$00@uWS@@@uWS@@CA_NPAD@Z 1000d030 f i WebSocket.obj
 0001:0000c040       ?payloadLength@?$WebSocketProtocol@$00U?$WebSocket@$00@uWS@@@uWS@@CAEPAD@Z 1000d040 f i WebSocket.obj
 0001:0000c040       ?payloadLength@?$WebSocketProtocol@$0A@U?$WebSocket@$0A@@uWS@@@uWS@@CAEPAD@Z 1000d040 f i WebSocket.obj
 0001:0000c050       ?getOpCode@?$WebSocketProtocol@$0A@U?$WebSocket@$0A@@uWS@@@uWS@@CAEPAD@Z 1000d050 f i WebSocket.obj
 0001:0000c050       ?getOpCode@?$WebSocketProtocol@$00U?$WebSocket@$00@uWS@@@uWS@@CAEPAD@Z 1000d050 f i WebSocket.obj
 0001:0000c060       ?isFin@?$WebSocketProtocol@$00U?$WebSocket@$00@uWS@@@uWS@@CA_NPAD@Z 1000d060 f i WebSocket.obj
 0001:0000c060       ?isFin@?$WebSocketProtocol@$0A@U?$WebSocket@$0A@@uWS@@@uWS@@CA_NPAD@Z 1000d060 f i WebSocket.obj
 0001:0000c070       ?consumeContinuation@?$WebSocketProtocol@$00U?$WebSocket@$00@uWS@@@uWS@@CA_NAAPADAAIPAU?$WebSocketState@$00@2@@Z 1000d070 f i WebSocket.obj
 0001:0000c190       ?unmaskInplace@?$WebSocketProtocol@$00U?$WebSocket@$00@uWS@@@uWS@@CAXPAD00@Z 1000d190 f i WebSocket.obj
 0001:0000c190       ?unmaskInplace@?$WebSocketProtocol@$0A@U?$WebSocket@$0A@@uWS@@@uWS@@CAXPAD00@Z 1000d190 f i WebSocket.obj
 0001:0000c1d0       ?rotateMask@?$WebSocketProtocol@$0A@U?$WebSocket@$0A@@uWS@@@uWS@@CAXIPAD@Z 1000d1d0 f i WebSocket.obj
 0001:0000c1d0       ?rotateMask@?$WebSocketProtocol@$00U?$WebSocket@$00@uWS@@@uWS@@CAXIPAD@Z 1000d1d0 f i WebSocket.obj
 0001:0000c2b0       ??$sendTransformed@UWebSocketTransformer@?1??send@?$WebSocket@$00@uWS@@QAEXPBDIW4OpCode@4@P6AXPAU34@PAX_N3@Z3@Z@UTransformData@?1??234@QAEX0I153@Z@@Socket@uS@@IAEXPBDIP6AXPAX1_N1@Z1UTransformData@?1??send@?$WebSocket@$00@uWS@@QAEX0IW4OpCode@5@P6AXPAU45@121@Z1@Z@@Z 1000d2b0 f i WebSocket.obj
 0001:0000c550       ??$sendTransformed@UWebSocketTransformer@?1??send@?$WebSocket@$0A@@uWS@@QAEXPBDIW4OpCode@4@P6AXPAU34@PAX_N3@Z3@Z@UTransformData@?1??234@QAEX0I153@Z@@Socket@uS@@IAEXPBDIP6AXPAX1_N1@Z1UTransformData@?1??send@?$WebSocket@$0A@@uWS@@QAEX0IW4OpCode@5@P6AXPAU45@121@Z1@Z@@Z 1000d550 f i WebSocket.obj
 0001:0000c760       ??$consumeMessage@$01E@?$WebSocketProtocol@$0A@U?$WebSocket@$0A@@uWS@@@uWS@@CA_NEAAPADAAIPAU?$WebSocketState@$0A@@1@@Z 1000d760 f i WebSocket.obj
 0001:0000c8b0       ??$consumeMessage@$03G@?$WebSocketProtocol@$0A@U?$WebSocket@$0A@@uWS@@@uWS@@CA_NGAAPADAAIPAU?$WebSocketState@$0A@@1@@Z 1000d8b0 f i WebSocket.obj
 0001:0000ca00       ??$consumeMessage@$09_K@?$WebSocketProtocol@$0A@U?$WebSocket@$0A@@uWS@@@uWS@@CA_N_KAAPADAAIPAU?$WebSocketState@$0A@@1@@Z 1000da00 f i WebSocket.obj
 0001:0000cb60       ??$consumeMessage@$05E@?$WebSocketProtocol@$00U?$WebSocket@$00@uWS@@@uWS@@CA_NEAAPADAAIPAU?$WebSocketState@$00@1@@Z 1000db60 f i WebSocket.obj
 0001:0000cd80       ??$consumeMessage@$07G@?$WebSocketProtocol@$00U?$WebSocket@$00@uWS@@@uWS@@CA_NGAAPADAAIPAU?$WebSocketState@$00@1@@Z 1000dd80 f i WebSocket.obj
 0001:0000cfa0       ??$consumeMessage@$0O@_K@?$WebSocketProtocol@$00U?$WebSocket@$00@uWS@@@uWS@@CA_N_KAAPADAAIPAU?$WebSocketState@$00@1@@Z 1000dfa0 f i WebSocket.obj
 0001:0000d1e0       ?unmaskImpreciseCopyMask@?$WebSocketProtocol@$0A@U?$WebSocket@$0A@@uWS@@@uWS@@CAXPAD00I@Z 1000e1e0 f i WebSocket.obj
 0001:0000d220       ?unmaskImprecise@?$WebSocketProtocol@$00U?$WebSocket@$00@uWS@@@uWS@@CAXPAD00I@Z 1000e220 f i WebSocket.obj
 0001:0000d220       ?unmaskImprecise@?$WebSocketProtocol@$0A@U?$WebSocket@$0A@@uWS@@@uWS@@CAXPAD00I@Z 1000e220 f i WebSocket.obj
 0001:0000d270       ?unmaskImpreciseCopyMask@?$WebSocketProtocol@$00U?$WebSocket@$00@uWS@@@uWS@@CAXPAD00I@Z 1000e270 f i WebSocket.obj
 0001:0000d2d0       ?getHeader@HttpRequest@uWS@@QAE?AUHeader@2@PBDI@Z 1000e2d0 f i HTTPSocket.obj
 0001:0000d350       ?getMethod@HttpRequest@uWS@@QAE?AW4HttpMethod@2@XZ 1000e350 f i HTTPSocket.obj
 0001:0000d490       ?getHeaders@uWS@@YAPADPAD0PAUHeader@1@I@Z 1000e490 f   HTTPSocket.obj
 0001:0000d620       ?upgrade@?$HttpSocket@$00@uWS@@QAEXPBD0I0IPA_N@Z 1000e620 f i HTTPSocket.obj
 0001:0000d970       ?onData@?$HttpSocket@$00@uWS@@CAPAUSocket@uS@@PAU34@PADI@Z 1000e970 f i HTTPSocket.obj
 0001:0000de90       ?onEnd@?$HttpSocket@$00@uWS@@CAXPAUSocket@uS@@@Z 1000ee90 f i HTTPSocket.obj
 0001:0000dff0       ?upgrade@?$HttpSocket@$0A@@uWS@@QAEXPBD0I0IPA_N@Z 1000eff0 f i HTTPSocket.obj
 0001:0000e0a0       ?onData@?$HttpSocket@$0A@@uWS@@CAPAUSocket@uS@@PAU34@PADI@Z 1000f0a0 f i HTTPSocket.obj
 0001:0000e360       ?onEnd@?$HttpSocket@$0A@@uWS@@CAXPAUSocket@uS@@@Z 1000f360 f i HTTPSocket.obj
 0001:0000e530       ??$sslIoHandler@U?$WebSocket@$0A@@uWS@@@Socket@uS@@KAXPAUPoll@@HH@Z 1000f530 f i HTTPSocket.obj
 0001:0000e720       ??$ioHandler@U?$WebSocket@$0A@@uWS@@@Socket@uS@@KAXPAUPoll@@HH@Z 1000f720 f i HTTPSocket.obj
 0001:0000e880       ?getAddress@Socket@uS@@QAE?AUAddress@12@XZ 1000f880 f   Socket.obj
 0001:0000e980       ___local_stdio_printf_options 1000f980 f i addon.obj
 0001:0000e990       _sprintf                   1000f990 f i addon.obj
 0001:0000e9c0       _sprintf_s                 1000f9c0 f i addon.obj
 0001:0000ea00       ?what@exception@stdext@@UBEPBDXZ 1000fa00 f i addon.obj
 0001:0000ea10       ?_Raise@exception@stdext@@QBEXXZ 1000fa10 f i addon.obj
 0001:0000ea40       ___except_validate_context_record 1000fa40 f i libvcruntime:jbcxrval.obj
 0001:0000ea40       ?destroy@stl_condition_variable_win7@details@Concurrency@@UAEXXZ 1000fa40 f i libcpmt:cond.obj
 0001:0000ea40       ?getHeader@Response@HttpServer@@SAXABV?$FunctionCallbackInfo@VValue@v8@@@v8@@@Z 1000fa40 f i addon.obj
 0001:0000ea40       ?RMAwaken@InternalContextBase@details@Concurrency@@EAEXXZ 1000fa40 f i libconcrt:InternalContextBase.obj
 0001:0000ea40       @_guard_check_icall_nop@4  1000fa40 f i LIBCMT:guard_support.obj
 0001:0000ea40       ___except_validate_jump_buffer 1000fa40 f i libvcruntime:jbcxrval.obj
 0001:0000ea40       ?resume@Request@HttpServer@@SAXABV?$FunctionCallbackInfo@VValue@v8@@@v8@@@Z 1000fa40 f i addon.obj
 0001:0000ea40       ??1critical_section@Concurrency@@QAE@XZ 1000fa40 f i libconcrt:rtlocks.obj
 0001:0000ea40       ?_Doraise@exception@stdext@@MBEXXZ 1000fa40 f i addon.obj
 0001:0000ea40       ?Destroy@WaitAnyBlock@details@Concurrency@@UAEXXZ 1000fa40 f i libconcrt:event.obj
 0001:0000ea40       ?destroy@stl_critical_section_win7@details@Concurrency@@UAEXXZ 1000fa40 f i libcpmt:mutex.obj
 0001:0000ea40       ?destroy@stl_condition_variable_vista@details@Concurrency@@UAEXXZ 1000fa40 f i libcpmt:cond.obj
 0001:0000ea40       ?_Unlock@?$basic_streambuf@DU?$char_traits@D@std@@@std@@UAEXXZ 1000fa40 f i libcpmt:cout.obj
 0001:0000ea40       ?unpipe@Request@HttpServer@@SAXABV?$FunctionCallbackInfo@VValue@v8@@@v8@@@Z 1000fa40 f i addon.obj
 0001:0000ea40       ?_Lock@?$basic_streambuf@DU?$char_traits@D@std@@@std@@UAEXXZ 1000fa40 f i libcpmt:cout.obj
 0001:0000ea40       ?NotifyAffinitizedWork@FairScheduleGroupSegment@details@Concurrency@@UAEXXZ 1000fa40 f i libconcrt:SchedulerBase.obj
 0001:0000ea40       ??3@YAXPAX0@Z              1000fa40 f i libcpmt:mutex.obj
 0001:0000ea40       ?setHeader@Response@HttpServer@@SAXABV?$FunctionCallbackInfo@VValue@v8@@@v8@@@Z 1000fa40 f i addon.obj
 0001:0000ea50       ??_Gexception@stdext@@UAEPAXI@Z 1000fa50 f i addon.obj
 0001:0000ea50       ??_Eexception@stdext@@UAEPAXI@Z 1000fa50 f i * CIL library *:* CIL module *
 0001:0000ea50       ??_Gruntime_error@std@@UAEPAXI@Z 1000fa50 f i addon.obj
 0001:0000ea50       ??_Eruntime_error@std@@UAEPAXI@Z 1000fa50 f i * CIL library *:* CIL module *
 0001:0000ea80       ??0_Locinfo@std@@QAE@PBD@Z 1000fa80 f i addon.obj
 0001:0000eb00       ??1_Locinfo@std@@QAE@XZ    1000fb00 f i addon.obj
 0001:0000eba0       ??_G_Facet_base@std@@UAEPAXI@Z 1000fba0 f i addon.obj
 0001:0000eba0       ??_E_Facet_base@std@@UAEPAXI@Z 1000fba0 f i * CIL library *:* CIL module *
 0001:0000ebd0       ??Bid@locale@std@@QAEIXZ   1000fbd0 f i addon.obj
 0001:0000ec10       ?_Incref@facet@locale@std@@UAEXXZ 1000fc10 f i addon.obj
 0001:0000ec20       ?_Decref@facet@locale@std@@UAEPAV_Facet_base@3@XZ 1000fc20 f i addon.obj
 0001:0000ec40       ??1locale@std@@QAE@XZ      1000fc40 f i addon.obj
 0001:0000ec60       ?c_str@locale@std@@QBEPBDXZ 1000fc60 f i addon.obj
 0001:0000ec80       ?_Getfacet@locale@std@@QBEPBVfacet@12@I@Z 1000fc80 f i addon.obj
 0001:0000ecc0       ?_Getcat@?$ctype@D@std@@SAIPAPBVfacet@locale@2@PBV42@@Z 1000fcc0 f i addon.obj
 0001:0000ed50       ?do_tolower@?$ctype@D@std@@MBEDD@Z 1000fd50 f i addon.obj
 0001:0000ed70       ?do_tolower@?$ctype@D@std@@MBEPBDPADPBD@Z 1000fd70 f i addon.obj
 0001:0000edb0       ?do_toupper@?$ctype@D@std@@MBEDD@Z 1000fdb0 f i addon.obj
 0001:0000edd0       ?do_toupper@?$ctype@D@std@@MBEPBDPADPBD@Z 1000fdd0 f i addon.obj
 0001:0000ee10       ?do_widen@?$ctype@D@std@@MBEDD@Z 1000fe10 f i addon.obj
 0001:0000ee20       ?do_widen@?$ctype@D@std@@MBEPBDPBD0PAD@Z 1000fe20 f i addon.obj
 0001:0000ee40       ?do_narrow@?$ctype@D@std@@MBEDDD@Z 1000fe40 f i addon.obj
 0001:0000ee50       ?do_narrow@?$ctype@D@std@@MBEPBDPBD0DPAD@Z 1000fe50 f i addon.obj
 0001:0000ee70       ??_E?$ctype@D@std@@MAEPAXI@Z 1000fe70 f i * CIL library *:* CIL module *
 0001:0000ee70       ??_G?$ctype@D@std@@MAEPAXI@Z 1000fe70 f i addon.obj
 0001:0000eec0       ??_Gerror_category@std@@UAEPAXI@Z 1000fec0 f i addon.obj
 0001:0000eec0       ??_E_Generic_error_category@std@@UAEPAXI@Z 1000fec0 f i * CIL library *:* CIL module *
 0001:0000eec0       ??_Eerror_category@std@@UAEPAXI@Z 1000fec0 f i * CIL library *:* CIL module *
 0001:0000eec0       ??_E_Iostream_error_category@std@@UAEPAXI@Z 1000fec0 f i * CIL library *:* CIL module *
 0001:0000eec0       ??_G_Iostream_error_category@std@@UAEPAXI@Z 1000fec0 f i addon.obj
 0001:0000eec0       ??_G_Generic_error_category@std@@UAEPAXI@Z 1000fec0 f i addon.obj
 0001:0000eef0       ?default_error_condition@error_category@std@@UBE?AVerror_condition@2@H@Z 1000fef0 f i addon.obj
 0001:0000ef00       ?equivalent@error_category@std@@UBE_NHABVerror_condition@2@@Z 1000ff00 f i addon.obj
 0001:0000ef40       ?equivalent@error_category@std@@UBE_NABVerror_code@2@H@Z 1000ff40 f i addon.obj
 0001:0000ef70       ?_Makestr@_System_error@std@@CA?AV?$basic_string@DU?$char_traits@D@std@@V?$allocator@D@2@@2@Verror_code@2@V32@@Z 1000ff70 f i addon.obj
 0001:0000f010       ??0_System_error@std@@IAE@Verror_code@1@ABV?$basic_string@DU?$char_traits@D@std@@V?$allocator@D@2@@1@@Z 10010010 f i addon.obj
 0001:0000f0b0       ??_E_System_error@std@@UAEPAXI@Z 100100b0 f i * CIL library *:* CIL module *
 0001:0000f0b0       ??_Efailure@ios_base@std@@UAEPAXI@Z 100100b0 f i * CIL library *:* CIL module *
 0001:0000f0b0       ??_Gsystem_error@std@@UAEPAXI@Z 100100b0 f i addon.obj
 0001:0000f0b0       ??_Gfailure@ios_base@std@@UAEPAXI@Z 100100b0 f i addon.obj
 0001:0000f0b0       ??_Esystem_error@std@@UAEPAXI@Z 100100b0 f i * CIL library *:* CIL module *
 0001:0000f0b0       ??_G_System_error@std@@UAEPAXI@Z 100100b0 f i addon.obj
 0001:0000f0e0       ??0system_error@std@@QAE@Verror_code@1@PBD@Z 100100e0 f i addon.obj
 0001:0000f180       ??1system_error@std@@UAE@XZ 10010180 f i addon.obj
 0001:0000f190       ?name@_Generic_error_category@std@@UBEPBDXZ 10010190 f i addon.obj
 0001:0000f1a0       ?message@_Generic_error_category@std@@UBE?AV?$basic_string@DU?$char_traits@D@std@@V?$allocator@D@2@@2@H@Z 100101a0 f i addon.obj
 0001:0000f200       ?name@_Iostream_error_category@std@@UBEPBDXZ 10010200 f i addon.obj
 0001:0000f210       ?message@_Iostream_error_category@std@@UBE?AV?$basic_string@DU?$char_traits@D@std@@V?$allocator@D@2@@2@H@Z 10010210 f i addon.obj
 0001:0000f250       ?clear@ios_base@std@@QAEXH_N@Z 10010250 f i addon.obj
 0001:0000f300       ?end@HttpResponse@uWS@@QAEXPBDIP6AXPAX1_N1@Z1@Z 10010300 f i addon.obj
 0001:0000f480       ?NODE_SET_METHOD@node@@YAXV?$Local@VObject@v8@@@v8@@PBDP6AXABV?$FunctionCallbackInfo@VValue@v8@@@3@@Z@Z 10010480 f i addon.obj
 0001:0000f5b0       ??0NativeString@@QAE@ABV?$Local@VValue@v8@@@v8@@@Z 100105b0 f i addon.obj
 0001:0000f700       ?connect@@YAXABV?$FunctionCallbackInfo@VValue@v8@@@v8@@@Z 10010700 f   addon.obj
 0001:0000f830       ?upgrade@@YAXABV?$FunctionCallbackInfo@VValue@v8@@@v8@@@Z 10010830 f   addon.obj
 0001:0000f980       ?transfer@@YAXABV?$FunctionCallbackInfo@VValue@v8@@@v8@@@Z 10010980 f   addon.obj
 0001:0000fb40       ?onError@@YAXABV?$FunctionCallbackInfo@VValue@v8@@@v8@@@Z 10010b40 f   addon.obj
 0001:0000fca0       ?forEach@@YAXABV?$FunctionCallbackInfo@VValue@v8@@@v8@@@Z 10010ca0 f   addon.obj
 0001:0000fd00       ?getSize@@YAXABV?$FunctionCallbackInfo@VValue@v8@@@v8@@@Z 10010d00 f   addon.obj
 0001:0000fd50       ?startAutoPing@@YAXABV?$FunctionCallbackInfo@VValue@v8@@@v8@@@Z 10010d50 f   addon.obj
 0001:0000fe20       ?setNoop@@YAXABV?$FunctionCallbackInfo@VValue@v8@@@v8@@@Z 10010e20 f   addon.obj
 0001:0000fe80       ?listen@@YAXABV?$FunctionCallbackInfo@VValue@v8@@@v8@@@Z 10010e80 f   addon.obj
 0001:0000ff00       ?on@Request@HttpServer@@SAXABV?$FunctionCallbackInfo@VValue@v8@@@v8@@@Z 10010f00 f i addon.obj
 0001:00010120       ?headers@Request@HttpServer@@SAXV?$Local@VString@v8@@@v8@@ABV?$PropertyCallbackInfo@VValue@v8@@@4@@Z 10011120 f i addon.obj
 0001:000101f0       ?url@Request@HttpServer@@SAXV?$Local@VString@v8@@@v8@@ABV?$PropertyCallbackInfo@VValue@v8@@@4@@Z 100111f0 f i addon.obj
 0001:00010250       ?method@Request@HttpServer@@SAXV?$Local@VString@v8@@@v8@@ABV?$PropertyCallbackInfo@VValue@v8@@@4@@Z 10011250 f i addon.obj
 0001:00010450       ?socket@Request@HttpServer@@SAXABV?$FunctionCallbackInfo@VValue@v8@@@v8@@@Z 10011450 f i addon.obj
 0001:00010480       ?getTemplateObject@Request@HttpServer@@SA?AV?$Local@VObject@v8@@@v8@@PAVIsolate@4@@Z 10011480 f i addon.obj
 0001:00010740       ?on@Response@HttpServer@@SAXABV?$FunctionCallbackInfo@VValue@v8@@@v8@@@Z 10011740 f i addon.obj
 0001:000108c0       ?end@Response@HttpServer@@SAXABV?$FunctionCallbackInfo@VValue@v8@@@v8@@@Z 100118c0 f i addon.obj
 0001:00010990       ?writeHead@Response@HttpServer@@SAXABV?$FunctionCallbackInfo@VValue@v8@@@v8@@@Z 10011990 f i addon.obj
 0001:00010c80       ?write@Response@HttpServer@@SAXABV?$FunctionCallbackInfo@VValue@v8@@@v8@@@Z 10011c80 f i addon.obj
 0001:00010d20       ?getTemplateObject@Response@HttpServer@@SA?AV?$Local@VObject@v8@@@v8@@PAVIsolate@4@@Z 10011d20 f i addon.obj
 0001:00010fa0       ?createServer@HttpServer@@SAXABV?$FunctionCallbackInfo@VValue@v8@@@v8@@@Z 10011fa0 f i addon.obj
 0001:00011760       ?on@HttpServer@@SAXABV?$FunctionCallbackInfo@VValue@v8@@@v8@@@Z 10012760 f i addon.obj
 0001:00011830       ?listen@HttpServer@@SAXABV?$FunctionCallbackInfo@VValue@v8@@@v8@@@Z 10012830 f i addon.obj
 0001:00011960       ?getExpressApp@HttpServer@@SAXABV?$FunctionCallbackInfo@VValue@v8@@@v8@@@Z 10012960 f i addon.obj
 0001:00011ab0       ?getResponsePrototype@HttpServer@@SAXABV?$FunctionCallbackInfo@VValue@v8@@@v8@@@Z 10012ab0 f i addon.obj
 0001:00011b00       ?getRequestPrototype@HttpServer@@SAXABV?$FunctionCallbackInfo@VValue@v8@@@v8@@@Z 10012b00 f i addon.obj
 0001:00011b50       ?getHttpServer@HttpServer@@SA?AV?$Local@VFunction@v8@@@v8@@PAVIsolate@3@@Z 10012b50 f i addon.obj
 0001:00011e10       ?Main@@YAXV?$Local@VObject@v8@@@v8@@@Z 10012e10 f   addon.obj
 0001:00011fb0       ??0?$Namespace@$0A@@@QAE@PAVIsolate@v8@@@Z 10012fb0 f i addon.obj
 0001:00012150       ??0?$Namespace@$00@@QAE@PAVIsolate@v8@@@Z 10013150 f i addon.obj
 0001:00012330       ??6?$basic_ostream@DU?$char_traits@D@std@@@std@@QAEAAV01@_N@Z 10013330 f i addon.obj
 0001:00012470       ??1sentry@?$basic_ostream@DU?$char_traits@D@std@@@std@@QAE@XZ 10013470 f i addon.obj
 0001:000124d0       ??0sentry@?$basic_ostream@DU?$char_traits@D@std@@@std@@QAE@AAV12@@Z 100134d0 f i addon.obj
 0001:00012530       ?do_put@?$num_put@DV?$ostreambuf_iterator@DU?$char_traits@D@std@@@std@@@std@@MBE?AV?$ostreambuf_iterator@DU?$char_traits@D@std@@@2@V32@AAVios_base@2@DPBX@Z 10013530 f i addon.obj
 0001:000125a0       ?do_put@?$num_put@DV?$ostreambuf_iterator@DU?$char_traits@D@std@@@std@@@std@@MBE?AV?$ostreambuf_iterator@DU?$char_traits@D@std@@@2@V32@AAVios_base@2@DO@Z 100135a0 f i addon.obj
 0001:00012740       ?do_put@?$num_put@DV?$ostreambuf_iterator@DU?$char_traits@D@std@@@std@@@std@@MBE?AV?$ostreambuf_iterator@DU?$char_traits@D@std@@@2@V32@AAVios_base@2@DN@Z 10013740 f i addon.obj
 0001:000128e0       ?do_put@?$num_put@DV?$ostreambuf_iterator@DU?$char_traits@D@std@@@std@@@std@@MBE?AV?$ostreambuf_iterator@DU?$char_traits@D@std@@@2@V32@AAVios_base@2@D_K@Z 100138e0 f i addon.obj
 0001:00012960       ?do_put@?$num_put@DV?$ostreambuf_iterator@DU?$char_traits@D@std@@@std@@@std@@MBE?AV?$ostreambuf_iterator@DU?$char_traits@D@std@@@2@V32@AAVios_base@2@D_J@Z 10013960 f i addon.obj
 0001:000129e0       ?do_put@?$num_put@DV?$ostreambuf_iterator@DU?$char_traits@D@std@@@std@@@std@@MBE?AV?$ostreambuf_iterator@DU?$char_traits@D@std@@@2@V32@AAVios_base@2@DK@Z 100139e0 f i addon.obj
 0001:00012a60       ?do_put@?$num_put@DV?$ostreambuf_iterator@DU?$char_traits@D@std@@@std@@@std@@MBE?AV?$ostreambuf_iterator@DU?$char_traits@D@std@@@2@V32@AAVios_base@2@DJ@Z 10013a60 f i addon.obj
 0001:00012ae0       ?do_put@?$num_put@DV?$ostreambuf_iterator@DU?$char_traits@D@std@@@std@@@std@@MBE?AV?$ostreambuf_iterator@DU?$char_traits@D@std@@@2@V32@AAVios_base@2@D_N@Z 10013ae0 f i addon.obj
 0001:00012cb0       ?assign@?$basic_string@DU?$char_traits@D@std@@V?$allocator@D@2@@std@@QAEAAV12@ID@Z 10013cb0 f i addon.obj
 0001:00012d80       ??_G?$num_put@DV?$ostreambuf_iterator@DU?$char_traits@D@std@@@std@@@std@@MAEPAXI@Z 10013d80 f i addon.obj
 0001:00012d80       ??_E?$num_put@DV?$ostreambuf_iterator@DU?$char_traits@D@std@@@std@@@std@@MAEPAXI@Z 10013d80 f i * CIL library *:* CIL module *
 0001:00012db0       ?do_truename@?$numpunct@D@std@@MBE?AV?$basic_string@DU?$char_traits@D@std@@V?$allocator@D@2@@2@XZ 10013db0 f i addon.obj
 0001:00012e00       ?do_falsename@?$numpunct@D@std@@MBE?AV?$basic_string@DU?$char_traits@D@std@@V?$allocator@D@2@@2@XZ 10013e00 f i addon.obj
 0001:00012e50       ?do_grouping@?$numpunct@D@std@@MBE?AV?$basic_string@DU?$char_traits@D@std@@V?$allocator@D@2@@2@XZ 10013e50 f i addon.obj
 0001:00012ea0       ?do_thousands_sep@?$numpunct@D@std@@MBEDXZ 10013ea0 f i addon.obj
 0001:00012eb0       ?do_decimal_point@?$numpunct@D@std@@MBEDXZ 10013eb0 f i addon.obj
 0001:00012ec0       ?_Rep@?$num_put@DV?$ostreambuf_iterator@DU?$char_traits@D@std@@@std@@@std@@ABA?AV?$ostreambuf_iterator@DU?$char_traits@D@std@@@2@V32@DI@Z 10013ec0 f i addon.obj
 0001:00012f30       ?_Put@?$num_put@DV?$ostreambuf_iterator@DU?$char_traits@D@std@@@std@@@std@@ABA?AV?$ostreambuf_iterator@DU?$char_traits@D@std@@@2@V32@PBDI@Z 10013f30 f i addon.obj
 0001:00012fb0       ?_Iput@?$num_put@DV?$ostreambuf_iterator@DU?$char_traits@D@std@@@std@@@std@@ABA?AV?$ostreambuf_iterator@DU?$char_traits@D@std@@@2@V32@AAVios_base@2@DPADI@Z 10013fb0 f i addon.obj
 0001:00013310       ?_Ifmt@?$num_put@DV?$ostreambuf_iterator@DU?$char_traits@D@std@@@std@@@std@@ABAPADPADPBDH@Z 10014310 f i addon.obj
 0001:000133a0       ?_Fput@?$num_put@DV?$ostreambuf_iterator@DU?$char_traits@D@std@@@std@@@std@@ABA?AV?$ostreambuf_iterator@DU?$char_traits@D@std@@@2@V32@AAVios_base@2@DPBDI@Z 100143a0 f i addon.obj
 0001:00013770       ?_Ffmt@?$num_put@DV?$ostreambuf_iterator@DU?$char_traits@D@std@@@std@@@std@@ABAPADPADDH@Z 10014770 f i addon.obj
 0001:00013830       ?flush@?$basic_ostream@DU?$char_traits@D@std@@@std@@QAEAAV12@XZ 10014830 f i addon.obj
 0001:000138a0       ??_G?$numpunct@D@std@@MAEPAXI@Z 100148a0 f i addon.obj
 0001:000138a0       ??_E?$numpunct@D@std@@MAEPAXI@Z 100148a0 f i * CIL library *:* CIL module *
 0001:000138f0       ?insert@?$basic_string@DU?$char_traits@D@std@@V?$allocator@D@2@@std@@QAEAAV12@IID@Z 100148f0 f i addon.obj
 0001:000139f0       ??$use_facet@V?$ctype@D@std@@@std@@YAABV?$ctype@D@0@ABVlocale@0@@Z 100149f0 f i addon.obj
 0001:00013ae0       ??$_Immortalize@V_Iostream_error_category@std@@@std@@YAAAV_Iostream_error_category@0@XZ 10014ae0 f i addon.obj
 0001:00013b50       ??$_Integral_to_string@D_J@std@@YA?AV?$basic_string@DU?$char_traits@D@std@@V?$allocator@D@2@@0@_J@Z 10014b50 f i addon.obj
 0001:00013be0       ??$sendTransformed@UNoopTransformer@?1??write@HttpResponse@uWS@@QAEXPBDIP6AXPAX1_N1@Z1@Z@H@Socket@uS@@IAEXPBDIP6AXPAX1_N1@Z1H@Z 10014be0 f i addon.obj
 0001:00013d80       ??$sendTransformed@UHttpTransformer@?1??end@HttpResponse@uWS@@QAEXPBDIP6AXPAX1_N1@Z1@Z@UTransformData@?1??234@QAEX0I31@Z@@Socket@uS@@IAEXPBDIP6AXPAX1_N1@Z1UTransformData@?1??end@HttpResponse@uWS@@QAEX0I31@Z@@Z 10014d80 f i addon.obj
 0001:00013fd0       ??$forEach@V<lambda_43e3674de1a7b3f79f3d356d30cb89c5>@@@?$Group@$00@uWS@@QAEXABV<lambda_43e3674de1a7b3f79f3d356d30cb89c5>@@@Z 10014fd0 f i addon.obj
 0001:00014100       ??$?6U?$char_traits@D@std@@@std@@YAAAV?$basic_ostream@DU?$char_traits@D@std@@@0@AAV10@PBD@Z 10015100 f i addon.obj
 0001:00014340       ??$?6DU?$char_traits@D@std@@V?$allocator@D@1@@std@@YAAAV?$basic_ostream@DU?$char_traits@D@std@@@0@AAV10@ABV?$basic_string@DU?$char_traits@D@std@@V?$allocator@D@2@@0@@Z 10015340 f i addon.obj
 0001:00014540       ??$endl@DU?$char_traits@D@std@@@std@@YAAAV?$basic_ostream@DU?$char_traits@D@std@@@0@AAV10@@Z 10015540 f i addon.obj
 0001:000145b0       ??$setUserData@$00@@YAXABV?$FunctionCallbackInfo@VValue@v8@@@v8@@@Z 100155b0 f i addon.obj
 0001:00014670       ??$getUserData@$00@@YAXABV?$FunctionCallbackInfo@VValue@v8@@@v8@@@Z 10015670 f i addon.obj
 0001:000146d0       ??$clearUserData@$00@@YAXABV?$FunctionCallbackInfo@VValue@v8@@@v8@@@Z 100156d0 f i addon.obj
 0001:00014720       ??$getAddress@$00@@YAXABV?$FunctionCallbackInfo@VValue@v8@@@v8@@@Z 10015720 f i addon.obj
 0001:00014810       ??$send@$0A@@@YAXABV?$FunctionCallbackInfo@VValue@v8@@@v8@@@Z 10015810 f i addon.obj
 0001:00014940       ??$closeSocket@$0A@@@YAXABV?$FunctionCallbackInfo@VValue@v8@@@v8@@@Z 10015940 f i addon.obj
 0001:000149f0       ??$terminateSocket@$0A@@@YAXABV?$FunctionCallbackInfo@VValue@v8@@@v8@@@Z 100159f0 f i addon.obj
 0001:00014a30       ??$prepareMessage@$0A@@@YAXABV?$FunctionCallbackInfo@VValue@v8@@@v8@@@Z 10015a30 f i addon.obj
 0001:00014b10       ??$sendPrepared@$00@@YAXABV?$FunctionCallbackInfo@VValue@v8@@@v8@@@Z 10015b10 f i addon.obj
 0001:00014b10       ??$sendPrepared@$0A@@@YAXABV?$FunctionCallbackInfo@VValue@v8@@@v8@@@Z 10015b10 f i addon.obj
 0001:00014b60       ??$finalizeMessage@$0A@@@YAXABV?$FunctionCallbackInfo@VValue@v8@@@v8@@@Z 10015b60 f i addon.obj
 0001:00014b60       ??$finalizeMessage@$00@@YAXABV?$FunctionCallbackInfo@VValue@v8@@@v8@@@Z 10015b60 f i addon.obj
 0001:00014ba0       ??$onConnection@$0A@@@YAXABV?$FunctionCallbackInfo@VValue@v8@@@v8@@@Z 10015ba0 f i addon.obj
 0001:00014ce0       ??$onMessage@$0A@@@YAXABV?$FunctionCallbackInfo@VValue@v8@@@v8@@@Z 10015ce0 f i addon.obj
 0001:00014e60       ??$onDisconnection@$0A@@@YAXABV?$FunctionCallbackInfo@VValue@v8@@@v8@@@Z 10015e60 f i addon.obj
 0001:00015030       ??$onPing@$0A@@@YAXABV?$FunctionCallbackInfo@VValue@v8@@@v8@@@Z 10016030 f i addon.obj
 0001:00015190       ??$onPong@$0A@@@YAXABV?$FunctionCallbackInfo@VValue@v8@@@v8@@@Z 10016190 f i addon.obj
 0001:00015230       ??$createGroup@$0A@@@YAXABV?$FunctionCallbackInfo@VValue@v8@@@v8@@@Z 10016230 f i addon.obj
 0001:00015320       ??$deleteGroup@$00@@YAXABV?$FunctionCallbackInfo@VValue@v8@@@v8@@@Z 10016320 f i addon.obj
 0001:00015320       ??$deleteGroup@$0A@@@YAXABV?$FunctionCallbackInfo@VValue@v8@@@v8@@@Z 10016320 f i addon.obj
 0001:00015370       ??$closeGroup@$0A@@@YAXABV?$FunctionCallbackInfo@VValue@v8@@@v8@@@Z 10016370 f i addon.obj
 0001:00015460       ??$terminateGroup@$0A@@@YAXABV?$FunctionCallbackInfo@VValue@v8@@@v8@@@Z 10016460 f i addon.obj
 0001:000154a0       ??$broadcast@$0A@@@YAXABV?$FunctionCallbackInfo@VValue@v8@@@v8@@@Z 100164a0 f i addon.obj
 0001:00015550       ??$send@$00@@YAXABV?$FunctionCallbackInfo@VValue@v8@@@v8@@@Z 10016550 f i addon.obj
 0001:00015680       ??$closeSocket@$00@@YAXABV?$FunctionCallbackInfo@VValue@v8@@@v8@@@Z 10016680 f i addon.obj
 0001:00015730       ??$terminateSocket@$00@@YAXABV?$FunctionCallbackInfo@VValue@v8@@@v8@@@Z 10016730 f i addon.obj
 0001:00015770       ??$prepareMessage@$00@@YAXABV?$FunctionCallbackInfo@VValue@v8@@@v8@@@Z 10016770 f i addon.obj
 0001:00015850       ??$onConnection@$00@@YAXABV?$FunctionCallbackInfo@VValue@v8@@@v8@@@Z 10016850 f i addon.obj
 0001:000158f0       ??$onMessage@$00@@YAXABV?$FunctionCallbackInfo@VValue@v8@@@v8@@@Z 100168f0 f i addon.obj
 0001:00015990       ??$onDisconnection@$00@@YAXABV?$FunctionCallbackInfo@VValue@v8@@@v8@@@Z 10016990 f i addon.obj
 0001:00015a40       ??$onPing@$00@@YAXABV?$FunctionCallbackInfo@VValue@v8@@@v8@@@Z 10016a40 f i addon.obj
 0001:00015ae0       ??$onPong@$00@@YAXABV?$FunctionCallbackInfo@VValue@v8@@@v8@@@Z 10016ae0 f i addon.obj
 0001:00015b80       ??$createGroup@$00@@YAXABV?$FunctionCallbackInfo@VValue@v8@@@v8@@@Z 10016b80 f i addon.obj
 0001:00015c70       ??$closeGroup@$00@@YAXABV?$FunctionCallbackInfo@VValue@v8@@@v8@@@Z 10016c70 f i addon.obj
 0001:00015d20       ??$terminateGroup@$00@@YAXABV?$FunctionCallbackInfo@VValue@v8@@@v8@@@Z 10016d20 f i addon.obj
 0001:00015da0       ??$broadcast@$00@@YAXABV?$FunctionCallbackInfo@VValue@v8@@@v8@@@Z 10016da0 f i addon.obj
 0001:00015e50       ??$use_facet@V?$num_put@DV?$ostreambuf_iterator@DU?$char_traits@D@std@@@std@@@std@@@std@@YAABV?$num_put@DV?$ostreambuf_iterator@DU?$char_traits@D@std@@@std@@@0@ABVlocale@0@@Z 10016e50 f i addon.obj
 0001:00015f50       ??$use_facet@V?$numpunct@D@std@@@std@@YAABV?$numpunct@D@0@ABVlocale@0@@Z 10016f50 f i addon.obj
 0001:00016040       ?_Getcat@?$numpunct@D@std@@SAIPAPBVfacet@locale@2@PBV42@@Z 10017040 f i addon.obj
 0001:000160c0       ?_Getcat@?$num_put@DV?$ostreambuf_iterator@DU?$char_traits@D@std@@@std@@@std@@SAIPAPBVfacet@locale@2@PBV42@@Z 100170c0 f i addon.obj
 0001:00016130       ?put@?$basic_ostream@DU?$char_traits@D@std@@@std@@QAEAAV12@D@Z 10017130 f i addon.obj
 0001:00016240       ?widen@?$basic_ios@DU?$char_traits@D@std@@@std@@QBEDD@Z 10017240 f i addon.obj
 0001:00016290       ?insert@?$basic_string@DU?$char_traits@D@std@@V?$allocator@D@2@@std@@QAEAAV12@IPBDI@Z 10017290 f i addon.obj
 0001:000163d0       ?_Init@?$numpunct@D@std@@IAEXABV_Locinfo@2@_N@Z 100173d0 f i addon.obj
 0001:00016510       ?insert@?$basic_string@DU?$char_traits@D@std@@V?$allocator@D@2@@std@@QAEAAV12@IABV12@II@Z 10017510 f i addon.obj
 0001:00016670       ??$_UIntegral_to_buff@D_K@std@@YAPADPAD_K@Z 10017670 f i addon.obj
 0001:00016710       ??$sendCallback@$00@@YAXPAU?$WebSocket@$00@uWS@@PAX_N1@Z 10017710 f i addon.obj
 0001:00016710       ??$sendCallback@$0A@@@YAXPAU?$WebSocket@$0A@@uWS@@PAX_N1@Z 10017710 f i addon.obj
 0001:000167b0       ?_Target_type@?$_Func_impl@V<lambda_ab21da79468cf75ef8a5b2c19fc9df60>@@V?$allocator@H@std@@XPAUHttpResponse@uWS@@PADII@std@@EBEABVtype_info@@XZ 100177b0 f i addon.obj
 0001:000167c0       ?_Do_call@?$_Func_impl@V<lambda_ab21da79468cf75ef8a5b2c19fc9df60>@@V?$allocator@H@std@@XPAUHttpResponse@uWS@@PADII@std@@EAEX$$QAPAUHttpResponse@uWS@@$$QAPAD$$QAI2@Z 100177c0 f i addon.obj
 0001:000167f0       ?_Copy@?$_Func_impl@V<lambda_ab21da79468cf75ef8a5b2c19fc9df60>@@V?$allocator@H@std@@XPAUHttpResponse@uWS@@PADII@std@@EBEPAV?$_Func_base@XPAUHttpResponse@uWS@@PADII@2@PAX@Z 100177f0 f i addon.obj
 0001:000167f0       ?_Move@?$_Func_impl@V<lambda_ab21da79468cf75ef8a5b2c19fc9df60>@@V?$allocator@H@std@@XPAUHttpResponse@uWS@@PADII@std@@EAEPAV?$_Func_base@XPAUHttpResponse@uWS@@PADII@2@PAX@Z 100177f0 f i addon.obj
 0001:00016810       ?_Target_type@?$_Func_impl@V<lambda_cbf472aa6ee717239cd6161d1e7aab15>@@V?$allocator@H@std@@XPAUHttpResponse@uWS@@@std@@EBEABVtype_info@@XZ 10017810 f i addon.obj
 0001:00016820       ?_Do_call@?$_Func_impl@V<lambda_cbf472aa6ee717239cd6161d1e7aab15>@@V?$allocator@H@std@@XPAUHttpResponse@uWS@@@std@@EAEX$$QAPAUHttpResponse@uWS@@@Z 10017820 f i addon.obj
 0001:00016840       ?_Copy@?$_Func_impl@V<lambda_cbf472aa6ee717239cd6161d1e7aab15>@@V?$allocator@H@std@@XPAUHttpResponse@uWS@@@std@@EBEPAV?$_Func_base@XPAUHttpResponse@uWS@@@2@PAX@Z 10017840 f i addon.obj
 0001:00016840       ?_Move@?$_Func_impl@V<lambda_cbf472aa6ee717239cd6161d1e7aab15>@@V?$allocator@H@std@@XPAUHttpResponse@uWS@@@std@@EAEPAV?$_Func_base@XPAUHttpResponse@uWS@@@2@PAX@Z 10017840 f i addon.obj
 0001:00016860       ?_Target_type@?$_Func_impl@V<lambda_af7a5422dd374fbb44bb0600bceb4c12>@@V?$allocator@H@std@@XPAUHttpResponse@uWS@@UHttpRequest@5@PADII@std@@EBEABVtype_info@@XZ 10017860 f i addon.obj
 0001:00016870       ?_Do_call@?$_Func_impl@V<lambda_af7a5422dd374fbb44bb0600bceb4c12>@@V?$allocator@H@std@@XPAUHttpResponse@uWS@@UHttpRequest@5@PADII@std@@EAEX$$QAPAUHttpResponse@uWS@@$$QAUHttpRequest@4@$$QAPAD$$QAI3@Z 10017870 f i addon.obj
 0001:000168a0       ?_Copy@?$_Func_impl@V<lambda_af7a5422dd374fbb44bb0600bceb4c12>@@V?$allocator@H@std@@XPAUHttpResponse@uWS@@UHttpRequest@5@PADII@std@@EBEPAV?$_Func_base@XPAUHttpResponse@uWS@@UHttpRequest@2@PADII@2@PAX@Z 100178a0 f i addon.obj
 0001:000168a0       ?_Move@?$_Func_impl@V<lambda_af7a5422dd374fbb44bb0600bceb4c12>@@V?$allocator@H@std@@XPAUHttpResponse@uWS@@UHttpRequest@5@PADII@std@@EAEPAV?$_Func_base@XPAUHttpResponse@uWS@@UHttpRequest@2@PADII@2@PAX@Z 100178a0 f i addon.obj
 0001:000168c0       ?_Target_type@?$_Func_impl@V<lambda_14958bf5dc4f051e32ab96422140a561>@@V?$allocator@H@std@@XPAX@std@@EBEABVtype_info@@XZ 100178c0 f i addon.obj
 0001:000168d0       ?_Do_call@?$_Func_impl@V<lambda_14958bf5dc4f051e32ab96422140a561>@@V?$allocator@H@std@@XPAX@std@@EAEX$$QAPAX@Z 100178d0 f i addon.obj
 0001:000168f0       ?_Copy@?$_Func_impl@V<lambda_14958bf5dc4f051e32ab96422140a561>@@V?$allocator@H@std@@XPAX@std@@EBEPAV?$_Func_base@XPAX@2@PAX@Z 100178f0 f i addon.obj
 0001:000168f0       ?_Move@?$_Func_impl@V<lambda_14958bf5dc4f051e32ab96422140a561>@@V?$allocator@H@std@@XPAX@std@@EAEPAV?$_Func_base@XPAX@2@PAX@Z 100178f0 f i addon.obj
 0001:00016910       ?_Target_type@?$_Func_impl@V<lambda_cd9dafd5dd8557c825a5e1eed9936cb1>@@V?$allocator@H@std@@XPAU?$WebSocket@$00@uWS@@PADI@std@@EBEABVtype_info@@XZ 10017910 f i addon.obj
 0001:00016920       ?_Do_call@?$_Func_impl@V<lambda_99f67bed414616fd95dc4419d5bb6d86>@@V?$allocator@H@std@@XPAU?$WebSocket@$00@uWS@@PADI@std@@EAEX$$QAPAU?$WebSocket@$00@uWS@@$$QAPAD$$QAI@Z 10017920 f i addon.obj
 0001:00016920       ?_Do_call@?$_Func_impl@V<lambda_1d46c80fc537237927264025b327cfb0>@@V?$allocator@H@std@@XPAU?$WebSocket@$0A@@uWS@@PADI@std@@EAEX$$QAPAU?$WebSocket@$0A@@uWS@@$$QAPAD$$QAI@Z 10017920 f i addon.obj
 0001:00016920       ?_Do_call@?$_Func_impl@V<lambda_8f1b2285fb4d43b2e4da5a4614c9e8de>@@V?$allocator@H@std@@XPAU?$WebSocket@$0A@@uWS@@PADI@std@@EAEX$$QAPAU?$WebSocket@$0A@@uWS@@$$QAPAD$$QAI@Z 10017920 f i addon.obj
 0001:00016920       ?_Do_call@?$_Func_impl@V<lambda_cd9dafd5dd8557c825a5e1eed9936cb1>@@V?$allocator@H@std@@XPAU?$WebSocket@$00@uWS@@PADI@std@@EAEX$$QAPAU?$WebSocket@$00@uWS@@$$QAPAD$$QAI@Z 10017920 f i addon.obj
 0001:00016940       ?_Move@?$_Func_impl@V<lambda_cd9dafd5dd8557c825a5e1eed9936cb1>@@V?$allocator@H@std@@XPAU?$WebSocket@$00@uWS@@PADI@std@@EAEPAV?$_Func_base@XPAU?$WebSocket@$00@uWS@@PADI@2@PAX@Z 10017940 f i addon.obj
 0001:00016940       ?_Copy@?$_Func_impl@V<lambda_cd9dafd5dd8557c825a5e1eed9936cb1>@@V?$allocator@H@std@@XPAU?$WebSocket@$00@uWS@@PADI@std@@EBEPAV?$_Func_base@XPAU?$WebSocket@$00@uWS@@PADI@2@PAX@Z 10017940 f i addon.obj
 0001:00016960       ?_Target_type@?$_Func_impl@V<lambda_99f67bed414616fd95dc4419d5bb6d86>@@V?$allocator@H@std@@XPAU?$WebSocket@$00@uWS@@PADI@std@@EBEABVtype_info@@XZ 10017960 f i addon.obj
 0001:00016970       ?_Move@?$_Func_impl@V<lambda_99f67bed414616fd95dc4419d5bb6d86>@@V?$allocator@H@std@@XPAU?$WebSocket@$00@uWS@@PADI@std@@EAEPAV?$_Func_base@XPAU?$WebSocket@$00@uWS@@PADI@2@PAX@Z 10017970 f i addon.obj
 0001:00016970       ?_Copy@?$_Func_impl@V<lambda_99f67bed414616fd95dc4419d5bb6d86>@@V?$allocator@H@std@@XPAU?$WebSocket@$00@uWS@@PADI@std@@EBEPAV?$_Func_base@XPAU?$WebSocket@$00@uWS@@PADI@2@PAX@Z 10017970 f i addon.obj
 0001:00016990       ?_Target_type@?$_Func_impl@V<lambda_e1637142ea344e884e17eb9d2de27d2d>@@V?$allocator@H@std@@XPAU?$WebSocket@$00@uWS@@HPADI@std@@EBEABVtype_info@@XZ 10017990 f i addon.obj
 0001:000169a0       ?_Do_call@?$_Func_impl@V<lambda_e1637142ea344e884e17eb9d2de27d2d>@@V?$allocator@H@std@@XPAU?$WebSocket@$00@uWS@@HPADI@std@@EAEX$$QAPAU?$WebSocket@$00@uWS@@$$QAH$$QAPAD$$QAI@Z 100179a0 f i addon.obj
 0001:000169a0       ?_Do_call@?$_Func_impl@V<lambda_a9c374da5dc12dabd3c598763daba76e>@@V?$allocator@H@std@@XPAU?$WebSocket@$0A@@uWS@@HPADI@std@@EAEX$$QAPAU?$WebSocket@$0A@@uWS@@$$QAH$$QAPAD$$QAI@Z 100179a0 f i addon.obj
 0001:000169d0       ?_Copy@?$_Func_impl@V<lambda_e1637142ea344e884e17eb9d2de27d2d>@@V?$allocator@H@std@@XPAU?$WebSocket@$00@uWS@@HPADI@std@@EBEPAV?$_Func_base@XPAU?$WebSocket@$00@uWS@@HPADI@2@PAX@Z 100179d0 f i addon.obj
 0001:000169d0       ?_Move@?$_Func_impl@V<lambda_e1637142ea344e884e17eb9d2de27d2d>@@V?$allocator@H@std@@XPAU?$WebSocket@$00@uWS@@HPADI@std@@EAEPAV?$_Func_base@XPAU?$WebSocket@$00@uWS@@HPADI@2@PAX@Z 100179d0 f i addon.obj
 0001:00016a00       ?_Target_type@?$_Func_impl@V<lambda_48a2ad8411dfb78ca19670ff520707ee>@@V?$allocator@H@std@@XPAU?$WebSocket@$00@uWS@@PADIW4OpCode@5@@std@@EBEABVtype_info@@XZ 10017a00 f i addon.obj
 0001:00016a10       ?_Do_call@?$_Func_impl@V<lambda_cd4883bb11e6c621b1acc92b6d8da8c1>@@V?$allocator@H@std@@XPAU?$WebSocket@$0A@@uWS@@PADIW4OpCode@5@@std@@EAEX$$QAPAU?$WebSocket@$0A@@uWS@@$$QAPAD$$QAI$$QAW4OpCode@4@@Z 10017a10 f i addon.obj
 0001:00016a10       ?_Do_call@?$_Func_impl@V<lambda_48a2ad8411dfb78ca19670ff520707ee>@@V?$allocator@H@std@@XPAU?$WebSocket@$00@uWS@@PADIW4OpCode@5@@std@@EAEX$$QAPAU?$WebSocket@$00@uWS@@$$QAPAD$$QAI$$QAW4OpCode@4@@Z 10017a10 f i addon.obj
 0001:00016a40       ?_Move@?$_Func_impl@V<lambda_48a2ad8411dfb78ca19670ff520707ee>@@V?$allocator@H@std@@XPAU?$WebSocket@$00@uWS@@PADIW4OpCode@5@@std@@EAEPAV?$_Func_base@XPAU?$WebSocket@$00@uWS@@PADIW4OpCode@2@@2@PAX@Z 10017a40 f i addon.obj
 0001:00016a40       ?_Copy@?$_Func_impl@V<lambda_48a2ad8411dfb78ca19670ff520707ee>@@V?$allocator@H@std@@XPAU?$WebSocket@$00@uWS@@PADIW4OpCode@5@@std@@EBEPAV?$_Func_base@XPAU?$WebSocket@$00@uWS@@PADIW4OpCode@2@@2@PAX@Z 10017a40 f i addon.obj
 0001:00016a60       ?_Target_type@?$_Func_impl@V<lambda_133e58a517827c34a78e0f1d8439cbb2>@@V?$allocator@H@std@@XPAU?$WebSocket@$00@uWS@@UHttpRequest@5@@std@@EBEABVtype_info@@XZ 10017a60 f i addon.obj
 0001:00016a70       ?_Do_call@?$_Func_impl@V<lambda_208c1e08f92f7c47e87798a7b3d6644f>@@V?$allocator@H@std@@XPAU?$WebSocket@$0A@@uWS@@UHttpRequest@5@@std@@EAEX$$QAPAU?$WebSocket@$0A@@uWS@@$$QAUHttpRequest@4@@Z 10017a70 f i addon.obj
 0001:00016a70       ?_Do_call@?$_Func_impl@V<lambda_133e58a517827c34a78e0f1d8439cbb2>@@V?$allocator@H@std@@XPAU?$WebSocket@$00@uWS@@UHttpRequest@5@@std@@EAEX$$QAPAU?$WebSocket@$00@uWS@@$$QAUHttpRequest@4@@Z 10017a70 f i addon.obj
 0001:00016a90       ?_Copy@?$_Func_impl@V<lambda_133e58a517827c34a78e0f1d8439cbb2>@@V?$allocator@H@std@@XPAU?$WebSocket@$00@uWS@@UHttpRequest@5@@std@@EBEPAV?$_Func_base@XPAU?$WebSocket@$00@uWS@@UHttpRequest@2@@2@PAX@Z 10017a90 f i addon.obj
 0001:00016a90       ?_Move@?$_Func_impl@V<lambda_133e58a517827c34a78e0f1d8439cbb2>@@V?$allocator@H@std@@XPAU?$WebSocket@$00@uWS@@UHttpRequest@5@@std@@EAEPAV?$_Func_base@XPAU?$WebSocket@$00@uWS@@UHttpRequest@2@@2@PAX@Z 10017a90 f i addon.obj
 0001:00016ac0       ?_Target_type@?$_Func_impl@V<lambda_1d46c80fc537237927264025b327cfb0>@@V?$allocator@H@std@@XPAU?$WebSocket@$0A@@uWS@@PADI@std@@EBEABVtype_info@@XZ 10017ac0 f i addon.obj
 0001:00016ad0       ?_Move@?$_Func_impl@V<lambda_1d46c80fc537237927264025b327cfb0>@@V?$allocator@H@std@@XPAU?$WebSocket@$0A@@uWS@@PADI@std@@EAEPAV?$_Func_base@XPAU?$WebSocket@$0A@@uWS@@PADI@2@PAX@Z 10017ad0 f i addon.obj
 0001:00016ad0       ?_Copy@?$_Func_impl@V<lambda_1d46c80fc537237927264025b327cfb0>@@V?$allocator@H@std@@XPAU?$WebSocket@$0A@@uWS@@PADI@std@@EBEPAV?$_Func_base@XPAU?$WebSocket@$0A@@uWS@@PADI@2@PAX@Z 10017ad0 f i addon.obj
 0001:00016af0       ?_Target_type@?$_Func_impl@V<lambda_8f1b2285fb4d43b2e4da5a4614c9e8de>@@V?$allocator@H@std@@XPAU?$WebSocket@$0A@@uWS@@PADI@std@@EBEABVtype_info@@XZ 10017af0 f i addon.obj
 0001:00016b00       ?_Move@?$_Func_impl@V<lambda_8f1b2285fb4d43b2e4da5a4614c9e8de>@@V?$allocator@H@std@@XPAU?$WebSocket@$0A@@uWS@@PADI@std@@EAEPAV?$_Func_base@XPAU?$WebSocket@$0A@@uWS@@PADI@2@PAX@Z 10017b00 f i addon.obj
 0001:00016b00       ?_Copy@?$_Func_impl@V<lambda_8f1b2285fb4d43b2e4da5a4614c9e8de>@@V?$allocator@H@std@@XPAU?$WebSocket@$0A@@uWS@@PADI@std@@EBEPAV?$_Func_base@XPAU?$WebSocket@$0A@@uWS@@PADI@2@PAX@Z 10017b00 f i addon.obj
 0001:00016b20       ?_Target_type@?$_Func_impl@V<lambda_a9c374da5dc12dabd3c598763daba76e>@@V?$allocator@H@std@@XPAU?$WebSocket@$0A@@uWS@@HPADI@std@@EBEABVtype_info@@XZ 10017b20 f i addon.obj
 0001:00016b30       ?_Move@?$_Func_impl@V<lambda_a9c374da5dc12dabd3c598763daba76e>@@V?$allocator@H@std@@XPAU?$WebSocket@$0A@@uWS@@HPADI@std@@EAEPAV?$_Func_base@XPAU?$WebSocket@$0A@@uWS@@HPADI@2@PAX@Z 10017b30 f i addon.obj
 0001:00016b30       ?_Copy@?$_Func_impl@V<lambda_a9c374da5dc12dabd3c598763daba76e>@@V?$allocator@H@std@@XPAU?$WebSocket@$0A@@uWS@@HPADI@std@@EBEPAV?$_Func_base@XPAU?$WebSocket@$0A@@uWS@@HPADI@2@PAX@Z 10017b30 f i addon.obj
 0001:00016b60       ?_Target_type@?$_Func_impl@V<lambda_cd4883bb11e6c621b1acc92b6d8da8c1>@@V?$allocator@H@std@@XPAU?$WebSocket@$0A@@uWS@@PADIW4OpCode@5@@std@@EBEABVtype_info@@XZ 10017b60 f i addon.obj
 0001:00016b70       ?_Move@?$_Func_impl@V<lambda_cd4883bb11e6c621b1acc92b6d8da8c1>@@V?$allocator@H@std@@XPAU?$WebSocket@$0A@@uWS@@PADIW4OpCode@5@@std@@EAEPAV?$_Func_base@XPAU?$WebSocket@$0A@@uWS@@PADIW4OpCode@2@@2@PAX@Z 10017b70 f i addon.obj
 0001:00016b70       ?_Copy@?$_Func_impl@V<lambda_cd4883bb11e6c621b1acc92b6d8da8c1>@@V?$allocator@H@std@@XPAU?$WebSocket@$0A@@uWS@@PADIW4OpCode@5@@std@@EBEPAV?$_Func_base@XPAU?$WebSocket@$0A@@uWS@@PADIW4OpCode@2@@2@PAX@Z 10017b70 f i addon.obj
 0001:00016b90       ?_Target_type@?$_Func_impl@V<lambda_208c1e08f92f7c47e87798a7b3d6644f>@@V?$allocator@H@std@@XPAU?$WebSocket@$0A@@uWS@@UHttpRequest@5@@std@@EBEABVtype_info@@XZ 10017b90 f i addon.obj
 0001:00016ba0       ?_Copy@?$_Func_impl@V<lambda_208c1e08f92f7c47e87798a7b3d6644f>@@V?$allocator@H@std@@XPAU?$WebSocket@$0A@@uWS@@UHttpRequest@5@@std@@EBEPAV?$_Func_base@XPAU?$WebSocket@$0A@@uWS@@UHttpRequest@2@@2@PAX@Z 10017ba0 f i addon.obj
 0001:00016ba0       ?_Move@?$_Func_impl@V<lambda_208c1e08f92f7c47e87798a7b3d6644f>@@V?$allocator@H@std@@XPAU?$WebSocket@$0A@@uWS@@UHttpRequest@5@@std@@EAEPAV?$_Func_base@XPAU?$WebSocket@$0A@@uWS@@UHttpRequest@2@@2@PAX@Z 10017ba0 f i addon.obj
 0001:00016c1b       __imp_load__uv_close       10017c1b f   node:node.exe
 0001:00016c25       __tailMerge_node_exe       10017c25 f i node:node.exe
 0001:00016c36       __imp_load__SSL_free       10017c36 f   node:node.exe
 0001:00016c40       __imp_load__uv_poll_stop   10017c40 f   node:node.exe
 0001:00016c4a       __imp_load__uv_timer_init  10017c4a f   node:node.exe
 0001:00016c54       __imp_load__uv_timer_stop  10017c54 f   node:node.exe
 0001:00016c5e       __imp_load__inflateEnd     10017c5e f   node:node.exe
 0001:00016c68       __imp_load__SSL_set_fd     10017c68 f   node:node.exe
 0001:00016c72       __imp_load__uv_fileno      10017c72 f   node:node.exe
 0001:00016c7c       __imp_load__inflateInit2_  10017c7c f   node:node.exe
 0001:00016c86       __imp_load__uv_timer_start 10017c86 f   node:node.exe
 0001:00016c90       __imp_load__uv_poll_init_socket 10017c90 f   node:node.exe
 0001:00016c9a       __imp_load__SSL_write      10017c9a f   node:node.exe
 0001:00016ca4       __imp_load__SSL_ctrl       10017ca4 f   node:node.exe
 0001:00016cae       __imp_load__uv_async_send  10017cae f   node:node.exe
 0001:00016cb8       __imp_load__uv_poll_start  10017cb8 f   node:node.exe
 0001:00016cc2       __imp_load__uv_async_init  10017cc2 f   node:node.exe
 0001:00016ccc       __imp_load__SSL_shutdown   10017ccc f   node:node.exe
 0001:00016cd6       __imp_load__SSL_get_error  10017cd6 f   node:node.exe
 0001:00016ce0       __imp_load__SSL_CTX_set_default_passwd_cb 10017ce0 f   node:node.exe
 0001:00016cea       __imp_load__SSL_CTX_free   10017cea f   node:node.exe
 0001:00016cf4       __imp_load__SSL_CTX_ctrl   10017cf4 f   node:node.exe
 0001:00016cfe       __imp_load__SSL_library_init 10017cfe f   node:node.exe
 0001:00016d08       __imp_load__SSL_CTX_use_PrivateKey_file 10017d08 f   node:node.exe
 0001:00016d12       __imp_load__SSL_CTX_new    10017d12 f   node:node.exe
 0001:00016d1c       __imp_load__SSL_CTX_set_default_passwd_cb_userdata 10017d1c f   node:node.exe
 0001:00016d26       __imp_load__SSLv23_server_method 10017d26 f   node:node.exe
 0001:00016d30       __imp_load__SSL_CTX_use_certificate_chain_file 10017d30 f   node:node.exe
 0001:00016d3a       __imp_load__SSL_new        10017d3a f   node:node.exe
 0001:00016d44       __imp_load__SSL_want       10017d44 f   node:node.exe
 0001:00016d4e       __imp_load__uv_is_closing  10017d4e f   node:node.exe
 0001:00016d58       __imp_load__inflate        10017d58 f   node:node.exe
 0001:00016d62       __imp_load__SSL_pending    10017d62 f   node:node.exe
 0001:00016d6c       __imp_load__SSL_read       10017d6c f   node:node.exe
 0001:00016d76       __imp_load__SSL_set_accept_state 10017d76 f   node:node.exe
 0001:00016d80       __imp_load__inflateReset   10017d80 f   node:node.exe
 0001:00016d8a       __imp_load__SSL_set_connect_state 10017d8a f   node:node.exe
 0001:00016d94       __imp_load__uv_run         10017d94 f   node:node.exe
 0001:00016d9e       __imp_load__uv_loop_new    10017d9e f   node:node.exe
 0001:00016da8       __imp_load__SSLv23_client_method 10017da8 f   node:node.exe
 0001:00016db2       __imp_load__uv_loop_delete 10017db2 f   node:node.exe
 0001:00016dbc       __imp_load__uv_default_loop 10017dbc f   node:node.exe
 0001:00016dc6       __imp_load__SHA1           10017dc6 f   node:node.exe
 0001:00016dd0       __imp_load__uv_unref       10017dd0 f   node:node.exe
 0001:00016dda       __imp_load_?Global@Context@v8@@QAE?AV?$Local@VObject@v8@@@2@XZ 10017dda f   node:node.exe
 0001:00016de4       __imp_load_?Value@External@v8@@QBEPAXXZ 10017de4 f   node:node.exe
 0001:00016dee       __imp_load_?New@External@v8@@SA?AV?$Local@VExternal@v8@@@2@PAVIsolate@2@PAX@Z 10017dee f   node:node.exe
 0001:00016df8       __imp_load_?New@Integer@v8@@SA?AV?$Local@VInteger@v8@@@2@PAVIsolate@2@H@Z 10017df8 f   node:node.exe
 0001:00016e02       __imp_load_?GetCurrentContext@Isolate@v8@@QAE?AV?$Local@VContext@v8@@@2@XZ 10017e02 f   node:node.exe
 0001:00016e0c       __imp_load_?GetCurrent@Isolate@v8@@SAPAV12@XZ 10017e0c f   node:node.exe
 0001:00016e16       __imp_load_?CreateHandle@HandleScope@v8@@KAPAPAVObject@internal@2@PAVIsolate@42@PAV342@@Z 10017e16 f   node:node.exe
 0001:00016e20       __imp_load_?CreateHandle@HandleScope@v8@@CAPAPAVObject@internal@2@PAVHeapObject@42@PAV342@@Z 10017e20 f   node:node.exe
 0001:00016e2a       __imp_load_??1HandleScope@v8@@QAE@XZ 10017e2a f   node:node.exe
 0001:00016e34       __imp_load_??0HandleScope@v8@@QAE@PAVIsolate@1@@Z 10017e34 f   node:node.exe
 0001:00016e3e       __imp_load_?Set@Template@v8@@QAEXV?$Local@VName@v8@@@2@V?$Local@VData@v8@@@2@W4PropertyAttribute@2@@Z 10017e3e f   node:node.exe
 0001:00016e48       __imp_load_?Buffer@ArrayBufferView@v8@@QAE?AV?$Local@VArrayBuffer@v8@@@2@XZ 10017e48 f   node:node.exe
 0001:00016e52       __imp_load_?New@Array@v8@@SA?AV?$Local@VArray@v8@@@2@PAVIsolate@2@H@Z 10017e52 f   node:node.exe
 0001:00016e5c       __imp_load_?Length@Array@v8@@QBEIXZ 10017e5c f   node:node.exe
 0001:00016e66       __imp_load_?SetClassName@FunctionTemplate@v8@@QAEXV?$Local@VString@v8@@@2@@Z 10017e66 f   node:node.exe
 0001:00016e70       __imp_load_?PrototypeTemplate@FunctionTemplate@v8@@QAE?AV?$Local@VObjectTemplate@v8@@@2@XZ 10017e70 f   node:node.exe
 0001:00016e7a       __imp_load_?InstanceTemplate@FunctionTemplate@v8@@QAE?AV?$Local@VObjectTemplate@v8@@@2@XZ 10017e7a f   node:node.exe
 0001:00016e84       __imp_load_?GetFunction@FunctionTemplate@v8@@QAE?AV?$Local@VFunction@v8@@@2@XZ 10017e84 f   node:node.exe
 0001:00016e8e       __imp_load_?New@FunctionTemplate@v8@@SA?AV?$Local@VFunctionTemplate@v8@@@2@PAVIsolate@2@P6AXABV?$FunctionCallbackInfo@VValue@v8@@@2@@ZV?$Local@VValue@v8@@@2@V?$Local@VSignature@v8@@@2@HW4ConstructorBehavior@2@@Z 10017e8e f   node:node.exe
 0001:00016e98       __imp_load_?GetContents@ArrayBuffer@v8@@QAE?AVContents@12@XZ 10017e98 f   node:node.exe
 0001:00016ea2       __imp_load_?New@ArrayBuffer@v8@@SA?AV?$Local@VArrayBuffer@v8@@@2@PAVIsolate@2@PAXIW4ArrayBufferCreationMode@2@@Z 10017ea2 f   node:node.exe
 0001:00016eac       __imp_load_?DisposeGlobal@V8@v8@@CAXPAPAVObject@internal@2@@Z 10017eac f   node:node.exe
 0001:00016eb6       __imp_load_?GlobalizeReference@V8@v8@@CAPAPAVObject@internal@2@PAVIsolate@42@PAPAV342@@Z 10017eb6 f   node:node.exe
 0001:00016ec0       __imp_load_?IntegerValue@Value@v8@@QBE_JXZ 10017ec0 f   node:node.exe
 0001:00016eca       __imp_load_?BooleanValue@Value@v8@@QBE_NXZ 10017eca f   node:node.exe
 0001:00016ed4       __imp_load_?IsTypedArray@Value@v8@@QBE_NXZ 10017ed4 f   node:node.exe
 0001:00016ede       __imp_load_?IsArrayBuffer@Value@v8@@QBE_NXZ 10017ede f   node:node.exe
 0001:00016ee8       __imp_load_?IsExternal@Value@v8@@QBE_NXZ 10017ee8 f   node:node.exe
 0001:00016ef2       __imp_load_?IsObject@Value@v8@@QBE_NXZ 10017ef2 f   node:node.exe
 0001:00016efc       __imp_load_?IsFunction@Value@v8@@QBE_NXZ 10017efc f   node:node.exe
 0001:00016f06       __imp_load_??1Utf8Value@String@v8@@QAE@XZ 10017f06 f   node:node.exe
 0001:00016f10       __imp_load_??0Utf8Value@String@v8@@QAE@V?$Local@VValue@v8@@@2@@Z 10017f10 f   node:node.exe
 0001:00016f1a       __imp_load_?NewFromOneByte@String@v8@@SA?AV?$Local@VString@v8@@@2@PAVIsolate@2@PBEW4NewStringType@12@H@Z 10017f1a f   node:node.exe
 0001:00016f24       __imp_load_?NewFromUtf8@String@v8@@SA?AV?$Local@VString@v8@@@2@PAVIsolate@2@PBDW4NewStringType@12@H@Z 10017f24 f   node:node.exe
 0001:00016f2e       __imp_load_?SlowGetAlignedPointerFromInternalField@Object@v8@@AAEPAXH@Z 10017f2e f   node:node.exe
 0001:00016f38       __imp_load_?SlowGetInternalField@Object@v8@@AAE?AV?$Local@VValue@v8@@@2@H@Z 10017f38 f   node:node.exe
 0001:00016f42       __imp_load_?New@Object@v8@@SA?AV?$Local@VObject@v8@@@2@PAVIsolate@2@@Z 10017f42 f   node:node.exe
 0001:00016f4c       __imp_load_?GetIsolate@Object@v8@@QAEPAVIsolate@2@XZ 10017f4c f   node:node.exe
 0001:00016f56       __imp_load_?Clone@Object@v8@@QAE?AV?$Local@VObject@v8@@@2@XZ 10017f56 f   node:node.exe
 0001:00016f60       __imp_load_?SetAlignedPointerInInternalField@Object@v8@@QAEXHPAX@Z 10017f60 f   node:node.exe
 0001:00016f6a       __imp_load_?SetInternalField@Object@v8@@QAEXHV?$Local@VValue@v8@@@2@@Z 10017f6a f   node:node.exe
 0001:00016f74       __imp_load_?SetPrototype@Object@v8@@QAE_NV?$Local@VValue@v8@@@2@@Z 10017f74 f   node:node.exe
 0001:00016f7e       __imp_load_?GetPrototype@Object@v8@@QAE?AV?$Local@VValue@v8@@@2@XZ 10017f7e f   node:node.exe
 0001:00016f88       __imp_load_?GetOwnPropertyNames@Object@v8@@QAE?AV?$Local@VArray@v8@@@2@XZ 10017f88 f   node:node.exe
 0001:00016f92       __imp_load_?Get@Object@v8@@QAE?AV?$Local@VValue@v8@@@2@V32@@Z 10017f92 f   node:node.exe
 0001:00016f9c       __imp_load_?Get@Object@v8@@QAE?AV?$Local@VValue@v8@@@2@I@Z 10017f9c f   node:node.exe
 0001:00016fa6       __imp_load_?Set@Object@v8@@QAE_NV?$Local@VValue@v8@@@2@0@Z 10017fa6 f   node:node.exe
 0001:00016fb0       __imp_load_?Set@Object@v8@@QAE_NIV?$Local@VValue@v8@@@2@@Z 10017fb0 f   node:node.exe
 0001:00016fba       __imp_load_?SetName@Function@v8@@QAEXV?$Local@VString@v8@@@2@@Z 10017fba f   node:node.exe
 0001:00016fc4       __imp_load_?Call@Function@v8@@QAE?AV?$Local@VValue@v8@@@2@V32@HQAV32@@Z 10017fc4 f   node:node.exe
 0001:00016fce       __imp_load_?NewInstance@Function@v8@@QBE?AV?$Local@VObject@v8@@@2@XZ 10017fce f   node:node.exe
 0001:00016fd8       __imp_load_?SetInternalFieldCount@ObjectTemplate@v8@@QAEXH@Z 10017fd8 f   node:node.exe
 0001:00016fe2       __imp_load_?SetNamedPropertyHandler@ObjectTemplate@v8@@QAEXP6AXV?$Local@VString@v8@@@2@ABV?$PropertyCallbackInfo@VValue@v8@@@2@@ZP6AX0V?$Local@VValue@v8@@@2@1@ZP6AX0ABV?$PropertyCallbackInfo@VInteger@v8@@@2@@ZP6AX0ABV?$PropertyCallbackInfo@VBoolean@v8@@@2@@ZP6AXABV?$PropertyCallbackInfo@VArray@v8@@@2@@Z3@Z 10017fe2 f   node:node.exe
 0001:00016fec       __imp_load_?SetAccessor@ObjectTemplate@v8@@QAEXV?$Local@VString@v8@@@2@P6AX0ABV?$PropertyCallbackInfo@VValue@v8@@@2@@ZP6AX0V?$Local@VValue@v8@@@2@ABV?$PropertyCallbackInfo@X@2@@Z3W4AccessControl@2@W4PropertyAttribute@2@V?$Local@VAccessorSignature@v8@@@2@@Z 10017fec f   node:node.exe
 0001:00016ff6       __imp_load_?NewInstance@ObjectTemplate@v8@@QAE?AV?$Local@VObject@v8@@@2@XZ 10017ff6 f   node:node.exe
 0001:00017000       __imp_load_?New@ObjectTemplate@v8@@SA?AV?$Local@VObjectTemplate@v8@@@2@PAVIsolate@2@V?$Local@VFunctionTemplate@v8@@@2@@Z 10018000 f   node:node.exe
 0001:0001700a       __imp_load__node_module_register 1001800a f   node:node.exe
 0001:00017014       __imp_load_?HasInstance@Buffer@node@@YA_NV?$Local@VValue@v8@@@v8@@@Z 10018014 f   node:node.exe
 0001:0001701e       __imp_load_?Data@Buffer@node@@YAPADV?$Local@VValue@v8@@@v8@@@Z 1001801e f   node:node.exe
 0001:00017028       __imp_load_?Length@Buffer@node@@YAIV?$Local@VValue@v8@@@v8@@@Z 10018028 f   node:node.exe
 0001:00017032       __imp_load_?MakeCallback@node@@YA?AV?$Local@VValue@v8@@@v8@@PAVIsolate@3@V?$Local@VObject@v8@@@3@V?$Local@VFunction@v8@@@3@HPAV23@@Z 10018032 f   node:node.exe
 0001:0001703c       __imp_load__uv_check_init  1001803c f   node:node.exe
 0001:00017046       __imp_load__uv_check_start 10018046 f   node:node.exe
 0001:00017050       __imp_load_?ToObject@Value@v8@@QBE?AV?$Local@VObject@v8@@@2@XZ 10018050 f   node:node.exe
 0001:0001705a       ??0bad_alloc@std@@QAE@ABV01@@Z 1001805a f i libcpmt:xthrow.obj
 0001:00017075       ??0bad_alloc@std@@QAE@XZ   10018075 f i libcpmt:xthrow.obj
 0001:0001708d       ??0bad_function_call@std@@QAE@ABV01@@Z 1001808d f i libcpmt:xthrow.obj
 0001:000170a8       ??0bad_function_call@std@@QAE@XZ 100180a8 f i libcpmt:xthrow.obj
 0001:000170b9       ??0exception@std@@QAE@ABV01@@Z 100180b9 f i libcpmt:xthrow.obj
 0001:000170e5       ??0exception@std@@QAE@QBD@Z 100180e5 f i libcpmt:xthrow.obj
 0001:0001711c       ??0invalid_argument@std@@QAE@ABV01@@Z 1001811c f i libcpmt:xthrow.obj
 0001:00017137       ??0invalid_argument@std@@QAE@PBD@Z 10018137 f i libcpmt:xthrow.obj
 0001:00017158       ??0length_error@std@@QAE@ABV01@@Z 10018158 f i libcpmt:xthrow.obj
 0001:00017173       ??0length_error@std@@QAE@PBD@Z 10018173 f i libcpmt:xthrow.obj
 0001:00017194       ??0logic_error@std@@QAE@ABV01@@Z 10018194 f i libcpmt:xthrow.obj
 0001:000171af       ??0out_of_range@std@@QAE@ABV01@@Z 100181af f i libcpmt:xthrow.obj
 0001:000171ca       ??0out_of_range@std@@QAE@PBD@Z 100181ca f i libcpmt:xthrow.obj
 0001:000171eb       ??0runtime_error@std@@QAE@ABV01@@Z 100181eb f i libcpmt:xthrow.obj
 0001:00017206       ?_Xbad_alloc@std@@YAXXZ    10018206 f   libcpmt:xthrow.obj
 0001:00017206       ?__scrt_throw_std_bad_alloc@@YAXXZ 10018206 f   LIBCMT:throw_bad_alloc.obj
 0001:00017223       ?_Xbad_function_call@std@@YAXXZ 10018223 f   libcpmt:xthrow.obj
 0001:00017240       ?_Xinvalid_argument@std@@YAXPBD@Z 10018240 f   libcpmt:xthrow.obj
 0001:00017260       ?_Xlength_error@std@@YAXPBD@Z 10018260 f   libcpmt:xthrow.obj
 0001:00017280       ?_Xout_of_range@std@@YAXPBD@Z 10018280 f   libcpmt:xthrow.obj
 0001:000172a0       ?what@bad_function_call@std@@UBEPBDXZ 100182a0 f i libcpmt:xthrow.obj
 0001:000172a6       ?what@exception@std@@UBEPBDXZ 100182a6 f i libcpmt:xthrow.obj
 0001:000172b3       ??$_Immortalize@V_Generic_error_category@std@@@std@@YAAAV_Generic_error_category@0@XZ 100182b3 f i libcpmt:thread0.obj
 0001:000172e9       ??0_System_error@std@@QAE@ABV01@@Z 100182e9 f i libcpmt:thread0.obj
 0001:00017313       ??0system_error@std@@QAE@ABV01@@Z 10018313 f i libcpmt:thread0.obj
 0001:0001732e       ??0system_error@std@@QAE@HABVerror_category@1@PBD@Z 1001832e f i libcpmt:thread0.obj
 0001:0001737c       ?_Throw_C_error@std@@YAXH@Z 1001837c f   libcpmt:thread0.obj
 0001:000173a9       ?_Throw_Cpp_error@std@@YAXH@Z 100183a9 f   libcpmt:thread0.obj
 0001:000173de       ?generic_category@std@@YAABVerror_category@1@XZ 100183de f i libcpmt:thread0.obj
 0001:000173e3       ??0stl_critical_section_vista@details@Concurrency@@QAE@XZ 100183e3 f i libcpmt:mutex.obj
 0001:00017403       ??0stl_critical_section_win7@details@Concurrency@@QAE@XZ 10018403 f i libcpmt:mutex.obj
 0001:0001741a       ??1GlobalCore@details@Concurrency@@QAE@XZ 1001841a f i libcpmt:mutex.obj
 0001:00017427       ??_EGlobalCore@details@Concurrency@@QAEPAXI@Z 10018427 f i libcpmt:mutex.obj
 0001:000174af       ??_H@YGXPAXIIP6EPAX0@Z@Z   100184af f i libcpmt:mutex.obj
 0001:000174d9       ?create_stl_critical_section@details@Concurrency@@YAXPAVstl_critical_section_interface@12@@Z 100184d9 f i libcpmt:mutex.obj
 0001:0001754e       ?destroy@stl_critical_section_concrt@details@Concurrency@@UAEXXZ 1001854e f i libcpmt:mutex.obj
 0001:00017556       ?destroy@stl_critical_section_vista@details@Concurrency@@UAEXXZ 10018556 f i libcpmt:mutex.obj
 0001:00017561       ?lock@stl_critical_section_concrt@details@Concurrency@@UAEXXZ 10018561 f i libcpmt:mutex.obj
 0001:00017569       ?lock@stl_critical_section_vista@details@Concurrency@@UAEXXZ 10018569 f i libcpmt:mutex.obj
 0001:00017574       ?lock@stl_critical_section_win7@details@Concurrency@@UAEXXZ 10018574 f i libcpmt:mutex.obj
 0001:00017705       ?try_lock@stl_critical_section_concrt@details@Concurrency@@UAE_NXZ 10018705 f i libcpmt:mutex.obj
 0001:0001770d       ?try_lock@stl_critical_section_vista@details@Concurrency@@UAE_NXZ 1001870d f i libcpmt:mutex.obj
 0001:0001771e       ?try_lock@stl_critical_section_win7@details@Concurrency@@UAE_NXZ 1001871e f i libcpmt:mutex.obj
 0001:00017732       ?try_lock_for@stl_critical_section_concrt@details@Concurrency@@UAE_NI@Z 10018732 f i libcpmt:mutex.obj
 0001:0001773e       ?try_lock_for@stl_critical_section_vista@details@Concurrency@@UAE_NI@Z 1001873e f i libcpmt:mutex.obj
 0001:00017751       ?try_lock_for@stl_critical_section_win7@details@Concurrency@@UAE_NI@Z 10018751 f i libcpmt:mutex.obj
 0001:00017759       ?unlock@stl_critical_section_concrt@details@Concurrency@@UAEXXZ 10018759 f i libcpmt:mutex.obj
 0001:00017761       ?unlock@stl_critical_section_vista@details@Concurrency@@UAEXXZ 10018761 f i libcpmt:mutex.obj
 0001:0001776c       ?unlock@stl_critical_section_win7@details@Concurrency@@UAEXXZ 1001876c f i libcpmt:mutex.obj
 0001:00017777       __Mtx_clear_owner          10018777 f   libcpmt:mutex.obj
 0001:00017786       __Mtx_destroy_in_situ      10018786 f   libcpmt:mutex.obj
 0001:000177a4       __Mtx_getconcrtcs          100187a4 f   libcpmt:mutex.obj
 0001:000177af       __Mtx_init_in_situ         100187af f   libcpmt:mutex.obj
 0001:000177d0       __Mtx_lock                 100187d0 f   libcpmt:mutex.obj
 0001:000177e1       __Mtx_reset_owner          100187e1 f   libcpmt:mutex.obj
 0001:000177f5       __Mtx_unlock               100187f5 f   libcpmt:mutex.obj
 0001:0001781f       ??0_Init_locks@std@@QAE@XZ 1001881f f   libcpmt:xlock.obj
 0001:0001784c       ??0_Lockit@std@@QAE@H@Z    1001884c f   libcpmt:xlock.obj
 0001:0001787d       ??1_Init_locks@std@@QAE@XZ 1001887d f   libcpmt:xlock.obj
 0001:000178a4       ??1_Lockit@std@@QAE@XZ     100188a4 f   libcpmt:xlock.obj
 0001:000178c3       ??$_Fgetc@D@std@@YA_NAADPAU_iobuf@@@Z 100188c3 f i libcpmt:cout.obj
 0001:000178e3       ??$_Fputc@D@std@@YA_NDPAU_iobuf@@@Z 100188e3 f i libcpmt:cout.obj
 0001:000178ff       ??$_Ungetc@D@std@@YA_NABDPAU_iobuf@@@Z 100188ff f i libcpmt:cout.obj
 0001:0001791d       ??$use_facet@V?$codecvt@DDU_Mbstatet@@@std@@@std@@YAABV?$codecvt@DDU_Mbstatet@@@0@ABVlocale@0@@Z 1001891d f i libcpmt:cout.obj
 0001:000179ba       ??0?$basic_ostream@DU?$char_traits@D@std@@@std@@QAE@PAV?$basic_streambuf@DU?$char_traits@D@std@@@1@_N@Z 100189ba f i libcpmt:cout.obj
 0001:00017a21       ??0?$basic_streambuf@DU?$char_traits@D@std@@@std@@IAE@XZ 10018a21 f i libcpmt:cout.obj
 0001:00017a68       ??0?$fpos@U_Mbstatet@@@std@@QAE@U_Mbstatet@@_J@Z 10018a68 f i libcpmt:cout.obj
 0001:00017a90       ??0_Init_cout@std@@QAE@XZ  10018a90 f i libcpmt:cout.obj
 0001:00017ae9       ??0bad_cast@std@@QAE@ABV01@@Z 10018ae9 f i libcpmt:cout.obj
 0001:00017b04       ??0bad_cast@std@@QAE@XZ    10018b04 f i libcpmt:cout.obj
 0001:00017b1c       ??1?$basic_filebuf@DU?$char_traits@D@std@@@std@@UAE@XZ 10018b1c f i libcpmt:cout.obj
 0001:00017b76       ??1?$basic_ios@DU?$char_traits@D@std@@@std@@UAE@XZ 10018b76 f i libcpmt:cout.obj
 0001:00017bb8       ??1?$basic_streambuf@DU?$char_traits@D@std@@@std@@UAE@XZ 10018bb8 f i libcpmt:cout.obj
 0001:00017bd9       ??_D?$basic_ostream@DU?$char_traits@D@std@@@std@@QAEXXZ 10018bd9 f i libcpmt:cout.obj
 0001:00017c39       ??_E?$basic_ostream@DU?$char_traits@D@std@@@std@@$4PPPPPPPM@A@AEPAXI@Z 10018c39 f i libcpmt:cout.obj
 0001:00017c41       ??_G?$basic_filebuf@DU?$char_traits@D@std@@@std@@UAEPAXI@Z 10018c41 f i libcpmt:cout.obj
 0001:00017c41       ??_E?$basic_filebuf@DU?$char_traits@D@std@@@std@@UAEPAXI@Z 10018c41 f i libcpmt:cout.obj
 0001:00017c63       ??_G?$basic_ios@DU?$char_traits@D@std@@@std@@UAEPAXI@Z 10018c63 f i libcpmt:cout.obj
 0001:00017c63       ??_E?$basic_ios@DU?$char_traits@D@std@@@std@@UAEPAXI@Z 10018c63 f i libcpmt:cout.obj
 0001:00017cbd       ??_G?$basic_ostream@DU?$char_traits@D@std@@@std@@UAEPAXI@Z 10018cbd f i libcpmt:cout.obj
 0001:00017cbd       ??_E?$basic_ostream@DU?$char_traits@D@std@@@std@@UAEPAXI@Z 10018cbd f i libcpmt:cout.obj
 0001:00017ce2       ??_G?$basic_streambuf@DU?$char_traits@D@std@@@std@@UAEPAXI@Z 10018ce2 f i libcpmt:cout.obj
 0001:00017ce2       ??_E?$basic_streambuf@DU?$char_traits@D@std@@@std@@UAEPAXI@Z 10018ce2 f i libcpmt:cout.obj
 0001:00017d04       ??_G?$codecvt@DDU_Mbstatet@@@std@@MAEPAXI@Z 10018d04 f i libcpmt:cout.obj
 0001:00017d04       ??_E?$codecvt@DDU_Mbstatet@@@std@@MAEPAXI@Z 10018d04 f i libcpmt:cout.obj
 0001:00017d27       ??_Gios_base@std@@UAEPAXI@Z 10018d27 f i libcpmt:cout.obj
 0001:00017d27       ??_Eios_base@std@@UAEPAXI@Z 10018d27 f i libcpmt:cout.obj
 0001:00017d81       ?_Endwrite@?$basic_filebuf@DU?$char_traits@D@std@@@std@@IAE_NXZ 10018d81 f i libcpmt:cout.obj
 0001:00017e9f       ?_Getcat@?$codecvt@DDU_Mbstatet@@@std@@SAIPAPBVfacet@locale@2@PBV42@@Z 10018e9f f i libcpmt:cout.obj
 0001:00017f07       ?_Init@?$basic_filebuf@DU?$char_traits@D@std@@@std@@IAEXPAU_iobuf@@W4_Initfl@12@@Z 10018f07 f i libcpmt:cout.obj
 0001:00017f85       ?_Init@?$basic_streambuf@DU?$char_traits@D@std@@@std@@IAEXXZ 10018f85 f i libcpmt:cout.obj
 0001:00017fc9       ?_Init@ios_base@std@@IAEXXZ 10018fc9 f i libcpmt:cout.obj
 0001:0001802f       ?_Initcvt@?$basic_filebuf@DU?$char_traits@D@std@@@std@@IAEXPBV?$codecvt@DDU_Mbstatet@@@2@@Z 1001902f f i libcpmt:cout.obj
 0001:00018065       ?_Lock@?$basic_filebuf@DU?$char_traits@D@std@@@std@@UAEXXZ 10019065 f i libcpmt:cout.obj
 0001:00018075       ?_Reset_back@?$basic_filebuf@DU?$char_traits@D@std@@@std@@AAEXXZ 10019075 f i libcpmt:cout.obj
 0001:00018098       ?_Set_back@?$basic_filebuf@DU?$char_traits@D@std@@@std@@AAEXXZ 10019098 f i libcpmt:cout.obj
 0001:000180ce       ?_Unlock@?$basic_filebuf@DU?$char_traits@D@std@@@std@@UAEXXZ 100190ce f i libcpmt:cout.obj
 0001:000180de       ?close@?$basic_filebuf@DU?$char_traits@D@std@@@std@@QAEPAV12@XZ 100190de f i libcpmt:cout.obj
 0001:0001813d       ?do_length@?$codecvt@DDU_Mbstatet@@@std@@MBEHAAU_Mbstatet@@PBD1I@Z 1001913d f i libcpmt:cout.obj
 0001:00018155       ?do_out@?$codecvt@DDU_Mbstatet@@@std@@MBEHAAU_Mbstatet@@PBD1AAPBDPAD3AAPAD@Z 10019155 f i libcpmt:cout.obj
 0001:00018155       ?do_in@?$codecvt@DDU_Mbstatet@@@std@@MBEHAAU_Mbstatet@@PBD1AAPBDPAD3AAPAD@Z 10019155 f i libcpmt:cout.obj
 0001:0001816f       ?do_unshift@?$codecvt@DDU_Mbstatet@@@std@@MBEHAAU_Mbstatet@@PAD1AAPAD@Z 1001916f f i libcpmt:cout.obj
 0001:00018180       ?imbue@?$basic_filebuf@DU?$char_traits@D@std@@@std@@MAEXABVlocale@2@@Z 10019180 f i libcpmt:cout.obj
 0001:0001819c       ?init@?$basic_ios@DU?$char_traits@D@std@@@std@@IAEXPAV?$basic_streambuf@DU?$char_traits@D@std@@@2@_N@Z 1001919c f i libcpmt:cout.obj
 0001:000181e5       ?overflow@?$basic_filebuf@DU?$char_traits@D@std@@@std@@MAEHH@Z 100191e5 f i libcpmt:cout.obj
 0001:00018383       ?pbackfail@?$basic_filebuf@DU?$char_traits@D@std@@@std@@MAEHH@Z 10019383 f i libcpmt:cout.obj
 0001:0001840a       ?pbackfail@?$basic_streambuf@DU?$char_traits@D@std@@@std@@MAEHH@Z 1001940a f i libcpmt:cout.obj
 0001:0001840a       ?overflow@?$basic_streambuf@DU?$char_traits@D@std@@@std@@MAEHH@Z 1001940a f i libcpmt:cout.obj
 0001:00018410       ?seekoff@?$basic_filebuf@DU?$char_traits@D@std@@@std@@MAE?AV?$fpos@U_Mbstatet@@@2@_JHH@Z 10019410 f i libcpmt:cout.obj
 0001:000184d1       ?seekoff@?$basic_streambuf@DU?$char_traits@D@std@@@std@@MAE?AV?$fpos@U_Mbstatet@@@2@_JHH@Z 100194d1 f i libcpmt:cout.obj
 0001:000184fb       ?seekpos@?$basic_filebuf@DU?$char_traits@D@std@@@std@@MAE?AV?$fpos@U_Mbstatet@@@2@V32@H@Z 100194fb f i libcpmt:cout.obj
 0001:000185bb       ?seekpos@?$basic_streambuf@DU?$char_traits@D@std@@@std@@MAE?AV?$fpos@U_Mbstatet@@@2@V32@H@Z 100195bb f i libcpmt:cout.obj
 0001:000185e5       ?setbuf@?$basic_filebuf@DU?$char_traits@D@std@@@std@@MAEPAV?$basic_streambuf@DU?$char_traits@D@std@@@2@PAD_J@Z 100195e5 f i libcpmt:cout.obj
 0001:00018633       ?setbuf@?$basic_streambuf@DU?$char_traits@D@std@@@std@@MAEPAV12@PAD_J@Z 10019633 f i libcpmt:cout.obj
 0001:00018638       ?showmanyc@?$basic_streambuf@DU?$char_traits@D@std@@@std@@MAE_JXZ 10019638 f i libcpmt:cout.obj
 0001:0001863d       ?sync@?$basic_filebuf@DU?$char_traits@D@std@@@std@@MAEHXZ 1001963d f i libcpmt:cout.obj
 0001:00018675       ?uflow@?$basic_filebuf@DU?$char_traits@D@std@@@std@@MAEHXZ 10019675 f i libcpmt:cout.obj
 0001:00018814       ?uflow@?$basic_streambuf@DU?$char_traits@D@std@@@std@@MAEHXZ 10019814 f i libcpmt:cout.obj
 0001:00018846       ?underflow@?$basic_filebuf@DU?$char_traits@D@std@@@std@@MAEHXZ 10019846 f i libcpmt:cout.obj
 0001:00018894       ?xsgetn@?$basic_streambuf@DU?$char_traits@D@std@@@std@@MAE_JPAD_J@Z 10019894 f i libcpmt:cout.obj
 0001:0001898d       ?xsputn@?$basic_streambuf@DU?$char_traits@D@std@@@std@@MAE_JPBD_J@Z 1001998d f i libcpmt:cout.obj
 0001:00018b07       ??0_Locimp@locale@std@@AAE@_N@Z 10019b07 f i libcpmt:locale0.obj
 0001:00018b4a       ??1_Fac_node@std@@QAE@XZ   10019b4a f i libcpmt:locale0.obj
 0001:00018ba9       ??1_Fac_tidy_reg_t@std@@QAE@XZ 10019ba9 f i libcpmt:locale0.obj
 0001:00018bd0       ??1_Locimp@locale@std@@MAE@XZ 10019bd0 f i libcpmt:locale0.obj
 0001:00018c2b       ??4?$_Yarn@D@std@@QAEAAV01@PBD@Z 10019c2b f i libcpmt:locale0.obj
 0001:00018c7f       ??_E_Locimp@locale@std@@MAEPAXI@Z 10019c7f f i libcpmt:locale0.obj
 0001:00018c7f       ??_G_Locimp@locale@std@@MAEPAXI@Z 10019c7f f i libcpmt:locale0.obj
 0001:00018ca1       ?_Facet_Register@std@@YAXPAV_Facet_base@1@@Z 10019ca1 f   libcpmt:locale0.obj
 0001:00018ccf       ?_Getgloballocale@locale@std@@CAPAV_Locimp@12@XZ 10019ccf f   libcpmt:locale0.obj
 0001:00018cd5       ?_Init@locale@std@@CAPAV_Locimp@12@_N@Z 10019cd5 f   libcpmt:locale0.obj
 0001:00018d63       ?_Locimp_dtor@_Locimp@locale@std@@CAXPAV123@@Z 10019d63 f   libcpmt:locale0.obj
 0001:00018dd8       ?_Locinfo_ctor@_Locinfo@std@@SAXPAV12@PBD@Z 10019dd8 f   libcpmt:locale0.obj
 0001:00018e23       ?_Locinfo_dtor@_Locinfo@std@@SAXPAV12@@Z 10019e23 f   libcpmt:locale0.obj
 0001:00018e45       ?_New_Locimp@_Locimp@locale@std@@CAPAV123@_N@Z 10019e45 f   libcpmt:locale0.obj
 0001:00018e6a       ?_Setgloballocale@locale@std@@CAXPAX@Z 10019e6a f   libcpmt:locale0.obj
 0001:00018e92       __Deletegloballocale       10019e92 f   libcpmt:locale0.obj
 0001:00018ef7       ??0_Init_cerr@std@@QAE@XZ  10019ef7 f i libcpmt:cerr.obj
 0001:00018f27       ?_Syserror_map@std@@YAPBDH@Z 10019f27 f   libcpmt:syserror.obj
 0001:00018f4c       __Getctype                 10019f4c f   libcpmt:_tolower.obj
 0001:00018fb7       __Tolower                  10019fb7 f   libcpmt:_tolower.obj
 0001:000190b1       __Getcvt                   1001a0b1 f   libcpmt:xwctomb.obj
 0001:0001911e       __Toupper                  1001a11e f   libcpmt:_toupper.obj
 0001:00019218       __Xtime_diff_to_millis2    1001a218 f   libcpmt:xtime.obj
 0001:0001925a       __Xtime_get_ticks          1001a25a f   libcpmt:xtime.obj
 0001:00019320       _xtime_get                 1001a320 f   libcpmt:xtime.obj
 0001:00019711       ___crtAcquireSRWLockExclusive 1001a711 f   libcpmt:winapisupp.obj
 0001:00019730       ___crtCloseThreadpoolTimer 1001a730 f   libcpmt:winapisupp.obj
 0001:00019751       ___crtCloseThreadpoolWait  1001a751 f   libcpmt:winapisupp.obj
 0001:00019772       ___crtCreateEventExW       1001a772 f   libcpmt:winapisupp.obj
 0001:000197b7       ___crtCreateSemaphoreExW   1001a7b7 f   libcpmt:winapisupp.obj
 0001:0001980d       ___crtCreateThreadpoolTimer 1001a80d f   libcpmt:winapisupp.obj
 0001:00019838       ___crtCreateThreadpoolWait 1001a838 f   libcpmt:winapisupp.obj
 0001:00019863       ___crtFlushProcessWriteBuffers 1001a863 f   libcpmt:winapisupp.obj
 0001:0001987d       ___crtFreeLibraryWhenCallbackReturns 1001a87d f   libcpmt:winapisupp.obj
 0001:000198a1       ___crtGetCurrentProcessorNumber 1001a8a1 f   libcpmt:winapisupp.obj
 0001:000198bf       ___crtGetSystemTimePreciseAsFileTime 1001a8bf f   libcpmt:winapisupp.obj
 0001:000198e8       ___crtGetTickCount64       1001a8e8 f   libcpmt:winapisupp.obj
 0001:0001990c       ___crtInitializeConditionVariable 1001a90c f   libcpmt:winapisupp.obj
 0001:0001992b       ___crtInitializeCriticalSectionEx 1001a92b f   libcpmt:winapisupp.obj
 0001:00019963       ___crtInitializeSRWLock    1001a963 f   libcpmt:winapisupp.obj
 0001:00019982       ___crtReleaseSRWLockExclusive 1001a982 f   libcpmt:winapisupp.obj
 0001:000199a1       ___crtSetThreadpoolTimer   1001a9a1 f   libcpmt:winapisupp.obj
 0001:000199cb       ___crtSetThreadpoolWait    1001a9cb f   libcpmt:winapisupp.obj
 0001:000199f2       ___crtSleepConditionVariableCS 1001a9f2 f   libcpmt:winapisupp.obj
 0001:00019a17       ___crtSleepConditionVariableSRW 1001aa17 f   libcpmt:winapisupp.obj
 0001:00019a3f       ___crtTryAcquireSRWLockExclusive 1001aa3f f   libcpmt:winapisupp.obj
 0001:00019a5e       ___crtWaitForThreadpoolTimerCallbacks 1001aa5e f   libcpmt:winapisupp.obj
 0001:00019a82       ___crtWakeAllConditionVariable 1001aa82 f   libcpmt:winapisupp.obj
 0001:00019aa1       ___crtWakeConditionVariable 1001aaa1 f   libcpmt:winapisupp.obj
 0001:00019ac0       __Mtxdst                   1001aac0 f   libcpmt:xmtx.obj
 0001:00019ace       __Mtxinit                  1001aace f   libcpmt:xmtx.obj
 0001:00019ae5       __Mtxlock                  1001aae5 f   libcpmt:xmtx.obj
 0001:00019af3       __Mtxunlock                1001aaf3 f   libcpmt:xmtx.obj
 0001:00019b01       ?_Addstd@ios_base@std@@SAXPAV12@@Z 1001ab01 f   libcpmt:ios.obj
 0001:00019b52       ?_Callfns@ios_base@std@@AAEXW4event@12@@Z 1001ab52 f i libcpmt:ios.obj
 0001:00019b84       ?_Ios_base_dtor@ios_base@std@@CAXPAV12@@Z 1001ab84 f   libcpmt:ios.obj
 0001:00019bc4       ?_Tidy@ios_base@std@@AAEXXZ 1001abc4 f i libcpmt:ios.obj
 0001:00019c0c       ??1_Init_atexit@@QAE@XZ    1001ac0c f i libcpmt:iosptrs.obj
 0001:00019c70       ?_Atexit@@YAXP6AXXZ@Z      1001ac70 f   libcpmt:iosptrs.obj
 0001:00019c9e       ___crtLCMapStringA         1001ac9e f   libcpmt:StlLCMapStringA.obj
 0001:00019ea1       __freea_crt                1001aea1 f i libcpmt:StlLCMapStringA.obj
 0001:00019ebf       _GetTableIndexFromLocaleName 1001aebf f   libcpmt:winapinls.obj
 0001:00019f0d       ___crtDownlevelLocaleNameToLCID 1001af0d f   libcpmt:winapinls.obj
 0001:00019f37       ___crtLCMapStringEx        1001af37 f   libcpmt:winapinls.obj
 0001:00019f8d       ___wcsnicmp_ascii          1001af8d f   libcpmt:winapinls.obj
 0001:0001a000       @__security_check_cookie@4 1001b000 f   LIBCMT:_secchk_.obj
 0001:0001a011       ??2@YAPAXI@Z               1001b011 f   LIBCMT:new_scalar.obj
 0001:0001a044       ??3@YAXPAX@Z               1001b044 f   LIBCMT:delete_scalar.obj
 0001:0001a049       ??_V@YAXPAX@Z              1001b049 f   LIBCMT:delete_array.obj
 0001:0001a04e       ??3@YAXPAXI@Z              1001b04e f   LIBCMT:delete_scalar_size.obj
 0001:0001a05c       ??_U@YAPAXI@Z              1001b05c f   LIBCMT:new_array.obj
 0001:0001a065       ??_Gtype_info@@UAEPAXI@Z   1001b065 f i LIBCMT:std_type_info_static.obj
 0001:0001a065       ??_Etype_info@@UAEPAXI@Z   1001b065 f i LIBCMT:std_type_info_static.obj
 0001:0001a0cc       ___scrt_acquire_startup_lock 1001b0cc f   LIBCMT:utility.obj
 0001:0001a101       ___scrt_dllmain_after_initialize_c 1001b101 f   LIBCMT:utility.obj
 0001:0001a12c       ___scrt_dllmain_before_initialize_c 1001b12c f   LIBCMT:utility.obj
 0001:0001a13a       ___scrt_dllmain_crt_thread_attach 1001b13a f   LIBCMT:utility.obj
 0001:0001a159       ___scrt_dllmain_crt_thread_detach 1001b159 f   LIBCMT:utility.obj
 0001:0001a166       ___scrt_dllmain_exception_filter 1001b166 f   LIBCMT:utility.obj
 0001:0001a199       ___scrt_dllmain_uninitialize_c 1001b199 f   LIBCMT:utility.obj
 0001:0001a1bc       ___scrt_dllmain_uninitialize_critical 1001b1bc f   LIBCMT:utility.obj
 0001:0001a1c9       ___scrt_initialize_crt     1001b1c9 f   LIBCMT:utility.obj
 0001:0001a202       ___scrt_initialize_onexit_tables 1001b202 f   LIBCMT:utility.obj
 0001:0001a299       ___scrt_is_nonwritable_in_current_image 1001b299 f   LIBCMT:utility.obj
 0001:0001a323       ___scrt_release_startup_lock 1001b323 f   LIBCMT:utility.obj
 0001:0001a340       ___scrt_uninitialize_crt   1001b340 f   LIBCMT:utility.obj
 0001:0001a368       __onexit                   1001b368 f   LIBCMT:utility.obj
 0001:0001a3a3       _atexit                    1001b3a3 f   LIBCMT:utility.obj
 0001:0001a494       __Init_thread_footer       1001b494 f   LIBCMT:thread_safe_statics.obj
 0001:0001a4d3       __Init_thread_header       1001b4d3 f   LIBCMT:thread_safe_statics.obj
 0001:0001a519       __Init_thread_lock         1001b519 f   LIBCMT:thread_safe_statics.obj
 0001:0001a525       __Init_thread_notify       1001b525 f   LIBCMT:thread_safe_statics.obj
 0001:0001a566       __Init_thread_unlock       1001b566 f   LIBCMT:thread_safe_statics.obj
 0001:0001a572       __Init_thread_wait         1001b572 f   LIBCMT:thread_safe_statics.obj
 0001:0001a8df       __DllMainCRTStartup@12     1001b8df f   LIBCMT:dll_dllmain.obj
 0001:0001a902       @_guard_check_icall@4      1001b902 f i LIBCMT:checkcfg.obj
 0001:0001a908       __EH_epilog3               1001b908 f   LIBCMT:ehprolg3.obj
 0001:0001a91d       __EH_epilog3_GS            1001b91d f   LIBCMT:ehprolg3.obj
 0001:0001a92e       __EH_prolog3               1001b92e f   LIBCMT:ehprolg3.obj
 0001:0001a962       __EH_prolog3_GS            1001b962 f   LIBCMT:ehprolg3.obj
 0001:0001a999       __EH_prolog3_catch         1001b999 f   LIBCMT:ehprolg3.obj
 0001:0001a9d0       ??_M@YGXPAXIIP6EX0@Z@Z     1001b9d0 f   LIBCMT:ehvecdtr.obj
 0001:0001aa4a       ?__ArrayUnwind@@YGXPAXIIP6EX0@Z@Z 1001ba4a f   LIBCMT:ehvecdtr.obj
 0001:0001aab7       ??_V@YAXPAXI@Z             1001bab7 f   LIBCMT:delete_array_size.obj
 0001:0001aad0       __aulldvrm                 1001bad0 f   LIBCMT:ulldvrm.obj
 0001:0001ab70       __alloca_probe_16          1001bb70 f   LIBCMT:alloca16.obj
 0001:0001ab86       __alloca_probe_8           1001bb86     LIBCMT:alloca16.obj
 0001:0001aba0       __allmul                   1001bba0 f   LIBCMT:llmul.obj
 0001:0001abe0       __aulldiv                  1001bbe0 f   LIBCMT:ulldiv.obj
 0001:0001ac48       ___raise_securityfailure   1001bc48 f   LIBCMT:gs_report.obj
 0001:0001ac70       ___report_gsfailure        1001bc70 f   LIBCMT:gs_report.obj
 0001:0001ad6b       ___report_rangecheckfailure 1001bd6b f   LIBCMT:gs_report.obj
 0001:0001ad77       ___report_securityfailure  1001bd77 f   LIBCMT:gs_report.obj
 0001:0001ae47       ??0bad_array_new_length@std@@QAE@ABV01@@Z 1001be47 f i LIBCMT:throw_bad_alloc.obj
 0001:0001ae62       ??0bad_array_new_length@std@@QAE@XZ 1001be62 f i LIBCMT:throw_bad_alloc.obj
 0001:0001ae7a       ?__scrt_throw_std_bad_array_new_length@@YAXXZ 1001be7a f   LIBCMT:throw_bad_alloc.obj
 0001:0001ae97       ___isa_available_init      1001be97 f   LIBCMT:_cpu_disp_.obj
 0001:0001b031       ___scrt_is_ucrt_dll_in_use 1001c031 f   LIBCMT:ucrt_detection.obj
 0001:0001b03d       ___scrt_fastfail           1001c03d f   LIBCMT:utility_desktop.obj
 0001:0001b158       __crt_debugger_hook        1001c158 f   LIBCMT:utility_desktop.obj
 0001:0001b160       __SEH_prolog4              1001c160 f   LIBCMT:_sehprolg4_.obj
 0001:0001b1a6       __SEH_epilog4              1001c1a6 f   LIBCMT:_sehprolg4_.obj
 0001:0001b1bb       ___security_init_cookie    1001c1bb f   LIBCMT:gs_support.obj
 0001:0001b257       _DllMain@12                1001c257 f   LIBCMT:dll_dllmain_stub.obj
 0001:0001b25d       ?__scrt_initialize_type_info@@YAXXZ 1001c25d f   LIBCMT:tncleanup.obj
 0001:0001b269       ?__scrt_uninitialize_type_info@@YAXXZ 1001c269 f   LIBCMT:tncleanup.obj
 0001:0001b275       ___local_stdio_scanf_options 1001c275 f i LIBCMT:default_local_stdio_options.obj
 0001:0001b27b       ___scrt_initialize_default_local_stdio_options 1001c27b f   LIBCMT:default_local_stdio_options.obj
 0001:0001b298       ___scrt_get_dyn_tls_init_callback 1001c298 f   LIBCMT:dyn_tls_init.obj
 0001:0001b29e       __RTC_Initialize           1001c29e f   LIBCMT:_initsect_.obj
 0001:0001b2c9       __RTC_Terminate            1001c2c9 f   LIBCMT:_initsect_.obj
 0001:0001b300       __chkstk                   1001c300 f   LIBCMT:chkstk.obj
 0001:0001b300       __alloca_probe             1001c300 f   LIBCMT:chkstk.obj
 0001:0001b32d       ??0LockQueueNode@details@Concurrency@@QAE@I@Z 1001c32d f i libconcrt:rtlocks.obj
 0001:0001b3d3       ??0_NonReentrantBlockingLock@details@Concurrency@@QAE@XZ 1001c3d3 f   libconcrt:rtlocks.obj
 0001:0001b3d3       ??0_ReentrantBlockingLock@details@Concurrency@@QAE@XZ 1001c3d3 f   libconcrt:rtlocks.obj
 0001:0001b3e8       ??0_ReaderWriterLock@details@Concurrency@@QAE@XZ 1001c3e8 f   libconcrt:rtlocks.obj
 0001:0001b3f8       ??0critical_section@Concurrency@@QAE@XZ 1001c3f8 f   libconcrt:rtlocks.obj
 0001:0001b422       ??0improper_lock@Concurrency@@QAE@ABV01@@Z 1001c422 f i libconcrt:rtlocks.obj
 0001:0001b43d       ??0scoped_lock@critical_section@Concurrency@@QAE@AAV12@@Z 1001c43d f   libconcrt:rtlocks.obj
 0001:0001b482       ??1_ReentrantBlockingLock@details@Concurrency@@QAE@XZ 1001c482 f   libconcrt:rtlocks.obj
 0001:0001b482       ??1_NonReentrantBlockingLock@details@Concurrency@@QAE@XZ 1001c482 f   libconcrt:rtlocks.obj
 0001:0001b48a       ??1scoped_lock@critical_section@Concurrency@@QAE@XZ 1001c48a f   libconcrt:rtlocks.obj
 0001:0001b4c2       ?Block@LockQueueNode@details@Concurrency@@QAEXI@Z 1001c4c2 f i libconcrt:rtlocks.obj
 0001:0001b54a       ?CurrentContext@SchedulerBase@details@Concurrency@@SAPAVContextBase@23@XZ 1001c54a f i libconcrt:rtlocks.obj
 0001:0001b56c       ?DerefTimerNode@LockQueueNode@details@Concurrency@@QAEXXZ 1001c56c f i libconcrt:rtlocks.obj
 0001:0001b58b       ?DispatchNodeTimeoutTimer@LockQueueNode@details@Concurrency@@SGXPAU_TP_CALLBACK_INSTANCE@@PAXPAU_TP_TIMER@@@Z 1001c58b f i libconcrt:rtlocks.obj
 0001:0001b5d1       ?DispatchNodeTimeoutTimerXP@LockQueueNode@details@Concurrency@@SGXPAXE@Z 1001c5d1 f i libconcrt:rtlocks.obj
 0001:0001b61d       ?TryCompensateTimer@LockQueueNode@details@Concurrency@@QAEXXZ 1001c61d f i libconcrt:rtlocks.obj
 0001:0001b642       ?Unblock@LockQueueNode@details@Concurrency@@QAE_NXZ 1001c642 f i libconcrt:rtlocks.obj
 0001:0001b673       ?UpdateQueuePosition@LockQueueNode@details@Concurrency@@QAEXPAV123@@Z 1001c673 f i libconcrt:rtlocks.obj
 0001:0001b6dc       ?WaitForNextNode@LockQueueNode@details@Concurrency@@QAEPAV123@XZ 1001c6dc f i libconcrt:rtlocks.obj
 0001:0001b709       ?_Acquire@_NonReentrantBlockingLock@details@Concurrency@@QAEXXZ 1001c709 f   libconcrt:rtlocks.obj
 0001:0001b709       ?_Acquire@_ReentrantBlockingLock@details@Concurrency@@QAEXXZ 1001c709 f   libconcrt:rtlocks.obj
 0001:0001b711       ?_AcquireRead@_ReaderWriterLock@details@Concurrency@@QAEXXZ 1001c711 f   libconcrt:rtlocks.obj
 0001:0001b741       ?_AcquireWrite@_ReaderWriterLock@details@Concurrency@@QAEXXZ 1001c741 f   libconcrt:rtlocks.obj
 0001:0001b76f       ?_Acquire_lock@critical_section@Concurrency@@QAE_NPAX_N@Z 1001c76f f   libconcrt:rtlocks.obj
 0001:0001b810       ?_FlushWriteOwners@_ReaderWriterLock@details@Concurrency@@QAEXXZ 1001c810 f   libconcrt:rtlocks.obj
 0001:0001b826       ?_Flush_current_owner@critical_section@Concurrency@@QAEXXZ 1001c826 f   libconcrt:rtlocks.obj
 0001:0001b83e       ?_Initialize@_SpinCount@details@Concurrency@@SAXXZ 1001c83e f   libconcrt:rtlocks.obj
 0001:0001b855       ?_Release@_NonReentrantBlockingLock@details@Concurrency@@QAEXXZ 1001c855 f   libconcrt:rtlocks.obj
 0001:0001b855       ?_Release@_ReentrantBlockingLock@details@Concurrency@@QAEXXZ 1001c855 f   libconcrt:rtlocks.obj
 0001:0001b85d       ?_ReleaseRead@_ReaderWriterLock@details@Concurrency@@QAEXXZ 1001c85d f   libconcrt:rtlocks.obj
 0001:0001b861       ?_ReleaseWrite@_ReaderWriterLock@details@Concurrency@@QAEXXZ 1001c861 f   libconcrt:rtlocks.obj
 0001:0001b86c       ?_SetSpinCount@?$_SpinWait@$00@details@Concurrency@@QAEXI@Z 1001c86c f i libconcrt:rtlocks.obj
 0001:0001b88e       ?_SetSpinCount@?$_SpinWait@$0A@@details@Concurrency@@QAEXI@Z 1001c88e f i libconcrt:rtlocks.obj
 0001:0001b8b2       ?_SpinOnce@?$_SpinWait@$00@details@Concurrency@@QAE_NXZ 1001c8b2 f i libconcrt:rtlocks.obj
 0001:0001b939       ?_SpinOnce@?$_SpinWait@$0A@@details@Concurrency@@QAE_NXZ 1001c939 f i libconcrt:rtlocks.obj
 0001:0001b9b0       ?_Switch_to_active@critical_section@Concurrency@@AAEXPAX@Z 1001c9b0 f   libconcrt:rtlocks.obj
 0001:0001b9ff       ?_TryAcquireWrite@_ReaderWriterLock@details@Concurrency@@QAE_NXZ 1001c9ff f   libconcrt:rtlocks.obj
 0001:0001ba16       ?_WaitEquals@_ReaderWriterLock@details@Concurrency@@CAXADJJJ@Z 1001ca16 f   libconcrt:rtlocks.obj
 0001:0001ba4f       ?lock@critical_section@Concurrency@@QAEXXZ 1001ca4f f   libconcrt:rtlocks.obj
 0001:0001ba7f       ?try_lock@critical_section@Concurrency@@QAE_NXZ 1001ca7f f   libconcrt:rtlocks.obj
 0001:0001bacc       ?try_lock_for@critical_section@Concurrency@@QAE_NI@Z 1001cacc f   libconcrt:rtlocks.obj
 0001:0001bb2a       ?unlock@critical_section@Concurrency@@QAEXXZ 1001cb2a f   libconcrt:rtlocks.obj
 0001:0001bb9b       ??0scheduler_resource_allocation_error@Concurrency@@QAE@ABV01@@Z 1001cb9b f i libconcrt:Platform.obj
 0001:0001bbbf       ??1DefaultWaiterPool@platform@details@Concurrency@@QAE@XZ 1001cbbf f i libconcrt:Platform.obj
 0001:0001bbe4       ??1WaiterThreadPool@platform@details@Concurrency@@QAE@XZ 1001cbe4 f i libconcrt:Platform.obj
 0001:0001bc06       ?InitializeSystemFunctionPointers@platform@details@Concurrency@@YAXXZ 1001cc06 f   libconcrt:Platform.obj
 0001:0001bcb9       ?__ChangeTimerQueueTimer@platform@details@Concurrency@@YAHPAX0KK@Z 1001ccb9 f   libconcrt:Platform.obj
 0001:0001bcd0       ?__CloseThreadHandle@platform@details@Concurrency@@YAXPAX@Z 1001ccd0 f   libconcrt:Platform.obj
 0001:0001bcde       ?__CreateAutoResetEvent@platform@details@Concurrency@@YAPAX_N@Z 1001ccde f   libconcrt:Platform.obj
 0001:0001bd35       ?__CreateThread@platform@details@Concurrency@@YAPAXPAU_SECURITY_ATTRIBUTES@@IP6GKPAX@Z1KPAK@Z 1001cd35 f   libconcrt:Platform.obj
 0001:0001bd52       ?__CreateTimerQueueTimer@platform@details@Concurrency@@YAHPAPAXPAXP6GX1E@Z1KKK@Z 1001cd52 f   libconcrt:Platform.obj
 0001:0001bd72       ?__DeleteTimerQueueTimer@platform@details@Concurrency@@YAXPAX00@Z 1001cd72 f   libconcrt:Platform.obj
 0001:0001bda1       ?__GetCurrentProcessorNumberEx@platform@details@Concurrency@@YAXPAU_PROCESSOR_NUMBER@@@Z 1001cda1 f   libconcrt:Platform.obj
 0001:0001bdc2       ?__GetLogicalProcessorInformation@platform@details@Concurrency@@YAPAU_SYSTEM_LOGICAL_PROCESSOR_INFORMATION@@PAK@Z 1001cdc2 f   libconcrt:Platform.obj
 0001:0001be4d       ?__GetLogicalProcessorInformationEx@platform@details@Concurrency@@YAPAU_SYSTEM_LOGICAL_PROCESSOR_INFORMATION_EX@@W4_LOGICAL_PROCESSOR_RELATIONSHIP@@PAK@Z 1001ce4d f   libconcrt:Platform.obj
 0001:0001bf03       ?__GetNumaHighestNodeNumber@platform@details@Concurrency@@YAKXZ 1001cf03 f   libconcrt:Platform.obj
 0001:0001bf4a       ?__GetThreadGroupAffinity@platform@details@Concurrency@@YAHPAXPAU_GROUP_AFFINITY@@@Z 1001cf4a f   libconcrt:Platform.obj
 0001:0001bfa4       ?__GetThreadPriority@platform@details@Concurrency@@YAHPAX@Z 1001cfa4 f   libconcrt:Platform.obj
 0001:0001bfb2       ?__GetTickCount64@platform@details@Concurrency@@YA_KXZ 1001cfb2 f   libconcrt:Platform.obj
 0001:0001bfb7       ?__InitializeCriticalSectionEx@platform@details@Concurrency@@YAHPAU_RTL_CRITICAL_SECTION@@K@Z 1001cfb7 f   libconcrt:Platform.obj
 0001:0001bfcc       ?__RegisterWaitForSingleObject@platform@details@Concurrency@@YAPAXPAXP6GX0E@Z0@Z 1001cfcc f   libconcrt:Platform.obj
 0001:0001c020       ?__SetThreadGroupAffinity@platform@details@Concurrency@@YAHPAXPBU_GROUP_AFFINITY@@@Z 1001d020 f   libconcrt:Platform.obj
 0001:0001c063       ?__SetThreadPriority@platform@details@Concurrency@@YAXPAXH@Z 1001d063 f   libconcrt:Platform.obj
 0001:0001c0a9       ?__SignalObjectAndWait@platform@details@Concurrency@@YAKPAX0KH@Z 1001d0a9 f   libconcrt:Platform.obj
 0001:0001c0c0       ?__Sleep@platform@details@Concurrency@@YAXK@Z 1001d0c0 f   libconcrt:Platform.obj
 0001:0001c0ce       ?__SwitchToThread@platform@details@Concurrency@@YAXXZ 1001d0ce f   libconcrt:Platform.obj
 0001:0001c0d4       ?__TlsAlloc@platform@details@Concurrency@@YAKXZ 1001d0d4 f   libconcrt:Platform.obj
 0001:0001c115       ?__TlsFree@platform@details@Concurrency@@YAXK@Z 1001d115 f   libconcrt:Platform.obj
 0001:0001c123       ?__TlsGetValue@platform@details@Concurrency@@YAPAXK@Z 1001d123 f   libconcrt:Platform.obj
 0001:0001c131       ?__TlsSetValue@platform@details@Concurrency@@YAXKPAX@Z 1001d131 f   libconcrt:Platform.obj
 0001:0001c177       ?__UnregisterWait@platform@details@Concurrency@@YAXPAX@Z 1001d177 f   libconcrt:Platform.obj
 0001:0001c185       ?__WaitForThread@platform@details@Concurrency@@YAKPAXK@Z 1001d185 f   libconcrt:Platform.obj
 0001:0001c198       ?notify@WaiterThread@platform@details@Concurrency@@AAEX_N@Z 1001d198 f i libconcrt:Platform.obj
 0001:0001c1cc       __concrt_static_cleanup    1001d1cc f   libconcrt:utils.obj
 0001:0001c1da       ?DecodePointer@Security@details@Concurrency@@SAPAXPAX@Z 1001d1da f   libconcrt:utils.obj
 0001:0001c1da       ?EncodePointer@Security@details@Concurrency@@SAPAXPAX@Z 1001d1da f   libconcrt:utils.obj
 0001:0001c1e7       ?DeleteAsyncTimerAndUnloadLibrary@details@Concurrency@@YAXPAU_TP_TIMER@@@Z 1001d1e7 f   libconcrt:utils.obj
 0001:0001c223       ?FreeLibraryAndDestroyThread@details@Concurrency@@YAXK@Z 1001d223 f   libconcrt:utils.obj
 0001:0001c24d       ?InitializeCookie@Security@details@Concurrency@@SAKXZ 1001d24d f   libconcrt:utils.obj
 0001:0001c29b       ?LoadLibraryAndCreateThread@details@Concurrency@@YAPAXPAU_SECURITY_ATTRIBUTES@@KP6GKPAX@Z1KPAK@Z 1001d29b f   libconcrt:utils.obj
 0001:0001c2e1       ?ReferenceLoadLibrary@details@Concurrency@@YAXXZ 1001d2e1 f   libconcrt:utils.obj
 0001:0001c377       ?RegisterAsyncTimerAndLoadLibrary@details@Concurrency@@YAPAU_TP_TIMER@@KP6GXPAU_TP_CALLBACK_INSTANCE@@PAXPAU3@@Z1_N@Z 1001d377 f   libconcrt:utils.obj
 0001:0001c3d8       ?RegisterAsyncWaitAndLoadLibrary@details@Concurrency@@YAPAU_TP_WAIT@@PAXP6GXPAU_TP_CALLBACK_INSTANCE@@0PAU3@K@Z0@Z 1001d3d8 f   libconcrt:utils.obj
 0001:0001c411       ?UnRegisterAsyncTimerAndUnloadLibrary@details@Concurrency@@YAXPAU_TP_CALLBACK_INSTANCE@@PAU_TP_TIMER@@@Z 1001d411 f   libconcrt:utils.obj
 0001:0001c447       ?UnRegisterAsyncWaitAndUnloadLibrary@details@Concurrency@@YAXPAU_TP_CALLBACK_INSTANCE@@PAU_TP_WAIT@@@Z 1001d447 f   libconcrt:utils.obj
 0001:0001c47c       ?_Acquire@_HyperNonReentrantLock@details@Concurrency@@QAEXXZ 1001d47c f   libconcrt:utils.obj
 0001:0001c47c       ?_Acquire@_CriticalNonReentrantLock@details@Concurrency@@QAEXXZ 1001d47c f   libconcrt:utils.obj
 0001:0001c48c       ?_Acquire@_NonReentrantLock@details@Concurrency@@QAEXXZ 1001d48c f i libconcrt:utils.obj
 0001:0001c4bf       ?_Release@_HyperNonReentrantLock@details@Concurrency@@QAEXXZ 1001d4bf f   libconcrt:utils.obj
 0001:0001c4bf       ?_Release@_CriticalNonReentrantLock@details@Concurrency@@QAEXXZ 1001d4bf f   libconcrt:utils.obj
 0001:0001c4ca       ?_Sleep0@details@Concurrency@@YAXXZ 1001d4ca f   libconcrt:utils.obj
 0001:0001c4d3       ?_TryAcquire@_CriticalNonReentrantLock@details@Concurrency@@QAE_NXZ 1001d4d3 f   libconcrt:utils.obj
 0001:0001c4f3       ?_TryAcquire@_NonReentrantLock@details@Concurrency@@QAE_NXZ 1001d4f3 f i libconcrt:utils.obj
 0001:0001c508       ?_UnderlyingYield@details@Concurrency@@YAXXZ 1001d508 f   libconcrt:utils.obj
 0001:0001c52e       ??0context_self_unblock@Concurrency@@QAE@XZ 1001d52e f   libconcrt:Exceptions.obj
 0001:0001c53f       ??0context_unblock_unbalanced@Concurrency@@QAE@XZ 1001d53f f   libconcrt:Exceptions.obj
 0001:0001c550       ??0improper_lock@Concurrency@@QAE@PBD@Z 1001d550 f   libconcrt:Exceptions.obj
 0001:0001c56b       ??0improper_scheduler_attach@Concurrency@@QAE@XZ 1001d56b f   libconcrt:Exceptions.obj
 0001:0001c57c       ??0improper_scheduler_reference@Concurrency@@QAE@XZ 1001d57c f   libconcrt:Exceptions.obj
 0001:0001c58d       ??0invalid_oversubscribe_operation@Concurrency@@QAE@XZ 1001d58d f   libconcrt:Exceptions.obj
 0001:0001c59e       ??0invalid_scheduler_policy_key@Concurrency@@QAE@PBD@Z 1001d59e f   libconcrt:Exceptions.obj
 0001:0001c5b9       ??0invalid_scheduler_policy_thread_specification@Concurrency@@QAE@XZ 1001d5b9 f   libconcrt:Exceptions.obj
 0001:0001c5ca       ??0invalid_scheduler_policy_value@Concurrency@@QAE@PBD@Z 1001d5ca f   libconcrt:Exceptions.obj
 0001:0001c5e5       ??0missing_wait@Concurrency@@QAE@XZ 1001d5e5 f   libconcrt:Exceptions.obj
 0001:0001c5f6       ??0nested_scheduler_missing_detach@Concurrency@@QAE@XZ 1001d5f6 f   libconcrt:Exceptions.obj
 0001:0001c607       ??0scheduler_resource_allocation_error@Concurrency@@QAE@J@Z 1001d607 f   libconcrt:Exceptions.obj
 0001:0001c624       ??0scheduler_worker_creation_error@Concurrency@@QAE@J@Z 1001d624 f   libconcrt:Exceptions.obj
 0001:0001c641       ??0unsupported_os@Concurrency@@QAE@XZ 1001d641 f   libconcrt:Exceptions.obj
 0001:0001c652       ??_Einvalid_scheduler_policy_thread_specification@Concurrency@@UAEPAXI@Z 1001d652 f i libconcrt:Exceptions.obj
 0001:0001c652       ??_Gbad_alloc@std@@UAEPAXI@Z 1001d652 f i libcpmt:xthrow.obj
 0001:0001c652       ??_Ginvalid_argument@std@@UAEPAXI@Z 1001d652 f i libcpmt:xthrow.obj
 0001:0001c652       ??_Gnested_scheduler_missing_detach@Concurrency@@UAEPAXI@Z 1001d652 f i libconcrt:Exceptions.obj
 0001:0001c652       ??_Ginvalid_oversubscribe_operation@Concurrency@@UAEPAXI@Z 1001d652 f i libconcrt:Exceptions.obj
 0001:0001c652       ??_Ebad_alloc@std@@UAEPAXI@Z 1001d652 f i libcpmt:xthrow.obj
 0001:0001c652       ??_Ebad_cast@std@@UAEPAXI@Z 1001d652 f i libcpmt:cout.obj
 0001:0001c652       ??_Elogic_error@std@@UAEPAXI@Z 1001d652 f i libcpmt:xthrow.obj
 0001:0001c652       ??_Ginvalid_operation@Concurrency@@UAEPAXI@Z 1001d652 f i libconcrt:ResourceManager.obj
 0001:0001c652       ??_Einvalid_oversubscribe_operation@Concurrency@@UAEPAXI@Z 1001d652 f i libconcrt:Exceptions.obj
 0001:0001c652       ??_Eimproper_scheduler_reference@Concurrency@@UAEPAXI@Z 1001d652 f i libconcrt:Exceptions.obj
 0001:0001c652       ??_Eimproper_lock@Concurrency@@UAEPAXI@Z 1001d652 f i libconcrt:rtlocks.obj
 0001:0001c652       ??_Gcontext_unblock_unbalanced@Concurrency@@UAEPAXI@Z 1001d652 f i libconcrt:Exceptions.obj
 0001:0001c652       ??_Glength_error@std@@UAEPAXI@Z 1001d652 f i libcpmt:xthrow.obj
 0001:0001c652       ??_Gimproper_scheduler_reference@Concurrency@@UAEPAXI@Z 1001d652 f i libconcrt:Exceptions.obj
 0001:0001c652       ??_Eout_of_range@std@@UAEPAXI@Z 1001d652 f i libcpmt:xthrow.obj
 0001:0001c652       ??_Enested_scheduler_missing_detach@Concurrency@@UAEPAXI@Z 1001d652 f i libconcrt:Exceptions.obj
 0001:0001c652       ??_Gexception@std@@UAEPAXI@Z 1001d652 f i libcpmt:xthrow.obj
 0001:0001c652       ??_Econtext_unblock_unbalanced@Concurrency@@UAEPAXI@Z 1001d652 f i libconcrt:Exceptions.obj
 0001:0001c652       ??_Einvalid_argument@std@@UAEPAXI@Z 1001d652 f i libcpmt:xthrow.obj
 0001:0001c652       ??_Eimproper_scheduler_attach@Concurrency@@UAEPAXI@Z 1001d652 f i libconcrt:Exceptions.obj
 0001:0001c652       ??_Gimproper_scheduler_attach@Concurrency@@UAEPAXI@Z 1001d652 f i libconcrt:Exceptions.obj
 0001:0001c652       ??_Emissing_wait@Concurrency@@UAEPAXI@Z 1001d652 f i libconcrt:Exceptions.obj
 0001:0001c652       ??_Gbad_exception@std@@UAEPAXI@Z 1001d652 f i libvcruntime:frame.obj
 0001:0001c652       ??_Ebad_array_new_length@std@@UAEPAXI@Z 1001d652 f i LIBCMT:throw_bad_alloc.obj
 0001:0001c652       ??_Ebad_typeid@std@@UAEPAXI@Z 1001d652 f i libvcruntime:rtti.obj
 0001:0001c652       ??_Gbad_array_new_length@std@@UAEPAXI@Z 1001d652 f i LIBCMT:throw_bad_alloc.obj
 0001:0001c652       ??_Einvalid_scheduler_policy_value@Concurrency@@UAEPAXI@Z 1001d652 f i libconcrt:Exceptions.obj
 0001:0001c652       ??_Eunsupported_os@Concurrency@@UAEPAXI@Z 1001d652 f i libconcrt:Exceptions.obj
 0001:0001c652       ??_Gcontext_self_unblock@Concurrency@@UAEPAXI@Z 1001d652 f i libconcrt:Exceptions.obj
 0001:0001c652       ??_Ebad_exception@std@@UAEPAXI@Z 1001d652 f i libvcruntime:frame.obj
 0001:0001c652       ??_G_Interruption_exception@details@Concurrency@@UAEPAXI@Z 1001d652 f i libconcrt:TaskCollection.obj
 0001:0001c652       ??_Einvalid_scheduler_policy_key@Concurrency@@UAEPAXI@Z 1001d652 f i libconcrt:Exceptions.obj
 0001:0001c652       ??_Gmissing_wait@Concurrency@@UAEPAXI@Z 1001d652 f i libconcrt:Exceptions.obj
 0001:0001c652       ??_Gunsupported_os@Concurrency@@UAEPAXI@Z 1001d652 f i libconcrt:Exceptions.obj
 0001:0001c652       ??_Gimproper_lock@Concurrency@@UAEPAXI@Z 1001d652 f i libconcrt:rtlocks.obj
 0001:0001c652       ??_Gout_of_range@std@@UAEPAXI@Z 1001d652 f i libcpmt:xthrow.obj
 0001:0001c652       ??_Elength_error@std@@UAEPAXI@Z 1001d652 f i libcpmt:xthrow.obj
 0001:0001c652       ??_G__non_rtti_object@std@@UAEPAXI@Z 1001d652 f i libvcruntime:rtti.obj
 0001:0001c652       ??_Econtext_self_unblock@Concurrency@@UAEPAXI@Z 1001d652 f i libconcrt:Exceptions.obj
 0001:0001c652       ??_Gbad_function_call@std@@UAEPAXI@Z 1001d652 f i libcpmt:xthrow.obj
 0001:0001c652       ??_Einvalid_operation@Concurrency@@UAEPAXI@Z 1001d652 f i libconcrt:ResourceManager.obj
 0001:0001c652       ??_Gbad_typeid@std@@UAEPAXI@Z 1001d652 f i libvcruntime:rtti.obj
 0001:0001c652       ??_E__non_rtti_object@std@@UAEPAXI@Z 1001d652 f i libvcruntime:rtti.obj
 0001:0001c652       ??_Glogic_error@std@@UAEPAXI@Z 1001d652 f i libcpmt:xthrow.obj
 0001:0001c652       ??_Ginvalid_scheduler_policy_thread_specification@Concurrency@@UAEPAXI@Z 1001d652 f i libconcrt:Exceptions.obj
 0001:0001c652       ??_Ginvalid_scheduler_policy_key@Concurrency@@UAEPAXI@Z 1001d652 f i libconcrt:Exceptions.obj
 0001:0001c652       ??_Ginvalid_scheduler_policy_value@Concurrency@@UAEPAXI@Z 1001d652 f i libconcrt:Exceptions.obj
 0001:0001c652       ??_Ebad_function_call@std@@UAEPAXI@Z 1001d652 f i libcpmt:xthrow.obj
 0001:0001c652       ??_Eexception@std@@UAEPAXI@Z 1001d652 f i libcpmt:xthrow.obj
 0001:0001c652       ??_Gbad_cast@std@@UAEPAXI@Z 1001d652 f i libcpmt:cout.obj
 0001:0001c652       ??_E_Interruption_exception@details@Concurrency@@UAEPAXI@Z 1001d652 f i libconcrt:TaskCollection.obj
 0001:0001c67f       ??_Gscheduler_resource_allocation_error@Concurrency@@UAEPAXI@Z 1001d67f f i libconcrt:Platform.obj
 0001:0001c67f       ??_Gscheduler_worker_creation_error@Concurrency@@UAEPAXI@Z 1001d67f f i libconcrt:Exceptions.obj
 0001:0001c67f       ??_Escheduler_resource_allocation_error@Concurrency@@UAEPAXI@Z 1001d67f f i libconcrt:Platform.obj
 0001:0001c67f       ??_Escheduler_worker_creation_error@Concurrency@@UAEPAXI@Z 1001d67f f i libconcrt:Exceptions.obj
 0001:0001c6ac       ?Block@Context@Concurrency@@SAXXZ 1001d6ac f   libconcrt:Context.obj
 0001:0001c6c8       ?CurrentContext@Context@Concurrency@@SAPAV12@XZ 1001d6c8 f   libconcrt:Context.obj
 0001:0001c6cd       ??0HardwareAffinity@details@Concurrency@@QAE@PAX@Z 1001d6cd f   libconcrt:ResourceManager.obj
 0001:0001c6ee       ??0ResourceManager@details@Concurrency@@AAE@XZ 1001d6ee f   libconcrt:ResourceManager.obj
 0001:0001c7d1       ??0SchedulerCore@details@Concurrency@@QAE@XZ 1001d7d1 f i libconcrt:ResourceManager.obj
 0001:0001c7dc       ??0invalid_operation@Concurrency@@QAE@ABV01@@Z 1001d7dc f i libconcrt:ResourceManager.obj
 0001:0001c7f7       ??0invalid_operation@Concurrency@@QAE@XZ 1001d7f7 f i libconcrt:ResourceManager.obj
 0001:0001c808       ??0unsupported_os@Concurrency@@QAE@ABV01@@Z 1001d808 f i libconcrt:ResourceManager.obj
 0001:0001c823       ??1GlobalNode@details@Concurrency@@QAE@XZ 1001d823 f i libconcrt:ResourceManager.obj
 0001:0001c830       ??1ResourceManager@details@Concurrency@@AAE@XZ 1001d830 f   libconcrt:ResourceManager.obj
 0001:0001c905       ??1_Scoped_lock@_NonReentrantBlockingLock@details@Concurrency@@QAE@XZ 1001d905 f i libconcrt:ResourceManager.obj
 0001:0001c905       ??1_Scoped_lock@_ReentrantBlockingLock@details@Concurrency@@QAE@XZ 1001d905 f i libconcrt:SchedulerProxy.obj
 0001:0001c93d       ??1_Scoped_lock@_NonReentrantLock@details@Concurrency@@QAE@XZ 1001d93d f i libconcrt:ResourceManager.obj
 0001:0001c946       ??_EGlobalNode@details@Concurrency@@QAEPAXI@Z 1001d946 f i libconcrt:ResourceManager.obj
 0001:0001c9ce       ??_GAffinityRestriction@ResourceManager@details@Concurrency@@QAEPAXI@Z 1001d9ce f i libconcrt:ResourceManager.obj
 0001:0001c9f7       ?AddTail@?$List@VSchedulerProxy@details@Concurrency@@VCount@CollectionTypes@23@@details@Concurrency@@QAEXPAVSchedulerProxy@23@@Z 1001d9f7 f i libconcrt:ResourceManager.obj
 0001:0001ca30       ?AdjustDynamicAllocation@ResourceManager@details@Concurrency@@AAEIIII@Z 1001da30 f   libconcrt:ResourceManager.obj
 0001:0001cb02       ?ApplyAffinityLimits@AffinityRestriction@ResourceManager@details@Concurrency@@QAEXPAU_GROUP_AFFINITY@@@Z 1001db02 f i libconcrt:ResourceManager.obj
 0001:0001cb25       ?ApplyAffinityRestrictions@ResourceManager@details@Concurrency@@CAXPAK@Z 1001db25 f   libconcrt:ResourceManager.obj
 0001:0001cb56       ?ApplyAffinityRestrictions@ResourceManager@details@Concurrency@@CAXPAU_GROUP_AFFINITY@@@Z 1001db56 f   libconcrt:ResourceManager.obj
 0001:0001cb7d       ?ApplyTo@HardwareAffinity@details@Concurrency@@QAEXPAX@Z 1001db7d f   libconcrt:ResourceManager.obj
 0001:0001cb8f       ?CaptureProcessAffinity@ResourceManager@details@Concurrency@@CAXXZ 1001db8f f   libconcrt:ResourceManager.obj
 0001:0001ccaf       ?CleanupTopologyInformation@ResourceManager@details@Concurrency@@CAXXZ 1001dcaf f   libconcrt:ResourceManager.obj
 0001:0001ccca       ?CommitStolenCores@ResourceManager@details@Concurrency@@AAEXPAVSchedulerProxy@23@@Z 1001dcca f   libconcrt:ResourceManager.obj
 0001:0001cdd9       ?ComputeDesiredHWThreadsWithExternalThread@SchedulerProxy@details@Concurrency@@QBEIXZ 1001ddd9 f i libconcrt:ResourceManager.obj
 0001:0001cdfc       ?ComputeMinHWThreadsWithExternalThread@SchedulerProxy@details@Concurrency@@QBEIXZ 1001ddfc f i libconcrt:ResourceManager.obj
 0001:0001ce29       ?CreateAllocatedNodeData@ResourceManager@details@Concurrency@@QAEPAUSchedulerNode@23@XZ 1001de29 f   libconcrt:ResourceManager.obj
 0001:0001cf60       ?CreateDynamicRMWorker@ResourceManager@details@Concurrency@@AAEXXZ 1001df60 f   libconcrt:ResourceManager.obj
 0001:0001cfc3       ?CreateResourceManager@Concurrency@@YAPAUIResourceManager@1@XZ 1001dfc3 f   libconcrt:ResourceManager.obj
 0001:0001cfc8       ?CreateSchedulerProxy@ResourceManager@details@Concurrency@@AAEPAVSchedulerProxy@23@PAUIScheduler@3@@Z 1001dfc8 f   libconcrt:ResourceManager.obj
 0001:0001d029       ?CreateSingleton@ResourceManager@details@Concurrency@@SAPAV123@XZ 1001e029 f   libconcrt:ResourceManager.obj
 0001:0001d0bc       ?CurrentSubscriptionLevel@ResourceManager@details@Concurrency@@QAEIII@Z 1001e0bc f   libconcrt:ResourceManager.obj
 0001:0001d126       ?DesiredHWThreads@SchedulerProxy@details@Concurrency@@QBEIXZ 1001e126 f i libconcrt:ResourceManager.obj
 0001:0001d13f       ?DestroyAllocatedNodeData@ResourceManager@details@Concurrency@@QAEXPAUSchedulerNode@23@@Z 1001e13f f   libconcrt:ResourceManager.obj
 0001:0001d17b       ?DetermineTopology@ResourceManager@details@Concurrency@@AAEXXZ 1001e17b f   libconcrt:ResourceManager.obj
 0001:0001d48e       ?DiscardExistingSchedulerStatistics@ResourceManager@details@Concurrency@@AAEXXZ 1001e48e f   libconcrt:ResourceManager.obj
 0001:0001d4fa       ?DistributeCoresToSurvivingScheduler@ResourceManager@details@Concurrency@@AAE_NXZ 1001e4fa f   libconcrt:ResourceManager.obj
 0001:0001d69f       ?DistributeExclusiveCores@ResourceManager@details@Concurrency@@AAEXIIIII@Z 1001e69f f   libconcrt:ResourceManager.obj
 0001:0001d7e1       ?DistributeIdleCores@ResourceManager@details@Concurrency@@AAEXII@Z 1001e7e1 f   libconcrt:ResourceManager.obj
 0001:0001d967       ?DoCoreMigration@ResourceManager@details@Concurrency@@AAEXXZ 1001e967 f   libconcrt:ResourceManager.obj
 0001:0001dbcb       ?DynamicAssignCores@ResourceManager@details@Concurrency@@AAEXPAVSchedulerProxy@23@II_N@Z 1001ebcb f   libconcrt:ResourceManager.obj
 0001:0001dc3a       ?DynamicMigrateCores@ResourceManager@details@Concurrency@@AAEXPAUDynamicAllocationData@23@PAVSchedulerProxy@23@II@Z 1001ec3a f   libconcrt:ResourceManager.obj
 0001:0001dda5       ?DynamicRMThreadProc@ResourceManager@details@Concurrency@@CGKPAX@Z 1001eda5 f   libconcrt:ResourceManager.obj
 0001:0001ddbe       ?DynamicResourceManager@ResourceManager@details@Concurrency@@AAEXXZ 1001edbe f   libconcrt:ResourceManager.obj
 0001:0001debe       ?FindBestFitExclusiveAllocation@ResourceManager@details@Concurrency@@AAEIAAI0PAUDynamicAllocationData@23@II@Z 1001eebe f   libconcrt:ResourceManager.obj
 0001:0001e202       ?FindBestFitIdleAllocation@ResourceManager@details@Concurrency@@AAEIIPAUDynamicAllocationData@23@I@Z 1001f202 f   libconcrt:ResourceManager.obj
 0001:0001e310       ?FindCoreForPartiallyFilledNode@ResourceManager@details@Concurrency@@AAE_NAAI0PAUDynamicAllocationData@23@I@Z 1001f310 f   libconcrt:ResourceManager.obj
 0001:0001e41b       ?FindGroupAffinity@AffinityRestriction@ResourceManager@details@Concurrency@@QAEPAUHardwareAffinity@34@G@Z 1001f41b f i libconcrt:ResourceManager.obj
 0001:0001e452       ?FlushStoreBuffers@ResourceManager@details@Concurrency@@QAEXXZ 1001f452 f   libconcrt:ResourceManager.obj
 0001:0001e484       ?GetCoreCount@ResourceManager@details@Concurrency@@SAIXZ 1001f484 f   libconcrt:ResourceManager.obj
 0001:0001e4cf       ?GetCurrentNodeAndCore@ResourceManager@details@Concurrency@@QAEIPAI@Z 1001f4cf f   libconcrt:ResourceManager.obj
 0001:0001e5df       ?GetFirstExecutionResource@TopologyObject@GlobalNode@details@Concurrency@@UBEPAUITopologyExecutionResource@4@XZ 1001f5df f i libconcrt:ResourceManager.obj
 0001:0001e5e9       ?GetFirstNode@ResourceManager@details@Concurrency@@UBEPAUITopologyNode@3@XZ 1001f5e9 f i libconcrt:ResourceManager.obj
 0001:0001e5f0       ?GetExecutionResourceCount@TopologyObject@GlobalNode@details@Concurrency@@UBEIXZ 1001f5f0 f i libconcrt:ResourceManager.obj
 0001:0001e5f0       ?GetId@TopologyObject@GlobalCore@details@Concurrency@@UBEIXZ 1001f5f0 f i libconcrt:ResourceManager.obj
 0001:0001e5f7       ?GetId@TopologyObject@GlobalNode@details@Concurrency@@UBEIXZ 1001f5f7 f i libconcrt:ResourceManager.obj
 0001:0001e5fe       ?GetNext@TopologyObject@GlobalCore@details@Concurrency@@UBEPAUITopologyExecutionResource@4@XZ 1001f5fe f   libconcrt:ResourceManager.obj
 0001:0001e615       ?GetNext@TopologyObject@GlobalNode@details@Concurrency@@UBEPAUITopologyNode@4@XZ 1001f615 f   libconcrt:ResourceManager.obj
 0001:0001e62c       ?GetNextGlobalCore@GlobalNode@details@Concurrency@@QAEPAUGlobalCore@23@PBU423@@Z 1001f62c f i libconcrt:ResourceManager.obj
 0001:0001e651       ?GetNextGlobalNode@ResourceManager@details@Concurrency@@QAEPAUGlobalNode@23@PBU423@@Z 1001f651 f i libconcrt:ResourceManager.obj
 0001:0001e676       ?GetNodeCount@ResourceManager@details@Concurrency@@SAIXZ 1001f676 f   libconcrt:ResourceManager.obj
 0001:0001e6c1       ?GetNumaNode@TopologyObject@GlobalNode@details@Concurrency@@UBEKXZ 1001f6c1 f i libconcrt:ResourceManager.obj
 0001:0001e6c8       ?GetOSVersion@Concurrency@@YA?AW4OSVersion@IResourceManager@1@XZ 1001f6c8 f   libconcrt:ResourceManager.obj
 0001:0001e6cd       ?GetProcessorCount@Concurrency@@YAIXZ 1001f6cd f   libconcrt:ResourceManager.obj
 0001:0001e6d2       ?GetProcessorNodeCount@Concurrency@@YAIXZ 1001f6d2 f   libconcrt:ResourceManager.obj
 0001:0001e6d7       ?GetSchedulerId@Concurrency@@YAIXZ 1001f6d7 f   libconcrt:ResourceManager.obj
 0001:0001e6e4       ?GetTopologyInformation@ResourceManager@details@Concurrency@@CAXW4_LOGICAL_PROCESSOR_RELATIONSHIP@@@Z 1001f6e4 f   libconcrt:ResourceManager.obj
 0001:0001e70d       ?HandleBorrowedCores@ResourceManager@details@Concurrency@@AAEXPAVSchedulerProxy@23@PAUAllocationData@23@@Z 1001f70d f   libconcrt:ResourceManager.obj
 0001:0001e828       ?HandleSharedCores@ResourceManager@details@Concurrency@@AAEXPAVSchedulerProxy@23@PAUDynamicAllocationData@23@@Z 1001f828 f   libconcrt:ResourceManager.obj
 0001:0001e97f       ?IncreaseFullyLoadedSchedulerAllocations@ResourceManager@details@Concurrency@@AAEXXZ 1001f97f f   libconcrt:ResourceManager.obj
 0001:0001e9b5       ?Initialize@GlobalCore@details@Concurrency@@QAEXPAUGlobalNode@23@IE@Z 1001f9b5 f i libconcrt:ResourceManager.obj
 0001:0001e9f4       ?Initialize@GlobalNode@details@Concurrency@@QAEXPAVResourceManager@23@GGKII@Z 1001f9f4 f i libconcrt:ResourceManager.obj
 0001:0001eb11       ?InitializeRMBuffers@ResourceManager@details@Concurrency@@AAEXXZ 1001fb11 f   libconcrt:ResourceManager.obj
 0001:0001ebd3       ?InitializeSystemInformation@ResourceManager@details@Concurrency@@CAX_N@Z 1001fbd3 f   libconcrt:ResourceManager.obj
 0001:0001ee0b       ?MinVprocHWThreads@SchedulerProxy@details@Concurrency@@QBEIXZ 1001fe0b f i libconcrt:ResourceManager.obj
 0001:0001ee24       ?PerformAllocation@ResourceManager@details@Concurrency@@QAEPAVExecutionResource@23@PAVSchedulerProxy@23@_N1@Z 1001fe24 f   libconcrt:ResourceManager.obj
 0001:0001ef7c       ?PopulateCommonAllocationData@ResourceManager@details@Concurrency@@AAEXIPAVSchedulerProxy@23@PAUAllocationData@23@@Z 1001ff7c f   libconcrt:ResourceManager.obj
 0001:0001f044       ?PopulateDynamicAllocationData@ResourceManager@details@Concurrency@@AAEXXZ 10020044 f   libconcrt:ResourceManager.obj
 0001:0001f16c       ?PreProcessDynamicAllocationData@ResourceManager@details@Concurrency@@AAEXXZ 1002016c f   libconcrt:ResourceManager.obj
 0001:0001f23f       ?PreProcessStaticAllocationData@ResourceManager@details@Concurrency@@AAEXXZ 1002023f f   libconcrt:ResourceManager.obj
 0001:0001f26e       ?PrepareReceiversForCoreTransfer@ResourceManager@details@Concurrency@@AAEII@Z 1002026e f   libconcrt:ResourceManager.obj
 0001:0001f47d       ?RedistributeCoresAmongAll@ResourceManager@details@Concurrency@@AAEIPAVSchedulerProxy@23@III@Z 1002047d f   libconcrt:ResourceManager.obj
 0001:0001f853       ?Reference@ResourceManager@details@Concurrency@@UAEIXZ 10020853 f   libconcrt:ResourceManager.obj
 0001:0001f85d       ?RegisterScheduler@ResourceManager@details@Concurrency@@UAEPAUISchedulerProxy@3@PAUIScheduler@3@I@Z 1002085d f   libconcrt:ResourceManager.obj
 0001:0001f8a3       ?Release@ResourceManager@details@Concurrency@@UAEIXZ 100208a3 f   libconcrt:ResourceManager.obj
 0001:0001f94e       ?ReleaseCoresOnExistingSchedulers@ResourceManager@details@Concurrency@@AAEIPAVSchedulerProxy@23@II@Z 1002094e f   libconcrt:ResourceManager.obj
 0001:0001f9a5       ?ReleaseSchedulerResources@ResourceManager@details@Concurrency@@AAE_NPAVSchedulerProxy@23@0I@Z 100209a5 f   libconcrt:ResourceManager.obj
 0001:0001fa9d       ?Remove@?$List@VSchedulerProxy@details@Concurrency@@VCount@CollectionTypes@23@@details@Concurrency@@QAEXPAVSchedulerProxy@23@@Z 10020a9d f i libconcrt:ResourceManager.obj
 0001:0001fad3       ?RemoveExecutionResource@ResourceManager@details@Concurrency@@QAEXPAVExecutionResource@23@@Z 10020ad3 f   libconcrt:ResourceManager.obj
 0001:0001fb4a       ?RequestInitialVirtualProcessors@ResourceManager@details@Concurrency@@QAEPAUIExecutionResource@3@PAVSchedulerProxy@23@_N@Z 10020b4a f   libconcrt:ResourceManager.obj
 0001:0001fc5f       ?ReserveAtHigherUseCounts@ResourceManager@details@Concurrency@@AAEIPAVSchedulerProxy@23@I@Z 10020c5f f   libconcrt:ResourceManager.obj
 0001:0001fc95       ?ReserveCores@ResourceManager@details@Concurrency@@AAEIPAVSchedulerProxy@23@II@Z 10020c95 f   libconcrt:ResourceManager.obj
 0001:0001fe6b       ?ResetGlobalAllocationData@ResourceManager@details@Concurrency@@AAEXXZ 10020e6b f   libconcrt:ResourceManager.obj
 0001:0001fec4       ?RetrieveSystemVersionInformation@ResourceManager@details@Concurrency@@CAXXZ 10020ec4 f   libconcrt:ResourceManager.obj
 0001:0001ffb4       ?RoundUpScaledAllocations@ResourceManager@details@Concurrency@@CAXPAPAUAllocationData@23@II@Z 10020fb4 f   libconcrt:ResourceManager.obj
 0001:00020175       ?SafeReference@ResourceManager@details@Concurrency@@AAE_NXZ 10021175 f   libconcrt:ResourceManager.obj
 0001:00020194       ?SendResourceNotifications@ResourceManager@details@Concurrency@@QAEXPAVSchedulerProxy@23@@Z 10021194 f   libconcrt:ResourceManager.obj
 0001:00020365       ?SetupStaticAllocationData@ResourceManager@details@Concurrency@@AAEXPAVSchedulerProxy@23@_N@Z 10021365 f   libconcrt:ResourceManager.obj
 0001:00020436       ?Shutdown@ResourceManager@details@Concurrency@@QAEXPAVSchedulerProxy@23@@Z 10021436 f   libconcrt:ResourceManager.obj
 0001:00020509       ?SubscribeCurrentThread@ResourceManager@details@Concurrency@@QAEPAVExecutionResource@23@PAVSchedulerProxy@23@@Z 10021509 f   libconcrt:ResourceManager.obj
 0001:0002055d       ?ToggleRMIdleState@ResourceManager@details@Concurrency@@AAEXPAUSchedulerNode@23@PAUSchedulerCore@23@PAUGlobalNode@23@PAUGlobalCore@23@PAUAllocationData@23@@Z 1002155d f   libconcrt:ResourceManager.obj
 0001:000205ca       ?Version@ResourceManager@details@Concurrency@@SA?AW4OSVersion@IResourceManager@3@XZ 100215ca f   libconcrt:ResourceManager.obj
 0001:00020613       ??$_InternalDeleteHelper@VExternalContextBase@details@Concurrency@@@details@Concurrency@@YAXPAVExternalContextBase@01@@Z 10021613 f i libconcrt:SchedulerBase.obj
 0001:00020635       ??$_InternalDeleteHelper@VInternalContextBase@details@Concurrency@@@details@Concurrency@@YAXPAVInternalContextBase@01@@Z 10021635 f i libconcrt:SchedulerBase.obj
 0001:00020659       ??$_InternalDeleteHelper@VScheduleGroupBase@details@Concurrency@@@details@Concurrency@@YAXPAVScheduleGroupBase@01@@Z 10021659 f i libconcrt:SchedulerBase.obj
 0001:0002067b       ??0?$ListArray@VExternalStatistics@details@Concurrency@@@details@Concurrency@@QAE@PAVSchedulerBase@12@HH@Z 1002167b f i libconcrt:SchedulerBase.obj
 0001:0002067b       ??0?$ListArray@VVirtualProcessor@details@Concurrency@@@details@Concurrency@@QAE@PAVSchedulerBase@12@HH@Z 1002167b f i libconcrt:SchedulingNode.obj
 0001:0002067b       ??0?$ListArray@VWorkQueue@details@Concurrency@@@details@Concurrency@@QAE@PAVSchedulerBase@12@HH@Z 1002167b f i libconcrt:ScheduleGroupBase.obj
 0001:0002067b       ??0?$ListArray@U?$ListArrayInlineLink@VWorkQueue@details@Concurrency@@@details@Concurrency@@@details@Concurrency@@QAE@PAVSchedulerBase@12@HH@Z 1002167b f i libconcrt:ScheduleGroupBase.obj
 0001:0002067b       ??0?$ListArray@VScheduleGroupSegmentBase@details@Concurrency@@@details@Concurrency@@QAE@PAVSchedulerBase@12@HH@Z 1002167b f i libconcrt:SchedulingRing.obj
 0001:0002067b       ??0?$ListArray@VScheduleGroupBase@details@Concurrency@@@details@Concurrency@@QAE@PAVSchedulerBase@12@HH@Z 1002167b f i libconcrt:SchedulerBase.obj
 0001:00020774       ??0CacheLocalScheduleGroupSegment@details@Concurrency@@QAE@PAVScheduleGroupBase@12@PAVSchedulingRing@12@PAVlocation@2@@Z 10021774 f i libconcrt:SchedulerBase.obj
 0001:000207ae       ??0FairScheduleGroupSegment@details@Concurrency@@QAE@PAVScheduleGroupBase@12@PAVSchedulingRing@12@PAVlocation@2@@Z 100217ae f i libconcrt:SchedulerBase.obj
 0001:000207e8       ??0NumaInformation@SchedulerBase@details@Concurrency@@QAE@XZ 100217e8 f i libconcrt:SchedulerBase.obj
 0001:00020802       ??0QuickBitSet@details@Concurrency@@QAE@I@Z 10021802 f i libconcrt:SchedulerBase.obj
 0001:00020848       ??0SchedulerBase@details@Concurrency@@QAE@ABVSchedulerPolicy@2@@Z 10021848 f   libconcrt:SchedulerBase.obj
 0001:00020b64       ??0improper_scheduler_attach@Concurrency@@QAE@ABV01@@Z 10021b64 f i libconcrt:SchedulerBase.obj
 0001:00020b7f       ??0improper_scheduler_reference@Concurrency@@QAE@ABV01@@Z 10021b7f f i libconcrt:SchedulerBase.obj
 0001:00020b9a       ??1?$ListArray@VExternalStatistics@details@Concurrency@@@details@Concurrency@@QAE@XZ 10021b9a f i libconcrt:SchedulerBase.obj
 0001:00020c14       ??1?$ListArray@VScheduleGroupBase@details@Concurrency@@@details@Concurrency@@QAE@XZ 10021c14 f i libconcrt:SchedulerBase.obj
 0001:00020c8b       ??1NumaInformation@SchedulerBase@details@Concurrency@@QAE@XZ 10021c8b f i libconcrt:SchedulerBase.obj
 0001:00020ca2       ??1QuickBitSet@details@Concurrency@@QAE@XZ 10021ca2 f i libconcrt:SchedulerBase.obj
 0001:00020cac       ??1ReferenceCountedQuickBitSet@details@Concurrency@@QAE@XZ 10021cac f i libconcrt:SchedulerBase.obj
 0001:00020cc3       ??1ScheduleGroup@Concurrency@@MAE@XZ 10021cc3 f i libconcrt:SchedulerBase.obj
 0001:00020cca       ??1Scheduler@Concurrency@@MAE@XZ 10021cca f i libconcrt:SchedulerBase.obj
 0001:00020cd1       ??1SchedulerBase@details@Concurrency@@UAE@XZ 10021cd1 f   libconcrt:SchedulerBase.obj
 0001:00020d8c       ??1_Scoped_lock@_CriticalNonReentrantLock@details@Concurrency@@QAE@XZ 10021d8c f i libconcrt:ContextBase.obj
 0001:00020d8c       ??1_Scoped_lock@_HyperNonReentrantLock@details@Concurrency@@QAE@XZ 10021d8c f i libconcrt:SchedulerBase.obj
 0001:00020dc4       ??A?$ListArray@VScheduleGroupSegmentBase@details@Concurrency@@@details@Concurrency@@QBEPAVScheduleGroupSegmentBase@12@H@Z 10021dc4 f i libconcrt:SchedulerBase.obj
 0001:00020dc4       ??A?$ListArray@U?$ListArrayInlineLink@VWorkQueue@details@Concurrency@@@details@Concurrency@@@details@Concurrency@@QBEPAU?$ListArrayInlineLink@VWorkQueue@details@Concurrency@@@12@H@Z 10021dc4 f i libconcrt:ScheduleGroupBase.obj
 0001:00020dc4       ??A?$ListArray@VWorkQueue@details@Concurrency@@@details@Concurrency@@QBEPAVWorkQueue@12@H@Z 10021dc4 f i libconcrt:ScheduleGroupBase.obj
 0001:00020dc4       ??A?$ListArray@VVirtualProcessor@details@Concurrency@@@details@Concurrency@@QBEPAVVirtualProcessor@12@H@Z 10021dc4 f i libconcrt:SchedulerBase.obj
 0001:00020dc4       ??A?$ListArray@VExternalStatistics@details@Concurrency@@@details@Concurrency@@QBEPAVExternalStatistics@12@H@Z 10021dc4 f i libconcrt:SchedulerBase.obj
 0001:00020e0c       ??_ENumaInformation@SchedulerBase@details@Concurrency@@QAEPAXI@Z 10021e0c f i libconcrt:SchedulerBase.obj
 0001:00020e8f       ??_ECacheLocalScheduleGroup@details@Concurrency@@UAEPAXI@Z 10021e8f f i libconcrt:SchedulerBase.obj
 0001:00020e8f       ??_GScheduleGroupBase@details@Concurrency@@UAEPAXI@Z 10021e8f f i libconcrt:ScheduleGroupBase.obj
 0001:00020e8f       ??_EScheduleGroupBase@details@Concurrency@@UAEPAXI@Z 10021e8f f i libconcrt:ScheduleGroupBase.obj
 0001:00020e8f       ??_GCacheLocalScheduleGroup@details@Concurrency@@UAEPAXI@Z 10021e8f f i libconcrt:SchedulerBase.obj
 0001:00020eb2       ??_ECacheLocalScheduleGroupSegment@details@Concurrency@@UAEPAXI@Z 10021eb2 f i libconcrt:SchedulerBase.obj
 0001:00020eb2       ??_EFairScheduleGroupSegment@details@Concurrency@@UAEPAXI@Z 10021eb2 f i libconcrt:SchedulerBase.obj
 0001:00020eb2       ??_GFairScheduleGroupSegment@details@Concurrency@@UAEPAXI@Z 10021eb2 f i libconcrt:SchedulerBase.obj
 0001:00020eb2       ??_GCacheLocalScheduleGroupSegment@details@Concurrency@@UAEPAXI@Z 10021eb2 f i libconcrt:SchedulerBase.obj
 0001:00020ed7       ??_GFairScheduleGroup@details@Concurrency@@UAEPAXI@Z 10021ed7 f i libconcrt:SchedulerBase.obj
 0001:00020ed7       ??_EFairScheduleGroup@details@Concurrency@@UAEPAXI@Z 10021ed7 f i libconcrt:SchedulerBase.obj
 0001:00020efa       ??_GRealizedChore@details@Concurrency@@UAEPAXI@Z 10021efa f i libconcrt:SchedulerBase.obj
 0001:00020efa       ??_ERealizedChore@details@Concurrency@@UAEPAXI@Z 10021efa f i libconcrt:SchedulerBase.obj
 0001:00020f1d       ??_GScheduleGroup@Concurrency@@MAEPAXI@Z 10021f1d f i libconcrt:SchedulerBase.obj
 0001:00020f1d       ??_EScheduleGroup@Concurrency@@MAEPAXI@Z 10021f1d f i libconcrt:SchedulerBase.obj
 0001:00020f40       ??_GScheduler@Concurrency@@MAEPAXI@Z 10021f40 f i libconcrt:SchedulerBase.obj
 0001:00020f40       ??_EScheduler@Concurrency@@MAEPAXI@Z 10021f40 f i libconcrt:SchedulerBase.obj
 0001:00020f63       ??_ESchedulerBase@details@Concurrency@@UAEPAXI@Z 10021f63 f i libconcrt:SchedulerBase.obj
 0001:00020f63       ??_GSchedulerBase@details@Concurrency@@UAEPAXI@Z 10021f63 f i libconcrt:SchedulerBase.obj
 0001:00020f88       ??_GSubAllocator@details@Concurrency@@QAEPAXI@Z 10021f88 f i libconcrt:SchedulerBase.obj
 0001:00020fea       ??_E_Chore@details@Concurrency@@MAEPAXI@Z 10021fea f i libconcrt:SchedulerBase.obj
 0001:00020fea       ??_G_Chore@details@Concurrency@@MAEPAXI@Z 10021fea f i libconcrt:SchedulerBase.obj
 0001:0002100d       ?Add@?$ListArray@VScheduleGroupBase@details@Concurrency@@@details@Concurrency@@QAEHPAVScheduleGroupBase@23@@Z 1002200d f i libconcrt:SchedulerBase.obj
 0001:00021170       ?AddContext@SchedulerBase@details@Concurrency@@QAEXPAVInternalContextBase@23@@Z 10022170 f   libconcrt:SchedulerBase.obj
 0001:000211a3       ?AddHead@?$List@UBoostedObject@details@Concurrency@@VNoCount@CollectionTypes@23@@details@Concurrency@@QAEXPAUBoostedObject@23@@Z 100221a3 f i libconcrt:SchedulerBase.obj
 0001:000211dc       ?AddTail@?$List@VWaitNode@SchedulerBase@details@Concurrency@@VNoCount@CollectionTypes@34@@details@Concurrency@@QAEXPAVWaitNode@SchedulerBase@23@@Z 100221dc f i libconcrt:SchedulerBase.obj
 0001:00021209       ?AddTail@?$SafeRWList@VWaitNode@SchedulerBase@details@Concurrency@@VNoCount@CollectionTypes@34@V_ReaderWriterLock@34@@details@Concurrency@@QAEXPAVWaitNode@SchedulerBase@23@@Z 10022209 f i libconcrt:SchedulerBase.obj
 0001:0002123d       ?AddVirtualProcessors@SchedulerBase@details@Concurrency@@IAEXPAPAUIVirtualProcessorRoot@3@I@Z 1002223d f   libconcrt:SchedulerBase.obj
 0001:000212f6       ?AllocateSegment@CacheLocalScheduleGroup@details@Concurrency@@MAEPAVScheduleGroupSegmentBase@23@PAVSchedulingRing@23@PAVlocation@3@@Z 100222f6 f i libconcrt:SchedulerBase.obj
 0001:00021331       ?AllocateSegment@FairScheduleGroup@details@Concurrency@@MAEPAVScheduleGroupSegmentBase@23@PAVSchedulingRing@23@PAVlocation@3@@Z 10022331 f i libconcrt:SchedulerBase.obj
 0001:0002137d       ?Attach@SchedulerBase@details@Concurrency@@UAEXXZ 1002237d f   libconcrt:SchedulerBase.obj
 0001:000213c5       ?AttachExternalContext@SchedulerBase@details@Concurrency@@AAEPAVExternalContextBase@23@_N@Z 100223c5 f   libconcrt:SchedulerBase.obj
 0001:00021430       ?AttemptSchedulerSweep@SchedulerBase@details@Concurrency@@IAEXXZ 10022430 f   libconcrt:SchedulerBase.obj
 0001:00021453       ?CancelAllContexts@SchedulerBase@details@Concurrency@@MAEXXZ 10022453 f   libconcrt:SchedulerBase.obj
 0001:00021490       ?ChangeThrottlingTimer@SchedulerBase@details@Concurrency@@AAEXK@Z 10022490 f   libconcrt:SchedulerBase.obj
 0001:000214f0       ?CheckForDeletion@?$ListArray@VExternalStatistics@details@Concurrency@@@details@Concurrency@@AAEXXZ 100224f0 f i libconcrt:SchedulerBase.obj
 0001:0002151e       ?CheckForDeletion@?$ListArray@VScheduleGroupBase@details@Concurrency@@@details@Concurrency@@AAEXXZ 1002251e f i libconcrt:SchedulerBase.obj
 0001:0002154c       ?CheckForDeletionBridge@?$ListArray@VExternalStatistics@details@Concurrency@@@details@Concurrency@@CAXPAV123@@Z 1002254c f i libconcrt:SchedulerBase.obj
 0001:00021558       ?CheckForDeletionBridge@?$ListArray@VScheduleGroupBase@details@Concurrency@@@details@Concurrency@@CAXPAV123@@Z 10022558 f i libconcrt:SchedulerBase.obj
 0001:00021564       ?CheckOneShotStaticDestruction@SchedulerBase@details@Concurrency@@SAXXZ 10022564 f   libconcrt:SchedulerBase.obj
 0001:0002158a       ?CheckStaticConstruction@SchedulerBase@details@Concurrency@@CAXXZ 1002258a f   libconcrt:SchedulerBase.obj
 0001:000215e6       ?Cleanup@SchedulerBase@details@Concurrency@@AAEXXZ 100225e6 f   libconcrt:SchedulerBase.obj
 0001:00021695       ?CommitSafePoints@SchedulerBase@details@Concurrency@@QAEXXZ 10022695 f   libconcrt:SchedulerBase.obj
 0001:000216d8       ?CommitToVersion@SchedulerBase@details@Concurrency@@AAEXK@Z 100226d8 f   libconcrt:SchedulerBase.obj
 0001:00021770       ?ComputeSafePointCommitVersion@SchedulerBase@details@Concurrency@@AAEKXZ 10022770 f   libconcrt:SchedulerBase.obj
 0001:000217fb       ?CopyFrom@QuickBitSet@details@Concurrency@@IAEXABV123@@Z 100227fb f i libconcrt:SchedulerBase.obj
 0001:00021838       ?CreateContextFromDefaultScheduler@SchedulerBase@details@Concurrency@@SAPAVContextBase@23@XZ 10022838 f   libconcrt:SchedulerBase.obj
 0001:00021863       ?CreateScheduleGroup@SchedulerBase@details@Concurrency@@UAEPAVScheduleGroup@3@AAVlocation@3@@Z 10022863 f i libconcrt:SchedulerBase.obj
 0001:0002186c       ?CreateScheduleGroup@SchedulerBase@details@Concurrency@@UAEPAVScheduleGroup@3@XZ 1002286c f i libconcrt:SchedulerBase.obj
 0001:0002188d       ?CreateWithoutInitializing@SchedulerBase@details@Concurrency@@SAPAV123@ABVSchedulerPolicy@3@@Z 1002288d f   libconcrt:SchedulerBase.obj
 0001:000218b3       ?DecrementInternalContextCount@SchedulerBase@details@Concurrency@@QAEXXZ 100228b3 f   libconcrt:SchedulerBase.obj
 0001:000218ce       ?DeferredGetInternalContext@SchedulerBase@details@Concurrency@@QAEXXZ 100228ce f   libconcrt:SchedulerBase.obj
 0001:000218ec       ?DeleteElements@?$ListArray@VExternalStatistics@details@Concurrency@@@details@Concurrency@@AAEXPAU_SINGLE_LIST_ENTRY@@@Z 100228ec f i libconcrt:SchedulerBase.obj
 0001:0002190d       ?DeleteElements@?$ListArray@VScheduleGroupBase@details@Concurrency@@@details@Concurrency@@AAEXPAU_SINGLE_LIST_ENTRY@@@Z 1002290d f i libconcrt:SchedulerBase.obj
 0001:0002192b       ?Dequeue@?$SQueue@VInternalContextBase@details@Concurrency@@@details@Concurrency@@QAEPAVInternalContextBase@23@XZ 1002292b f i libconcrt:SchedulerBase.obj
 0001:00021948       ?Dequeue@?$SQueue@VRealizedChore@details@Concurrency@@@details@Concurrency@@QAEPAVRealizedChore@23@XZ 10022948 f i libconcrt:ScheduleGroupBase.obj
 0001:00021948       ?Dequeue@?$SQueue@VSafePointInvocation@details@Concurrency@@@details@Concurrency@@QAEPAVSafePointInvocation@23@XZ 10022948 f i libconcrt:SchedulerBase.obj
 0001:00021962       ?Dequeue@?$SafeSQueue@VInternalContextBase@details@Concurrency@@V_HyperNonReentrantLock@23@@details@Concurrency@@QAEPAVInternalContextBase@23@XZ 10022962 f i libconcrt:SchedulerBase.obj
 0001:00021996       ?DestroySchedulerEventHandlers@SchedulerBase@details@Concurrency@@MAEXXZ 10022996 f   libconcrt:SchedulerBase.obj
 0001:000219e5       ?DetachExternalContext@SchedulerBase@details@Concurrency@@AAEXPAVExternalContextBase@23@_N@Z 100229e5 f   libconcrt:SchedulerBase.obj
 0001:00021a28       ?FastCurrentContext@SchedulerBase@details@Concurrency@@SAPAVContextBase@23@XZ 10022a28 f   libconcrt:SchedulerBase.obj
 0001:00021a35       ?FastCurrentScheduler@SchedulerBase@details@Concurrency@@SAPAV123@XZ 10022a35 f   libconcrt:SchedulerBase.obj
 0001:00021a48       ?Fill@QuickBitSet@details@Concurrency@@QAEXXZ 10022a48 f i libconcrt:SchedulerBase.obj
 0001:00021a65       ?Finalize@SchedulerBase@details@Concurrency@@AAEXXZ 10022a65 f   libconcrt:SchedulerBase.obj
 0001:00021b8e       ?FindCurrentNode@SchedulerBase@details@Concurrency@@QAEPAVSchedulingNode@23@XZ 10022b8e f   libconcrt:SchedulerBase.obj
 0001:00021bc9       ?FindNodeByLocation@SchedulerBase@details@Concurrency@@QAEPAVSchedulingNode@23@PAVlocation@3@@Z 10022bc9 f   libconcrt:SchedulerBase.obj
 0001:00021c24       ?FindScheduleGroupSegment@SchedulingRing@details@Concurrency@@AAEPAVScheduleGroupSegmentBase@23@HHPAHPAV?$ListArray@VScheduleGroupSegmentBase@details@Concurrency@@@23@@Z 10022c24 f i libconcrt:SchedulerBase.obj
 0001:00021c4f       ?FindVirtualProcessor@SchedulingNode@details@Concurrency@@QAEPAVVirtualProcessor@23@HHPAH@Z 10022c4f f i libconcrt:SchedulerBase.obj
 0001:00021c7e       ?FoundAvailableVirtualProcessor@SchedulerBase@details@Concurrency@@QAE_NAAVClaimTicket@VirtualProcessor@23@Vlocation@3@K@Z 10022c7e f   libconcrt:SchedulerBase.obj
 0001:00021d78       ?FoundBlockedContexts@SchedulerBase@details@Concurrency@@AAE_NXZ 10022d78 f   libconcrt:SchedulerBase.obj
 0001:00021da2       ?FoundUnstartedChores@SchedulerBase@details@Concurrency@@AAE_NXZ 10022da2 f   libconcrt:SchedulerBase.obj
 0001:00021e6b       ?GetAnonymousScheduleGroupSegment@SchedulerBase@details@Concurrency@@QAEPAVScheduleGroupSegmentBase@23@XZ 10022e6b f   libconcrt:SchedulerBase.obj
 0001:00021e74       ?GetBitSet@SchedulerBase@details@Concurrency@@QAE?AVQuickBitSet@23@PBVlocation@3@@Z 10022e74 f   libconcrt:SchedulerBase.obj
 0001:00021f2a       ?GetDefaultScheduler@SchedulerBase@details@Concurrency@@CAPAV123@XZ 10022f2a f   libconcrt:SchedulerBase.obj
 0001:00021fc6       ?GetExternalContext@SchedulerBase@details@Concurrency@@AAEPAVExternalContextBase@23@_N@Z 10022fc6 f   libconcrt:SchedulerBase.obj
 0001:00022026       ?GetInternalContext@SchedulerBase@details@Concurrency@@QAEPAVInternalContextBase@23@_N@Z 10023026 f   libconcrt:SchedulerBase.obj
 0001:00022146       ?GetNewContextId@SchedulerBase@details@Concurrency@@QAEIXZ 10023146 f   libconcrt:SchedulerBase.obj
 0001:00022153       ?GetNewScheduleGroupId@SchedulerBase@details@Concurrency@@QAEIXZ 10023153 f   libconcrt:SchedulerBase.obj
 0001:00022160       ?GetNewWorkQueueId@SchedulerBase@details@Concurrency@@SAIXZ 10023160 f   libconcrt:SchedulerBase.obj
 0001:0002216d       ?GetNextPriorityObject@SchedulerBase@details@Concurrency@@QAEPAUBoostedObject@23@XZ 1002316d f   libconcrt:SchedulerBase.obj
 0001:000221a2       ?GetNextScheduleGroupSegment@SchedulingRing@details@Concurrency@@AAEPAVScheduleGroupSegmentBase@23@PAHHPAV?$ListArray@VScheduleGroupSegmentBase@details@Concurrency@@@23@@Z 100231a2 f i libconcrt:SchedulerBase.obj
 0001:000221de       ?GetNextSchedulingRing@SchedulerBase@details@Concurrency@@QAEPAVSchedulingRing@23@PBV423@PAV423@@Z 100231de f   libconcrt:SchedulerBase.obj
 0001:0002220b       ?GetNextSchedulingRing@SchedulerBase@details@Concurrency@@QAEPAVSchedulingRing@23@XZ 1002320b f   libconcrt:SchedulerBase.obj
 0001:0002222c       ?GetNextValidSchedulingRingIndex@SchedulerBase@details@Concurrency@@AAEHH@Z 1002322c f   libconcrt:SchedulerBase.obj
 0001:0002224e       ?GetNextVirtualProcessor@SchedulingNode@details@Concurrency@@QAEPAVVirtualProcessor@23@PAHH@Z 1002324e f i libconcrt:SchedulerBase.obj
 0001:00022283       ?GetPolicy@SchedulerBase@details@Concurrency@@UBE?AVSchedulerPolicy@3@XZ 10023283 f   libconcrt:SchedulerBase.obj
 0001:000222a0       ?GetRealizedChore@SchedulerBase@details@Concurrency@@QAEPAVRealizedChore@23@P6AXPAX@Z0@Z 100232a0 f   libconcrt:SchedulerBase.obj
 0001:000222ff       ?GetReservedContext@SchedulerBase@details@Concurrency@@QAEPAVInternalContextBase@23@XZ 100232ff f i libconcrt:SchedulerBase.obj
 0001:00022316       ?GetRunnableContext@CacheLocalScheduleGroupSegment@details@Concurrency@@EAEPAVInternalContextBase@23@XZ 10023316 f i libconcrt:SchedulerBase.obj
 0001:00022316       ?GetRunnableContext@FairScheduleGroupSegment@details@Concurrency@@EAEPAVInternalContextBase@23@XZ 10023316 f i libconcrt:SchedulerBase.obj
 0001:00022329       ?GetSubAllocator@SchedulerBase@details@Concurrency@@SAPAVSubAllocator@23@_N@Z 10023329 f   libconcrt:SchedulerBase.obj
 0001:000223a9       ?GetValidSchedulingRingIndex@SchedulerBase@details@Concurrency@@AAEHH@Z 100233a9 f   libconcrt:SchedulerBase.obj
 0001:000223cc       ?Grow@QuickBitSet@details@Concurrency@@QAEXI@Z 100233cc f i libconcrt:SchedulerBase.obj
 0001:0002244d       ?Grow@ReferenceCountedQuickBitSet@details@Concurrency@@QAEXI@Z 1002344d f i libconcrt:SchedulerBase.obj
 0001:000224c0       ?HasCompletedShutdown@SchedulerBase@details@Concurrency@@QAE_NXZ 100234c0 f   libconcrt:SchedulerBase.obj
 0001:000224d3       ?HashValue@?$Hash@PAV_TaskCollection@details@Concurrency@@PAV123@@details@Concurrency@@CAIABQAV_TaskCollection@23@H@Z 100234d3 f i libconcrt:ContextBase.obj
 0001:000224d3       ?HashValue@?$Hash@II@details@Concurrency@@CAIABIH@Z 100234d3 f i libconcrt:SchedulerBase.obj
 0001:000224ff       ?Id@SchedulerBase@details@Concurrency@@UBEIXZ 100234ff f i libconcrt:SchedulerBase.obj
 0001:00022506       ?Initialize@SchedulerBase@details@Concurrency@@AAEXXZ 10023506 f   libconcrt:SchedulerBase.obj
 0001:000229a9       ?InitializeSchedulerEventHandlers@SchedulerBase@details@Concurrency@@MAEXXZ 100239a9 f   libconcrt:SchedulerBase.obj
 0001:000229b1       ?Insert@?$Hash@II@details@Concurrency@@QAEPAUListNode@123@ABI0@Z 100239b1 f i libconcrt:SchedulerBase.obj
 0001:000229b1       ?Insert@?$Hash@PAV_TaskCollection@details@Concurrency@@PAV123@@details@Concurrency@@QAEPAUListNode@123@ABQAV_TaskCollection@23@0@Z 100239b1 f i libconcrt:TaskCollection.obj
 0001:00022a1b       ?InternalCreateScheduleGroup@SchedulerBase@details@Concurrency@@AAEPAVScheduleGroup@3@PAVlocation@3@@Z 10023a1b f   libconcrt:SchedulerBase.obj
 0001:00022ae1       ?InternalRelease@ScheduleGroupBase@details@Concurrency@@IAEJXZ 10023ae1 f i libconcrt:SchedulerBase.obj
 0001:00022b1a       ?Intersects@QuickBitSet@details@Concurrency@@QBE_NABV123@@Z 10023b1a f i libconcrt:SchedulerBase.obj
 0001:00022b58       ?InvokeAtNextSafePoint@SafePointInvocation@details@Concurrency@@QAEXP6AXPAX@Z0PAVSchedulerBase@23@@Z 10023b58 f   libconcrt:SchedulerBase.obj
 0001:00022b93       ?InvokeOnSafePoint@SchedulerBase@details@Concurrency@@AAEXPAVSafePointInvocation@23@@Z 10023b93 f   libconcrt:SchedulerBase.obj
 0001:00022bd7       ?IsActive@ExternalStatistics@details@Concurrency@@QAE_NXZ 10023bd7 f i libconcrt:SchedulerBase.obj
 0001:00022bf4       ?IsAvailableLocation@SchedulerBase@details@Concurrency@@UBE_NABVlocation@3@@Z 10023bf4 f   libconcrt:SchedulerBase.obj
 0001:00022c2a       ?MailChore@FairScheduleGroup@details@Concurrency@@UAE?AVSlot@?$Mailbox@V_UnrealizedChore@details@Concurrency@@@23@PAV_UnrealizedChore@23@PAVlocation@3@PAPAVScheduleGroupSegmentBase@23@@Z 10023c2a f i libconcrt:SchedulerBase.obj
 0001:00022c3b       ?MarkSafePoint@SchedulerBase@details@Concurrency@@QAE_NPAVSafePointMarker@23@@Z 10023c3b f   libconcrt:SchedulerBase.obj
 0001:00022c5d       ?NotifyThrottledContext@SchedulerBase@details@Concurrency@@AAE_NPAVInternalContextBase@23@@Z 10023c5d f   libconcrt:SchedulerBase.obj
 0001:00022ce7       ?OneShotStaticConstruction@SchedulerBase@details@Concurrency@@CAXXZ 10023ce7 f   libconcrt:SchedulerBase.obj
 0001:00022cfb       ?OneShotStaticDestruction@SchedulerBase@details@Concurrency@@CAXXZ 10023cfb f   libconcrt:SchedulerBase.obj
 0001:00022d14       ?PerformServiceScan@SchedulerBase@details@Concurrency@@AAEX_K@Z 10023d14 f   libconcrt:SchedulerBase.obj
 0001:00022ebf       ?PhaseOneShutdown@SchedulerBase@details@Concurrency@@AAEXXZ 10023ebf f   libconcrt:SchedulerBase.obj
 0001:00022f35       ?PhaseTwoShutdown@SchedulerBase@details@Concurrency@@AAEXXZ 10023f35 f   libconcrt:SchedulerBase.obj
 0001:00022fca       ?PublishNewDataVersion@SchedulerBase@details@Concurrency@@AAEKXZ 10023fca f i libconcrt:SchedulerBase.obj
 0001:00022fe2       ?Push@?$LockFreePushStack@VContextNode@SchedulerBase@details@Concurrency@@@details@Concurrency@@QAEXPAVContextNode@SchedulerBase@23@@Z 10023fe2 f i libconcrt:SchedulerBase.obj
 0001:00023000       ?PushRunnableToInactive@SchedulerBase@details@Concurrency@@UAE_NPAVInternalContextBase@23@Vlocation@3@@Z 10024000 f   libconcrt:SchedulerBase.obj
 0001:00023068       ?Reallocate@QuickBitSet@details@Concurrency@@IAEXI@Z 10024068 f i libconcrt:SchedulerBase.obj
 0001:0002309f       ?Reference@ScheduleGroupBase@details@Concurrency@@UAEIXZ 1002409f f i libconcrt:SchedulerBase.obj
 0001:000230af       ?Reference@SchedulerBase@details@Concurrency@@UAEIXZ 100240af f   libconcrt:SchedulerBase.obj
 0001:0002311a       ?ReferenceForAttach@SchedulerBase@details@Concurrency@@IAEXXZ 1002411a f   libconcrt:SchedulerBase.obj
 0001:00023138       ?RegisterShutdownEvent@SchedulerBase@details@Concurrency@@UAEXPAX@Z 10024138 f   libconcrt:SchedulerBase.obj
 0001:000231d9       ?Release@ScheduleGroupBase@details@Concurrency@@UAEIXZ 100241d9 f i libconcrt:SchedulerBase.obj
 0001:000231de       ?Release@SchedulerBase@details@Concurrency@@UAEIXZ 100241de f   libconcrt:SchedulerBase.obj
 0001:000231f6       ?ReleaseExternalContext@SchedulerBase@details@Concurrency@@AAEXPAVExternalContextBase@23@@Z 100241f6 f   libconcrt:SchedulerBase.obj
 0001:00023238       ?ReleaseForDetach@SchedulerBase@details@Concurrency@@IAEXXZ 10024238 f   libconcrt:SchedulerBase.obj
 0001:00023256       ?ReleaseInternalContext@SchedulerBase@details@Concurrency@@QAEXPAVInternalContextBase@23@_N@Z 10024256 f   libconcrt:SchedulerBase.obj
 0001:0002329f       ?ReleaseRealizedChore@SchedulerBase@details@Concurrency@@QAEXPAVRealizedChore@23@@Z 1002429f f   libconcrt:SchedulerBase.obj
 0001:000232ee       ?ReleaseReservedContexts@SchedulerBase@details@Concurrency@@QAEXXZ 100242ee f   libconcrt:SchedulerBase.obj
 0001:00023359       ?ReleaseSuspendedVirtualProcessors@SchedulerBase@details@Concurrency@@AAEXJ@Z 10024359 f   libconcrt:SchedulerBase.obj
 0001:00023377       ?Remove@?$List@UBoostedObject@details@Concurrency@@VNoCount@CollectionTypes@23@@details@Concurrency@@QAEXPAUBoostedObject@23@@Z 10024377 f i libconcrt:SchedulerBase.obj
 0001:000233a9       ?Remove@?$ListArray@VExternalStatistics@details@Concurrency@@@details@Concurrency@@QAE_NPAVExternalStatistics@23@H_N@Z 100243a9 f i libconcrt:SchedulerBase.obj
 0001:000234ae       ?Remove@?$ListArray@VScheduleGroupBase@details@Concurrency@@@details@Concurrency@@QAE_NPAVScheduleGroupBase@23@H_N@Z 100244ae f i libconcrt:SchedulerBase.obj
 0001:000235b3       ?RemoveHead@?$List@UBoostedObject@details@Concurrency@@VNoCount@CollectionTypes@23@@details@Concurrency@@QAEPAUBoostedObject@23@XZ 100245b3 f i libconcrt:SchedulerBase.obj
 0001:000235db       ?RemoveHead@?$List@VWaitNode@SchedulerBase@details@Concurrency@@VNoCount@CollectionTypes@34@@details@Concurrency@@QAEPAVWaitNode@SchedulerBase@23@XZ 100245db f i libconcrt:SchedulerBase.obj
 0001:000235ff       ?RemoveHead@?$SafeRWList@VWaitNode@SchedulerBase@details@Concurrency@@VNoCount@CollectionTypes@34@V_ReaderWriterLock@34@@details@Concurrency@@QAEPAVWaitNode@SchedulerBase@23@XZ 100245ff f i libconcrt:SchedulerBase.obj
 0001:00023633       ?RemovePrioritizedObject@SchedulerBase@details@Concurrency@@QAEXPAUBoostedObject@23@@Z 10024633 f   libconcrt:SchedulerBase.obj
 0001:0002366f       ?RemoveScheduleGroup@SchedulerBase@details@Concurrency@@QAEXPAVScheduleGroupBase@23@@Z 1002466f f   libconcrt:SchedulerBase.obj
 0001:00023687       ?RemoveSegments@FairScheduleGroup@details@Concurrency@@MAEXXZ 10024687 f i libconcrt:SchedulerBase.obj
 0001:00023695       ?RemoveVirtualProcessors@SchedulerBase@details@Concurrency@@IAEXPAPAUIVirtualProcessorRoot@3@I@Z 10024695 f   libconcrt:SchedulerBase.obj
 0001:00023791       ?Resurrect@SchedulerBase@details@Concurrency@@AAEXXZ 10024791 f   libconcrt:SchedulerBase.obj
 0001:000237d8       ?ReturnSubAllocator@SchedulerBase@details@Concurrency@@SAXPAVSubAllocator@23@@Z 100247d8 f   libconcrt:SchedulerBase.obj
 0001:0002381a       ?SafeFastCurrentContext@SchedulerBase@details@Concurrency@@SAPAVContextBase@23@XZ 1002481a f   libconcrt:SchedulerBase.obj
 0001:00023836       ?SafeReference@SchedulerBase@details@Concurrency@@AAE_NXZ 10024836 f   libconcrt:SchedulerBase.obj
 0001:00023858       ?ScheduleTask@SchedulerBase@details@Concurrency@@UAEXP6AXPAX@Z0@Z 10024858 f   libconcrt:SchedulerBase.obj
 0001:000238a1       ?ScheduleTask@SchedulerBase@details@Concurrency@@UAEXP6AXPAX@Z0AAVlocation@3@@Z 100248a1 f   libconcrt:SchedulerBase.obj
 0001:000238d7       ?SetNextSchedulingRing@SchedulerBase@details@Concurrency@@QAEXPAVSchedulingRing@23@@Z 100248d7 f   libconcrt:SchedulerBase.obj
 0001:000238fc       ?SpinUntilBitsReset@details@Concurrency@@YAJPCJJ@Z 100248fc f i libconcrt:SchedulerBase.obj
 0001:0002392f       ?SpinUntilBitsSet@details@Concurrency@@YAJPCJJ@Z 1002492f f i libconcrt:SchedulerBase.obj
 0001:0002396b       ?StartupNewVirtualProcessor@SchedulerBase@details@Concurrency@@UAEXPAVScheduleGroupSegmentBase@23@Vlocation@3@@Z 1002496b f i libconcrt:SchedulerBase.obj
 0001:00023993       ?StartupVirtualProcessor@SchedulerBase@details@Concurrency@@QAE_NPAVScheduleGroupSegmentBase@23@Vlocation@3@K@Z 10024993 f   libconcrt:SchedulerBase.obj
 0001:000239ea       ?StaticConstruction@SchedulerBase@details@Concurrency@@CAXXZ 100249ea f   libconcrt:SchedulerBase.obj
 0001:000239f8       ?StaticDestruction@SchedulerBase@details@Concurrency@@CAXXZ 100249f8 f   libconcrt:SchedulerBase.obj
 0001:00023a4e       ?Statistics@SchedulerBase@details@Concurrency@@IAEXPAI00@Z 10024a4e f   libconcrt:SchedulerBase.obj
 0001:00023b8c       ?SweepSchedulerForFinalize@SchedulerBase@details@Concurrency@@AAEXXZ 10024b8c f   libconcrt:SchedulerBase.obj
 0001:00023c22       ?ThrottlerDispatch@SchedulerBase@details@Concurrency@@AAEXXZ 10024c22 f   libconcrt:SchedulerBase.obj
 0001:00023d39       ?ThrottlerDispatchBridge@SchedulerBase@details@Concurrency@@CGXPAU_TP_CALLBACK_INSTANCE@@PAXPAU_TP_TIMER@@@Z 10024d39 f i libconcrt:SchedulerBase.obj
 0001:00023d48       ?ThrottlerDispatchBridgeXP@SchedulerBase@details@Concurrency@@CGXPAXE@Z 10024d48 f i libconcrt:SchedulerBase.obj
 0001:00023d57       ?ThrottlerTrampoline@SchedulerBase@details@Concurrency@@CGXPAXE@Z 10024d57 f   libconcrt:SchedulerBase.obj
 0001:00023d94       ?ThrottlingTime@SchedulerBase@details@Concurrency@@QAEKK@Z 10024d94 f   libconcrt:SchedulerBase.obj
 0001:00023e2b       ?ThrowSchedulerEvent@SchedulerBase@details@Concurrency@@CAXW4ConcRT_EventType@3@EI@Z 10024e2b f   libconcrt:SchedulerBase.obj
 0001:00023e98       ?TraceSchedulerEvent@SchedulerBase@details@Concurrency@@AAEXW4ConcRT_EventType@3@EI@Z 10024e98 f i libconcrt:SchedulerBase.obj
 0001:00023ec2       ?TriggerCommitSafePoints@SchedulerBase@details@Concurrency@@QAEXPAVSafePointMarker@23@@Z 10024ec2 f   libconcrt:SchedulerBase.obj
 0001:00023ef7       ?TypeOfWorkPending@SchedulerBase@details@Concurrency@@MAE?AW4PendingWorkType@123@XZ 10024ef7 f   libconcrt:SchedulerBase.obj
 0001:00023f25       ?UpdateCommitVersion@SchedulerBase@details@Concurrency@@AAEKK@Z 10024f25 f   libconcrt:SchedulerBase.obj
 0001:00023f6d       ?UpdatePendingVersion@SchedulerBase@details@Concurrency@@AAEKXZ 10024f6d f   libconcrt:SchedulerBase.obj
 0001:00023f9f       ?VirtualProcessorActive@SchedulerBase@details@Concurrency@@QAE_N_N@Z 10024f9f f   libconcrt:SchedulerBase.obj
 0001:0002404e       ?VirtualProcessorIdle@SchedulerBase@details@Concurrency@@QAEX_N@Z 1002504e f   libconcrt:SchedulerBase.obj
 0001:000240ad       ?_Assign@location@Concurrency@@QAEXABV12@@Z 100250ad f i libconcrt:SchedulerBase.obj
 0001:000240e2       ??0MultiWaitBlock@details@Concurrency@@QAE@I_N0@Z 100250e2 f i libconcrt:event.obj
 0001:00024122       ??0MultiWaitBlockHolder@details@Concurrency@@QAE@_NI00@Z 10025122 f   libconcrt:event.obj
 0001:000241d8       ??0TimedSingleWaitBlock@details@Concurrency@@QAE@_N@Z 100251d8 f i libconcrt:event.obj
 0001:00024207       ??0WaitAnyBlock@details@Concurrency@@QAE@I_N0@Z 10025207 f i libconcrt:event.obj
 0001:0002422f       ??0WaitBlock@details@Concurrency@@QAE@XZ 1002522f f i libconcrt:event.obj
 0001:0002424f       ??0_Condition_variable@details@Concurrency@@QAE@XZ 1002524f f   libconcrt:event.obj
 0001:0002426e       ??0event@Concurrency@@QAE@XZ 1002526e f   libconcrt:event.obj
 0001:00024291       ??1?$_MallocaArrayHolder@PAVContext@Concurrency@@@details@Concurrency@@UAE@XZ 10025291 f i libconcrt:event.obj
 0001:000242a1       ??1MultiWaitBlockHolder@details@Concurrency@@QAE@XZ 100252a1 f   libconcrt:event.obj
 0001:000242bb       ??1_Condition_variable@details@Concurrency@@QAE@XZ 100252bb f   libconcrt:event.obj
 0001:00024309       ??1event@Concurrency@@QAE@XZ 10025309 f   libconcrt:event.obj
 0001:0002438d       ??_E?$_MallocaArrayHolder@PAVContext@Concurrency@@@details@Concurrency@@UAEPAXI@Z 1002538d f i libconcrt:event.obj
 0001:0002438d       ??_G?$_MallocaArrayHolder@PAVContext@Concurrency@@@details@Concurrency@@UAEPAXI@Z 1002538d f i libconcrt:event.obj
 0001:000243b9       ?Destroy@EventWaitNode@details@Concurrency@@QAEXXZ 100253b9 f i libconcrt:event.obj
 0001:000243d1       ?Destroy@SingleWaitBlock@details@Concurrency@@UAEXXZ 100253d1 f   libconcrt:event.obj
 0001:000243d1       ?SweepResetNode@SingleWaitBlock@details@Concurrency@@UAE_NXZ 100253d1 f   libconcrt:event.obj
 0001:000243d1       ?Reset@WaitAnyBlock@details@Concurrency@@UAE_NXZ 100253d1 f   libconcrt:event.obj
 0001:000243d1       ?SweepResetNode@WaitAnyBlock@details@Concurrency@@UAE_NXZ 100253d1 f   libconcrt:event.obj
 0001:000243d1       ?Reset@SingleWaitBlock@details@Concurrency@@UAE_NXZ 100253d1 f   libconcrt:event.obj
 0001:000243d2       ?Destroy@TimedSingleWaitBlock@details@Concurrency@@UAEXXZ 100253d2 f   libconcrt:event.obj
 0001:000243eb       ?Destroy@WaitAllBlock@details@Concurrency@@UAEXXZ 100253eb f   libconcrt:event.obj
 0001:000243f0       ?DispatchEventTimer@MultiWaitBlock@details@Concurrency@@SGXPAU_TP_CALLBACK_INSTANCE@@PAXPAU_TP_TIMER@@@Z 100253f0 f   libconcrt:event.obj
 0001:0002444f       ?DispatchEventTimer@TimedSingleWaitBlock@details@Concurrency@@SGXPAU_TP_CALLBACK_INSTANCE@@PAXPAU_TP_TIMER@@@Z 1002544f f   libconcrt:event.obj
 0001:00024481       ?DispatchEventTimerXP@MultiWaitBlock@details@Concurrency@@SGXPAXE@Z 10025481 f   libconcrt:event.obj
 0001:000244d8       ?DispatchEventTimerXP@TimedSingleWaitBlock@details@Concurrency@@SGXPAXE@Z 100254d8 f   libconcrt:event.obj
 0001:000244f9       ?GetSharedTimerQueue@details@Concurrency@@YAPAXXZ 100254f9 f   libconcrt:event.obj
 0001:0002458f       ?NotifyCompletedNode@MultiWaitBlock@details@Concurrency@@QAEXXZ 1002558f f   libconcrt:event.obj
 0001:000245a8       ?Reset@WaitAllBlock@details@Concurrency@@UAE_NXZ 100255a8 f   libconcrt:event.obj
 0001:000245e1       ?Satisfy@EventWaitNode@details@Concurrency@@QAE_NPAPAVContext@3@@Z 100255e1 f i libconcrt:event.obj
 0001:00024602       ?Satisfy@SingleWaitBlock@details@Concurrency@@UAE_NPAPAVContext@3@PAVEventWaitNode@23@@Z 10025602 f   libconcrt:event.obj
 0001:0002465e       ?Satisfy@TimedSingleWaitBlock@details@Concurrency@@UAE_NPAPAVContext@3@PAVEventWaitNode@23@@Z 1002565e f   libconcrt:event.obj
 0001:000246b9       ?Satisfy@WaitAllBlock@details@Concurrency@@UAE_NPAPAVContext@3@PAVEventWaitNode@23@@Z 100256b9 f   libconcrt:event.obj
 0001:000246ff       ?Satisfy@WaitAnyBlock@details@Concurrency@@UAE_NPAPAVContext@3@PAVEventWaitNode@23@@Z 100256ff f   libconcrt:event.obj
 0001:00024741       ?Set@StructuredEvent@details@Concurrency@@QAEXXZ 10025741 f   libconcrt:event.obj
 0001:00024788       ?SingleSatisfy@MultiWaitBlock@details@Concurrency@@MAEXPAPAVContext@3@PAVEventWaitNode@23@@Z 10025788 f   libconcrt:event.obj
 0001:00024837       ?Sweep@details@Concurrency@@YAPAVEventWaitNode@12@PAV312@_N@Z 10025837 f   libconcrt:event.obj
 0001:00024871       ?SweepResetNode@EventWaitNode@details@Concurrency@@QAE_NXZ 10025871 f i libconcrt:event.obj
 0001:00024889       ?SweepResetNode@WaitAllBlock@details@Concurrency@@UAE_NXZ 10025889 f   libconcrt:event.obj
 0001:000248bb       ?SweepWaitNode@EventWaitNode@details@Concurrency@@QAE_NXZ 100258bb f i libconcrt:event.obj
 0001:000248d3       ?SweepWaitNode@TimedSingleWaitBlock@details@Concurrency@@UAE_NXZ 100258d3 f   libconcrt:event.obj
 0001:000248f6       ?SweepWaitNode@WaitAllBlock@details@Concurrency@@UAE_NXZ 100258f6 f   libconcrt:event.obj
 0001:00024939       ?SweepWaitNode@WaitAnyBlock@details@Concurrency@@UAE_NXZ 10025939 f   libconcrt:event.obj
 0001:00024970       ?_InitOnRawMalloca@?$_MallocaArrayHolder@PAVContext@Concurrency@@@details@Concurrency@@QAEPAPAVContext@3@PAX@Z 10025970 f i libconcrt:event.obj
 0001:00024970       ?_InitOnRawMalloca@?$_MallocaArrayHolder@PAVevent@Concurrency@@@details@Concurrency@@QAEPAPAVevent@3@PAX@Z 10025970 f i libconcrt:TaskCollection.obj
 0001:000249a1       ?createTimer@TimedSingleWaitBlock@details@Concurrency@@QAE_NI@Z 100259a1 f i libconcrt:event.obj
 0001:00024a04       ?destroyTimer@TimedSingleWaitBlock@details@Concurrency@@QAEX_N@Z 10025a04 f i libconcrt:event.obj
 0001:00024a51       ?notify_all@_Condition_variable@details@Concurrency@@QAEXXZ 10025a51 f   libconcrt:event.obj
 0001:00024abd       ?notify_one@_Condition_variable@details@Concurrency@@QAEXXZ 10025abd f   libconcrt:event.obj
 0001:00024b40       ?set@event@Concurrency@@QAEXXZ 10025b40 f   libconcrt:event.obj
 0001:00024c71       ?wait@_Condition_variable@details@Concurrency@@QAEXAAVcritical_section@3@@Z 10025c71 f   libconcrt:event.obj
 0001:00024cd5       ?wait@event@Concurrency@@QAEII@Z 10025cd5 f   libconcrt:event.obj
 0001:00024db1       ?wait_for@_Condition_variable@details@Concurrency@@QAE_NAAVcritical_section@3@I@Z 10025db1 f   libconcrt:event.obj
 0001:00024e97       ?wait_for_multiple@event@Concurrency@@SAIPAPAV12@I_NI@Z 10025e97 f   libconcrt:event.obj
 0001:00025155       __freea                    10026155 f i libconcrt:event.obj
 0001:00025173       ??0?$Hash@PAV_TaskCollection@details@Concurrency@@PAV123@@details@Concurrency@@QAE@H@Z 10026173 f i libconcrt:ContextBase.obj
 0001:00025173       ??0?$Hash@II@details@Concurrency@@QAE@H@Z 10026173 f i libconcrt:SchedulerBase.obj
 0001:000251b1       ??0CancellationBeaconStack@ContextBase@details@Concurrency@@QAE@XZ 100261b1 f i libconcrt:ContextBase.obj
 0001:000251ca       ??0ContextBase@details@Concurrency@@QAE@PAVSchedulerBase@12@_N@Z 100261ca f   libconcrt:ContextBase.obj
 0001:0002529b       ??1?$Hash@PAV_TaskCollection@details@Concurrency@@PAV123@@details@Concurrency@@QAE@XZ 1002629b f i libconcrt:ContextBase.obj
 0001:0002529b       ??1?$Hash@II@details@Concurrency@@QAE@XZ 1002629b f i libconcrt:SchedulerBase.obj
 0001:000252ae       ??1?$StructuredWorkStealingQueue@VInternalContextBase@details@Concurrency@@V_HyperNonReentrantLock@23@@details@Concurrency@@QAE@XZ 100262ae f i libconcrt:VirtualProcessor.obj
 0001:000252ae       ??1?$StructuredWorkStealingQueue@V_UnrealizedChore@details@Concurrency@@V_CriticalNonReentrantLock@23@@details@Concurrency@@QAE@XZ 100262ae f i libconcrt:ContextBase.obj
 0001:000252c5       ??1?$WorkStealingQueue@V_UnrealizedChore@details@Concurrency@@V_CriticalNonReentrantLock@23@@details@Concurrency@@QAE@XZ 100262c5 f i libconcrt:ContextBase.obj
 0001:000252dc       ??1CancellationBeaconStack@ContextBase@details@Concurrency@@QAE@XZ 100262dc f i libconcrt:ContextBase.obj
 0001:00025318       ??1Context@Concurrency@@MAE@XZ 10026318 f i libconcrt:ContextBase.obj
 0001:0002531f       ??1ContextBase@details@Concurrency@@UAE@XZ 1002631f f i libconcrt:ContextBase.obj
 0001:0002534d       ??1_Scoped_lock_read@?$SafeRWList@UListEntry@details@Concurrency@@VNoCount@CollectionTypes@23@V_ReaderWriterLock@23@@details@Concurrency@@QAE@XZ 1002634d f i libconcrt:ContextBase.obj
 0001:00025388       ??8location@Concurrency@@QBE_NABV01@@Z 10026388 f i libconcrt:ContextBase.obj
 0001:000253ac       ??ACancellationBeaconStack@ContextBase@details@Concurrency@@QAEPAUCancellationBeacon@123@J@Z 100263ac f i libconcrt:ContextBase.obj
 0001:000253e2       ??_GContext@Concurrency@@MAEPAXI@Z 100263e2 f i libconcrt:ContextBase.obj
 0001:000253e2       ??_EContext@Concurrency@@MAEPAXI@Z 100263e2 f i libconcrt:ContextBase.obj
 0001:00025405       ??_EContextBase@details@Concurrency@@UAEPAXI@Z 10026405 f i libconcrt:ContextBase.obj
 0001:00025405       ??_GContextBase@details@Concurrency@@UAEPAXI@Z 10026405 f i libconcrt:ContextBase.obj
 0001:0002542a       ??_GWorkQueue@details@Concurrency@@QAEPAXI@Z 1002642a f i libconcrt:ContextBase.obj
 0001:00025456       ?Add@?$ListArray@VWorkQueue@details@Concurrency@@@details@Concurrency@@QAEHPAVWorkQueue@23@@Z 10026456 f i libconcrt:ContextBase.obj
 0001:000255b9       ?AddStealer@ContextBase@details@Concurrency@@QAEXPAV123@_N@Z 100265b9 f   libconcrt:ContextBase.obj
 0001:000255e3       ?AddTail@?$List@UListEntry@details@Concurrency@@VNoCount@CollectionTypes@23@@details@Concurrency@@QAEXPAUListEntry@23@@Z 100265e3 f i libconcrt:ContextBase.obj
 0001:00025612       ?AddTail@?$SafeRWList@UListEntry@details@Concurrency@@VNoCount@CollectionTypes@23@V_ReaderWriterLock@23@@details@Concurrency@@QAEXPAUListEntry@23@@Z 10026612 f i libconcrt:ContextBase.obj
 0001:00025646       ?CancelCollection@ContextBase@details@Concurrency@@QAEXH@Z 10026646 f   libconcrt:ContextBase.obj
 0001:000256ad       ?CancelCollectionComplete@ContextBase@details@Concurrency@@QAE_NH@Z 100266ad f   libconcrt:ContextBase.obj
 0001:000256dd       ?CancelStealers@ContextBase@details@Concurrency@@QAEXPAV_TaskCollectionBase@23@@Z 100266dd f   libconcrt:ContextBase.obj
 0001:000257a7       ?CheckForDeletion@?$ListArray@VWorkQueue@details@Concurrency@@@details@Concurrency@@AAEXXZ 100267a7 f i libconcrt:ContextBase.obj
 0001:000257cd       ?CheckForDeletionBridge@?$ListArray@VWorkQueue@details@Concurrency@@@details@Concurrency@@CAXPAV123@@Z 100267cd f i libconcrt:ContextBase.obj
 0001:000257d9       ?Claim@Slot@?$Mailbox@V_UnrealizedChore@details@Concurrency@@@details@Concurrency@@QAE_NPAPAV_UnrealizedChore@34@@Z 100267d9 f i libconcrt:ContextBase.obj
 0001:00025820       ?Cleanup@ContextBase@details@Concurrency@@QAEXXZ 10026820 f   libconcrt:ContextBase.obj
 0001:00025850       ?ClearAliasTable@ContextBase@details@Concurrency@@QAEXXZ 10026850 f   libconcrt:ContextBase.obj
 0001:00025891       ?ClearContextTls@ContextBase@details@Concurrency@@AAEXXZ 10026891 f   libconcrt:ContextBase.obj
 0001:000258a1       ?CreateWorkQueue@ContextBase@details@Concurrency@@QAEXXZ 100268a1 f   libconcrt:ContextBase.obj
 0001:00025920       ?DeleteElements@?$ListArray@VWorkQueue@details@Concurrency@@@details@Concurrency@@AAEXPAU_SINGLE_LIST_ENTRY@@@Z 10026920 f i libconcrt:ContextBase.obj
 0001:00025942       ?Dereference@Segment@?$Mailbox@V_UnrealizedChore@details@Concurrency@@@details@Concurrency@@QAEXXZ 10026942 f i libconcrt:ContextBase.obj
 0001:0002595d       ?DetachStealers@ContextBase@details@Concurrency@@QAEXXZ 1002695d f   libconcrt:ContextBase.obj
 0001:00025a9f       ?EnterHyperCriticalRegion@ContextBase@details@Concurrency@@QAEHXZ 10026a9f f   libconcrt:ContextBase.obj
 0001:00025a9f       ?ExitHyperCriticalRegion@ContextBase@details@Concurrency@@QAEHXZ 10026a9f f   libconcrt:ContextBase.obj
 0001:00025a9f       ?PreRunnableSearch@VirtualProcessor@details@Concurrency@@UAEPAVInternalContextBase@23@XZ 10026a9f f   libconcrt:VirtualProcessor.obj
 0001:00025a9f       ?GetDefaultDestination@VirtualProcessor@details@Concurrency@@UAEPAUIExecutionContext@3@XZ 10026a9f f   libconcrt:VirtualProcessor.obj
 0001:00025a9f       ?GetContextKind@ExternalContextBase@details@Concurrency@@EBE?AW4ContextKind@ContextBase@23@XZ 10026a9f f   libconcrt:ExternalContextBase.obj
 0001:00025a9f       ?EnterCriticalRegion@ContextBase@details@Concurrency@@QAEHXZ 10026a9f f   libconcrt:ContextBase.obj
 0001:00025a9f       ?sync@?$basic_streambuf@DU?$char_traits@D@std@@@std@@MAEHXZ 10026a9f f   libcpmt:cout.obj
 0001:00025a9f       ?ExitCriticalRegion@ContextBase@details@Concurrency@@QAEHXZ 10026a9f f   libconcrt:ContextBase.obj
 0001:00025aa2       ?EnterCriticalRegionHelper@ContextBase@details@Concurrency@@UAEHXZ 10026aa2 f i libconcrt:ContextBase.obj
 0001:00025aaa       ?EnterHyperCriticalRegionHelper@ContextBase@details@Concurrency@@UAEHXZ 10026aaa f i libconcrt:ContextBase.obj
 0001:00025ab5       ?ExitCriticalRegionHelper@ContextBase@details@Concurrency@@UAEHXZ 10026ab5 f i libconcrt:ContextBase.obj
 0001:00025abd       ?ExitHyperCriticalRegionHelper@ContextBase@details@Concurrency@@UAEHXZ 10026abd f i libconcrt:ContextBase.obj
 0001:00025ac8       ?FindAndDelete@?$Hash@PAV_TaskCollection@details@Concurrency@@PAV123@@details@Concurrency@@QAE_NABQAV_TaskCollection@23@PAPAV423@@Z 10026ac8 f i libconcrt:ContextBase.obj
 0001:00025b0a       ?FlagCancellationBeacons@ContextBase@details@Concurrency@@QAEXH@Z 10026b0a f   libconcrt:ContextBase.obj
 0001:00025b52       ?GetCriticalRegionType@ContextBase@details@Concurrency@@UBE?AW4CriticalRegionType@3@XZ 10026b52 f i libconcrt:ContextBase.obj
 0001:00025b66       ?GetId@ContextBase@details@Concurrency@@UBEIXZ 10026b66 f   libconcrt:ContextBase.obj
 0001:00025b6a       ?GetIndirectAlias@ContextBase@details@Concurrency@@QBEPAV_TaskCollection@23@XZ 10026b6a f   libconcrt:ContextBase.obj
 0001:00025b6e       ?GetScheduleGroup@ContextBase@details@Concurrency@@QBEPAVScheduleGroupBase@23@XZ 10026b6e f   libconcrt:ContextBase.obj
 0001:00025b7f       ?GetScheduleGroupId@ContextBase@details@Concurrency@@UBEIXZ 10026b7f f   libconcrt:ContextBase.obj
 0001:00025ba6       ?GetAvailableNodeCount@ResourceManager@details@Concurrency@@UBEIXZ 10026ba6 f   libconcrt:ResourceManager.obj
 0001:00025ba6       ?GetScheduleGroupSegment@ContextBase@details@Concurrency@@QBEPAVScheduleGroupSegmentBase@23@XZ 10026ba6 f   libconcrt:ContextBase.obj
 0001:00025baa       ?GetScheduler@ContextBase@details@Concurrency@@QBEPAVSchedulerBase@23@XZ 10026baa f   libconcrt:ContextBase.obj
 0001:00025baa       ?Id@ScheduleGroupBase@details@Concurrency@@UBEIXZ 10026baa f   libconcrt:SchedulerBase.obj
 0001:00025bae       ?IsCanceledAtDepth@ContextBase@details@Concurrency@@AAE_NPAV_TaskCollectionBase@23@H@Z 10026bae f   libconcrt:ContextBase.obj
 0001:00025c98       ?LockedSetOwningContext@WorkQueue@details@Concurrency@@QAEXPAVContextBase@23@@Z 10026c98 f i libconcrt:ContextBase.obj
 0001:00025cbb       ?NextList@?$Hash@PAV_TaskCollection@details@Concurrency@@PAV123@@details@Concurrency@@AAEPAUListNode@123@PAH@Z 10026cbb f i libconcrt:ContextBase.obj
 0001:00025cec       ?Pop@?$WorkStealingQueue@V_UnrealizedChore@details@Concurrency@@V_CriticalNonReentrantLock@23@@details@Concurrency@@QAEPAV_UnrealizedChore@23@XZ 10026cec f i libconcrt:ContextBase.obj
 0001:00025d46       ?PopContextFromTls@ContextBase@details@Concurrency@@AAEPAV123@XZ 10026d46 f   libconcrt:ContextBase.obj
 0001:00025d64       ?PushContextToTls@ContextBase@details@Concurrency@@AAEXPAV123@@Z 10026d64 f   libconcrt:ContextBase.obj
 0001:00025d7f       ?RecomputeMaximumCancellationDepth@ContextBase@details@Concurrency@@AAEXXZ 10026d7f f   libconcrt:ContextBase.obj
 0001:00025e08       ?ReferenceForCancellation@ContextBase@details@Concurrency@@QAEXXZ 10026e08 f   libconcrt:ContextBase.obj
 0001:00025e0d       ?ReleaseWorkQueue@ContextBase@details@Concurrency@@IAEXXZ 10026e0d f   libconcrt:ContextBase.obj
 0001:00025e64       ?Remove@?$Hash@PAV_TaskCollection@details@Concurrency@@PAV123@@details@Concurrency@@AAEPAUListNode@123@ABQAV_TaskCollection@23@H@Z 10026e64 f i libconcrt:ContextBase.obj
 0001:00025eac       ?Remove@?$List@UListEntry@details@Concurrency@@VNoCount@CollectionTypes@23@@details@Concurrency@@QAEXPAUListEntry@23@@Z 10026eac f i libconcrt:ContextBase.obj
 0001:00025eda       ?Remove@?$ListArray@VWorkQueue@details@Concurrency@@@details@Concurrency@@QAE_NPAVWorkQueue@23@H_N@Z 10026eda f i libconcrt:ContextBase.obj
 0001:00025fd7       ?Remove@?$SafeRWList@UListEntry@details@Concurrency@@VNoCount@CollectionTypes@23@V_ReaderWriterLock@23@@details@Concurrency@@QAEXPAUListEntry@23@@Z 10026fd7 f i libconcrt:ContextBase.obj
 0001:0002600b       ?RemoveStealer@ContextBase@details@Concurrency@@QAEXPAV123@@Z 1002700b f   libconcrt:ContextBase.obj
 0001:00026021       ?SetAsCurrentTls@ContextBase@details@Concurrency@@IAEXXZ 10027021 f   libconcrt:ContextBase.obj
 0001:00026030       ?StaticEnterCriticalRegion@ContextBase@details@Concurrency@@SAXXZ 10027030 f   libconcrt:ContextBase.obj
 0001:00026030       ?StaticExitHyperCriticalRegion@ContextBase@details@Concurrency@@SAXXZ 10027030 f   libconcrt:ContextBase.obj
 0001:00026030       ?StaticEnterHyperCriticalRegion@ContextBase@details@Concurrency@@SAXXZ 10027030 f   libconcrt:ContextBase.obj
 0001:00026030       ?StaticExitCriticalRegion@ContextBase@details@Concurrency@@SAXXZ 10027030 f   libconcrt:ContextBase.obj
 0001:00026035       ?SweepAliasTable@ContextBase@details@Concurrency@@QAEXXZ 10027035 f   libconcrt:ContextBase.obj
 0001:000260b9       ?SweepUnstructured@ContextBase@details@Concurrency@@QAEXP6A_NPAV_UnrealizedChore@23@PAX@Z12@Z 100270b9 f   libconcrt:ContextBase.obj
 0001:000260c5       ?SyncPop@?$WorkStealingQueue@V_UnrealizedChore@details@Concurrency@@V_CriticalNonReentrantLock@23@@details@Concurrency@@AAEPAV_UnrealizedChore@23@XZ 100270c5 f i libconcrt:ContextBase.obj
 0001:0002615e       ?ThrowContextEvent@ContextBase@details@Concurrency@@KAXW4ConcRT_EventType@3@EKK@Z 1002715e f   libconcrt:ContextBase.obj
 0001:000261d1       ?TraceContextEvent@ContextBase@details@Concurrency@@IAEXW4ConcRT_EventType@3@EKK@Z 100271d1 f i libconcrt:ContextBase.obj
 0001:000261fe       ?TryPop@?$WorkStealingQueue@V_UnrealizedChore@details@Concurrency@@V_CriticalNonReentrantLock@23@@details@Concurrency@@QAEPAV_UnrealizedChore@23@H@Z 100271fe f i libconcrt:ContextBase.obj
 0001:00026261       ?TryPopUnstructured@ContextBase@details@Concurrency@@QAEPAV_UnrealizedChore@23@H@Z 10027261 f   libconcrt:ContextBase.obj
 0001:00026270       ?Wipe@?$Hash@PAV_TaskCollection@details@Concurrency@@PAV123@@details@Concurrency@@QAEXXZ 10027270 f i libconcrt:ContextBase.obj
 0001:00026270       ?Wipe@?$Hash@II@details@Concurrency@@QAEXXZ 10027270 f i libconcrt:SchedulerBase.obj
 0001:000262bd       ?_SafeGetParent@_TaskCollectionBase@details@Concurrency@@IAEPAV123@XZ 100272bd f i libconcrt:ContextBase.obj
 0001:000262d1       ??$atomic_compare_exchange@J@details@Concurrency@@YAJAAU?$atomic@J@std@@JJ@Z 100272d1 f i libconcrt:TaskCollection.obj
 0001:000262f8       ??$wait@V<lambda_cf8f1d893b3a87da856048d6f694e263>@@@condition_variable@std@@QAEXAAV?$unique_lock@Vmutex@std@@@1@V<lambda_cf8f1d893b3a87da856048d6f694e263>@@@Z 100272f8 f i libconcrt:TaskCollection.obj
 0001:00026324       ??0CancellationTokenRegistration_TaskProc@details@Concurrency@@QAE@P6AXPAX@Z0H@Z 10027324 f i libconcrt:TaskCollection.obj
 0001:00026351       ??0_CancellationTokenRegistration@details@Concurrency@@QAE@J@Z 10027351 f i libconcrt:TaskCollection.obj
 0001:0002639c       ??0_Interruption_exception@details@Concurrency@@QAE@ABV012@@Z 1002739c f i libconcrt:TaskCollection.obj
 0001:000263b7       ??0_Interruption_exception@details@Concurrency@@QAE@XZ 100273b7 f i libconcrt:TaskCollection.obj
 0001:000263c8       ??0_TaskCollection@details@Concurrency@@AAE@PAV012@_N@Z 100273c8 f   libconcrt:TaskCollection.obj
 0001:000264b9       ??0missing_wait@Concurrency@@QAE@ABV01@@Z 100274b9 f i libconcrt:TaskCollection.obj
 0001:000264d4       ??1?$_MallocaArrayHolder@PAVevent@Concurrency@@@details@Concurrency@@UAE@XZ 100274d4 f i libconcrt:TaskCollection.obj
 0001:000264e4       ??1?$lock_guard@Vmutex@std@@@std@@QAE@XZ 100274e4 f i libconcrt:TaskCollection.obj
 0001:0002651d       ??1?$unique_lock@Vmutex@std@@@std@@QAE@XZ 1002751d f i libconcrt:TaskCollection.obj
 0001:0002655c       ??1TaskStack@details@Concurrency@@QAE@XZ 1002755c f   libconcrt:TaskCollection.obj
 0001:0002656c       ??1_CancellationTokenRegistration@details@Concurrency@@MAE@XZ 1002756c f i libconcrt:TaskCollection.obj
 0001:00026591       ??1_TaskCollection@details@Concurrency@@QAE@XZ 10027591 f   libconcrt:TaskCollection.obj
 0001:0002666f       ??1exception_ptr@std@@QAE@XZ 1002766f f i libconcrt:TaskCollection.obj
 0001:00026677       ??_G?$_MallocaArrayHolder@PAVevent@Concurrency@@@details@Concurrency@@UAEPAXI@Z 10027677 f i libconcrt:TaskCollection.obj
 0001:00026677       ??_E?$_MallocaArrayHolder@PAVevent@Concurrency@@@details@Concurrency@@UAEPAXI@Z 10027677 f i libconcrt:TaskCollection.obj
 0001:000266a3       ??_GCancellationTokenRegistration_TaskProc@details@Concurrency@@UAEPAXI@Z 100276a3 f i libconcrt:TaskCollection.obj
 0001:000266a3       ??_ECancellationTokenRegistration_TaskProc@details@Concurrency@@UAEPAXI@Z 100276a3 f i libconcrt:TaskCollection.obj
 0001:000266c5       ??_E_CancellationTokenRegistration@details@Concurrency@@MAEPAXI@Z 100276c5 f i libconcrt:TaskCollection.obj
 0001:000266c5       ??_G_CancellationTokenRegistration@details@Concurrency@@MAEPAXI@Z 100276c5 f i libconcrt:TaskCollection.obj
 0001:000266e7       ??_E_RefCounter@details@Concurrency@@UAEPAXI@Z 100276e7 f i libconcrt:TaskCollection.obj
 0001:000266e7       ??_G_RefCounter@details@Concurrency@@UAEPAXI@Z 100276e7 f i libconcrt:TaskCollection.obj
 0001:0002670a       ?AddArbitraryAlias@ContextBase@details@Concurrency@@QAEXPAV_TaskCollection@23@0@Z 1002770a f i libconcrt:TaskCollection.obj
 0001:0002672d       ?Find@?$Hash@PAV_TaskCollection@details@Concurrency@@PAV123@@details@Concurrency@@QAEPAUListNode@123@ABQAV_TaskCollection@23@PAPAV523@@Z 1002772d f i libconcrt:TaskCollection.obj
 0001:0002672d       ?Find@?$Hash@II@details@Concurrency@@QAEPAUListNode@123@ABIPAI@Z 1002772d f i libconcrt:SchedulerBase.obj
 0001:00026763       ?GetArbitraryAlias@ContextBase@details@Concurrency@@QAEPAV_TaskCollection@23@PAV423@@Z 10027763 f i libconcrt:TaskCollection.obj
 0001:000267c7       ?Lookup@?$Hash@PAV_TaskCollection@details@Concurrency@@PAV123@@details@Concurrency@@AAEPAUListNode@123@ABQAV_TaskCollection@23@H@Z 100277c7 f i libconcrt:TaskCollection.obj
 0001:000267c7       ?Lookup@?$Hash@II@details@Concurrency@@AAEPAUListNode@123@ABIH@Z 100277c7 f i libconcrt:SchedulerBase.obj
 0001:000267f1       ?_Abort@_TaskCollection@details@Concurrency@@AAEX_N@Z 100277f1 f   libconcrt:TaskCollection.obj
 0001:00026920       ?_AbortiveSweep@_TaskCollection@details@Concurrency@@AAEXPAX@Z 10027920 f   libconcrt:TaskCollection.obj
 0001:0002696a       ?_Alias@_TaskCollection@details@Concurrency@@AAEPAV123@XZ 1002796a f   libconcrt:TaskCollection.obj
 0001:000269f6       ?_Atomic_compare_exchange_strong_4@std@@YAHPCKPAKKW4memory_order@1@2@Z 100279f6 f i libconcrt:TaskCollection.obj
 0001:00026a65       ?_Cancel@_StructuredTaskCollection@details@Concurrency@@QAEXXZ 10027a65 f   libconcrt:TaskCollection.obj
 0001:00026ab6       ?_Cancel@_TaskCollection@details@Concurrency@@AAEX_NPAV123@@Z 10027ab6 f   libconcrt:TaskCollection.obj
 0001:00026b57       ?_CancelDirectAliases@_TaskCollection@details@Concurrency@@AAEX_NPAV123@@Z 10027b57 f   libconcrt:TaskCollection.obj
 0001:00026b76       ?_CancelFromArbitraryThread@_TaskCollection@details@Concurrency@@AAEX_N@Z 10027b76 f   libconcrt:TaskCollection.obj
 0001:00026c1b       ?_CancelStolenContexts@_TaskCollection@details@Concurrency@@AAEX_N0@Z 10027c1b f   libconcrt:TaskCollection.obj
 0001:00026ca6       ?_Cnd_broadcastX@std@@YAHPAU_Cnd_internal_imp_t@@@Z 10027ca6 f i libconcrt:TaskCollection.obj
 0001:00026cc5       ?_Cnd_waitX@std@@YAHPAU_Cnd_internal_imp_t@@PAU_Mtx_internal_imp_t@@@Z 10027cc5 f i libconcrt:TaskCollection.obj
 0001:00026ce8       ?_CollectionMatchPredicate@_TaskCollection@details@Concurrency@@CA_NPAV_UnrealizedChore@23@PAX@Z 10027ce8 f   libconcrt:TaskCollection.obj
 0001:00026cfb       ?_Compare_exchange_release_4@std@@YAHPCKPAKK@Z 10027cfb f i libconcrt:TaskCollection.obj
 0001:00026cfb       ?_Compare_exchange_seq_cst_4@std@@YAHPCKPAKK@Z 10027cfb f i libconcrt:TaskCollection.obj
 0001:00026cfb       ?_Compare_exchange_relaxed_4@std@@YAHPCKPAKK@Z 10027cfb f i libconcrt:TaskCollection.obj
 0001:00026cfb       ?_Compare_exchange_acquire_4@std@@YAHPCKPAKK@Z 10027cfb f i libconcrt:TaskCollection.obj
 0001:00026d22       ?_CountUp@_StructuredTaskCollection@details@Concurrency@@AAEXXZ 10027d22 f   libconcrt:TaskCollection.obj
 0001:00026d52       ?_DeregisterCallback@_CancellationTokenState@details@Concurrency@@QAEXPAV_CancellationTokenRegistration@23@@Z 10027d52 f i libconcrt:TaskCollection.obj
 0001:00026e1b       ?_Destroy@_RefCounter@details@Concurrency@@MAEXXZ 10027e1b f i libconcrt:TaskCollection.obj
 0001:00026e37       ?_Exec@CancellationTokenRegistration_TaskProc@details@Concurrency@@MAEXXZ 10027e37 f i libconcrt:TaskCollection.obj
 0001:00026e4a       ?_FullAliasWait@_TaskCollection@details@Concurrency@@AAEXPAV123@@Z 10027e4a f   libconcrt:TaskCollection.obj
 0001:00026f38       ?_GetStealTrackingList@_TaskCollection@details@Concurrency@@ABEPAXXZ 10027f38 f   libconcrt:TaskCollection.obj
 0001:00026f3c       ?_Initialize@_StructuredTaskCollection@details@Concurrency@@AAEXXZ 10027f3c f   libconcrt:TaskCollection.obj
 0001:00026f92       ?_Initialize@_TaskCollection@details@Concurrency@@AAEXXZ 10027f92 f   libconcrt:TaskCollection.obj
 0001:00026fc7       ?_Invoke@_CancellationTokenRegistration@details@Concurrency@@AAEXXZ 10027fc7 f i libconcrt:TaskCollection.obj
 0001:0002704e       ?_IsDirectAlias@_TaskCollection@details@Concurrency@@ABE_NXZ 1002804e f   libconcrt:TaskCollection.obj
 0001:00027061       ?_IsIndirectAlias@_TaskCollection@details@Concurrency@@ABE_NXZ 10028061 f   libconcrt:TaskCollection.obj
 0001:00027074       ?_IsMarkedForAbnormalExit@_TaskCollection@details@Concurrency@@QBE_NXZ 10028074 f   libconcrt:TaskCollection.obj
 0001:00027082       ?_IsStaleAlias@_TaskCollection@details@Concurrency@@ABE_NXZ 10028082 f   libconcrt:TaskCollection.obj
 0001:0002708b       ?_IsValid@_CancellationTokenState@details@Concurrency@@SA_NPAV123@@Z 1002808b f i libconcrt:TaskCollection.obj
 0001:000270a3       ?_Memory_order_upper_bound@std@@YA?AW4memory_order@1@W421@0@Z 100280a3 f i libconcrt:TaskCollection.obj
 0001:000270c8       ?_NotifyCompletedChoreAndFree@_TaskCollection@details@Concurrency@@AAEXPAV_UnrealizedChore@23@@Z 100280c8 f   libconcrt:TaskCollection.obj
 0001:00027119       ?_OriginalCollection@_TaskCollection@details@Concurrency@@QBEPAV123@XZ 10028119 f   libconcrt:TaskCollection.obj
 0001:0002711d       ?_RegisterCallback@_CancellationTokenState@details@Concurrency@@QAEPAV_CancellationTokenRegistration@23@P6AXPAX@Z0H@Z 1002811d f i libconcrt:TaskCollection.obj
 0001:0002715c       ?_RegisterCallback@_CancellationTokenState@details@Concurrency@@QAEXPAV_CancellationTokenRegistration@23@@Z 1002815c f i libconcrt:TaskCollection.obj
 0001:000271ce       ?_Release@_RefCounter@details@Concurrency@@QAEJXZ 100281ce f i libconcrt:TaskCollection.obj
 0001:000271f4       ?_ReleaseAlias@_TaskCollection@details@Concurrency@@AAEXXZ 100281f4 f   libconcrt:TaskCollection.obj
 0001:0002722e       ?_Reset@_TaskCollection@details@Concurrency@@AAEXPAV123@@Z 1002822e f   libconcrt:TaskCollection.obj
 0001:0002732b       ?_SetCancelState@_TaskCollection@details@Concurrency@@AAE_NJ@Z 1002832b f   libconcrt:TaskCollection.obj
 0001:00027365       ?_SweepAbortedChore@_TaskCollection@details@Concurrency@@CA_NPAV_UnrealizedChore@23@PAX@Z 10028365 f   libconcrt:TaskCollection.obj
 0001:0002737e       ?_TaskCleanup@_TaskCollection@details@Concurrency@@AAE_N_N@Z 1002837e f   libconcrt:TaskCollection.obj
 0001:000273d2       ?push_back@TokenRegistrationContainer@_CancellationTokenState@details@Concurrency@@QAEXPAV_CancellationTokenRegistration@34@@Z 100283d2 f i libconcrt:TaskCollection.obj
 0001:00027410       ?remove@TokenRegistrationContainer@_CancellationTokenState@details@Concurrency@@QAEXPAV_CancellationTokenRegistration@34@@Z 10028410 f i libconcrt:TaskCollection.obj
 0001:00027454       ??0SchedulerPolicy@Concurrency@@QAA@IZZ 10028454 f   libconcrt:SchedulerPolicyBase.obj
 0001:00027474       ??0SchedulerPolicy@Concurrency@@QAE@ABV01@@Z 10028474 f   libconcrt:SchedulerPolicyBase.obj
 0001:0002749a       ??0invalid_scheduler_policy_key@Concurrency@@QAE@ABV01@@Z 1002849a f i libconcrt:SchedulerPolicyBase.obj
 0001:000274b5       ??0invalid_scheduler_policy_thread_specification@Concurrency@@QAE@ABV01@@Z 100284b5 f i libconcrt:SchedulerPolicyBase.obj
 0001:000274d0       ??0invalid_scheduler_policy_value@Concurrency@@QAE@ABV01@@Z 100284d0 f i libconcrt:SchedulerPolicyBase.obj
 0001:000274eb       ??1SchedulerPolicy@Concurrency@@QAE@XZ 100284eb f   libconcrt:SchedulerPolicyBase.obj
 0001:000274f7       ??4SchedulerPolicy@Concurrency@@QAEAAV01@ABV01@@Z 100284f7 f   libconcrt:SchedulerPolicyBase.obj
 0001:00027515       ?GetPolicyValue@SchedulerPolicy@Concurrency@@QBEIW4PolicyElementKey@2@@Z 10028515 f   libconcrt:SchedulerPolicyBase.obj
 0001:0002754d       ?_AreConcurrencyLimitsValid@SchedulerPolicy@Concurrency@@CA_NII@Z 1002854d f   libconcrt:SchedulerPolicyBase.obj
 0001:0002756b       ?_Initialize@SchedulerPolicy@Concurrency@@AAEXIPAPAD@Z 1002856b f   libconcrt:SchedulerPolicyBase.obj
 0001:00027656       ?_ResolvePolicyValues@SchedulerPolicy@Concurrency@@AAEXXZ 10028656 f   libconcrt:SchedulerPolicyBase.obj
 0001:0002769e       ?_StringFromPolicyKey@SchedulerPolicy@Concurrency@@CAPADI@Z 1002869e f   libconcrt:SchedulerPolicyBase.obj
 0001:000276b5       ?_ValidPolicyValue@SchedulerPolicy@Concurrency@@CA_NW4PolicyElementKey@2@I@Z 100286b5 f   libconcrt:SchedulerPolicyBase.obj
 0001:00027795       ?_ValidateConcRTPolicy@SchedulerPolicy@Concurrency@@QBEXXZ 10028795 f   libconcrt:SchedulerPolicyBase.obj
 0001:000277d1       ??0ExecutionResource@details@Concurrency@@QAE@PAVSchedulerProxy@12@PAUSchedulerNode@12@I@Z 100287d1 f   libconcrt:ExecutionResource.obj
 0001:00027833       ??0ExecutionResource@details@Concurrency@@QAE@PAVSchedulerProxy@12@PAV012@@Z 10028833 f   libconcrt:ExecutionResource.obj
 0001:00027887       ?CurrentSubscriptionLevel@ExecutionResource@details@Concurrency@@UBEIXZ 10028887 f   libconcrt:ExecutionResource.obj
 0001:00027899       ?DecrementUseCounts@ExecutionResource@details@Concurrency@@QAEXXZ 10028899 f   libconcrt:ExecutionResource.obj
 0001:00027905       ?GetExecutionResourceId@ExecutionResource@details@Concurrency@@UBEIXZ 10028905 f i libconcrt:ExecutionResource.obj
 0001:00027905       ?GetNodeId@VirtualProcessorRoot@details@Concurrency@@UBEIXZ 10028905 f i libconcrt:VirtualProcessorRoot.obj
 0001:00027909       ?GetNodeId@ExecutionResource@details@Concurrency@@UBEIXZ 10028909 f i libconcrt:ExecutionResource.obj
 0001:0002790d       ?IncrementUseCounts@ExecutionResource@details@Concurrency@@QAEXXZ 1002890d f   libconcrt:ExecutionResource.obj
 0001:000279da       ?Remove@ExecutionResource@details@Concurrency@@UAEXPAUIScheduler@3@@Z 100289da f   libconcrt:ExecutionResource.obj
 0001:00027a3b       ?ResetCurrent@ExecutionResource@details@Concurrency@@QAEXXZ 10028a3b f   libconcrt:ExecutionResource.obj
 0001:00027a57       ?SetAsCurrent@ExecutionResource@details@Concurrency@@QAEXXZ 10028a57 f   libconcrt:ExecutionResource.obj
 0001:00027a7a       ??$sign@I@details@Concurrency@@YAII@Z 10028a7a f i libconcrt:HillClimbing.obj
 0001:00027a92       ??$sign@N@details@Concurrency@@YANN@Z 10028a92 f i libconcrt:HillClimbing.obj
 0001:00027acc       ??0HillClimbing@details@Concurrency@@QAE@IIPAVSchedulerProxy@12@@Z 10028acc f   libconcrt:HillClimbing.obj
 0001:00027b5b       ?Add@MeasuredHistory@HillClimbing@details@Concurrency@@QAEXNI@Z 10028b5b f   libconcrt:HillClimbing.obj
 0001:00027b7e       ?CalculateThroughput@HillClimbing@details@Concurrency@@AAENIIII@Z 10028b7e f   libconcrt:HillClimbing.obj
 0001:00027bbb       ?CalculateThroughputSlope@HillClimbing@details@Concurrency@@AAENHH@Z 10028bbb f   libconcrt:HillClimbing.obj
 0001:00027c79       ?CoefficientOfVariationMean@MeasuredHistory@HillClimbing@details@Concurrency@@QAENXZ 10028c79 f   libconcrt:HillClimbing.obj
 0001:00027cb2       ?EstablishControlSetting@HillClimbing@details@Concurrency@@AAEXI@Z 10028cb2 f   libconcrt:HillClimbing.obj
 0001:00027cf7       ?FlushHistories@HillClimbing@details@Concurrency@@AAEXXZ 10028cf7 f   libconcrt:HillClimbing.obj
 0001:00027d3d       ?GetHistory@HillClimbing@details@Concurrency@@AAEPAVMeasuredHistory@123@I@Z 10028d3d f   libconcrt:HillClimbing.obj
 0001:00027d68       ?GetRandomMove@HillClimbing@details@Concurrency@@AAEHXZ 10028d68 f   libconcrt:HillClimbing.obj
 0001:00027d81       ?IsStableHistory@HillClimbing@details@Concurrency@@AAE_NPAVMeasuredHistory@123@@Z 10028d81 f   libconcrt:HillClimbing.obj
 0001:00027db1       ?Mean@MeasuredHistory@HillClimbing@details@Concurrency@@QAENXZ 10028db1 f   libconcrt:HillClimbing.obj
 0001:00027dd3       ?RecommendControlSetting@HillClimbing@details@Concurrency@@AAEII@Z 10028dd3 f   libconcrt:HillClimbing.obj
 0001:00027ea5       ?Update@HillClimbing@details@Concurrency@@QAEIIIII@Z 10028ea5 f   libconcrt:HillClimbing.obj
 0001:00028067       ?Variance@MeasuredHistory@HillClimbing@details@Concurrency@@QAENXZ 10029067 f   libconcrt:HillClimbing.obj
 0001:000280b5       ??0SchedulerProxy@details@Concurrency@@QAE@PAUIScheduler@2@PAVResourceManager@12@ABVSchedulerPolicy@2@@Z 100290b5 f   libconcrt:SchedulerProxy.obj
 0001:0002830f       ??1SchedulerProxy@details@Concurrency@@IAE@XZ 1002930f f   libconcrt:SchedulerProxy.obj
 0001:0002836e       ?AddCore@SchedulerProxy@details@Concurrency@@QAEXPAUSchedulerNode@23@I_N@Z 1002936e f   libconcrt:SchedulerProxy.obj
 0001:00028440       ?AddExecutionResource@SchedulerProxy@details@Concurrency@@QAEXPAVExecutionResource@23@@Z 10029440 f   libconcrt:SchedulerProxy.obj
 0001:00028489       ?AddTail@?$List@VExecutionResource@details@Concurrency@@VCount@CollectionTypes@23@@details@Concurrency@@QAEXPAVExecutionResource@23@@Z 10029489 f i libconcrt:SchedulerProxy.obj
 0001:000284c2       ?AddThreadSubscription@SchedulerProxy@details@Concurrency@@QAEXPAVExecutionResource@23@@Z 100294c2 f   libconcrt:SchedulerProxy.obj
 0001:000284d1       ?AddVirtualProcessorRoots@SchedulerProxy@details@Concurrency@@QAEXPAPAUIVirtualProcessorRoot@3@I@Z 100294d1 f   libconcrt:SchedulerProxy.obj
 0001:0002857d       ?AdjustAllocationIncrease@SchedulerProxy@details@Concurrency@@QBEII@Z 1002957d f   libconcrt:SchedulerProxy.obj
 0001:000285ed       ?BindContext@SchedulerProxy@details@Concurrency@@UAEXPAUIExecutionContext@3@@Z 100295ed f   libconcrt:SchedulerProxy.obj
 0001:00028649       ?Cleanup@SchedulerProxy@details@Concurrency@@IAEXXZ 10029649 f   libconcrt:SchedulerProxy.obj
 0001:00028717       ?CreateExternalThreadResource@SchedulerProxy@details@Concurrency@@QAEPAVExecutionResource@23@PAUSchedulerNode@23@I@Z 10029717 f   libconcrt:SchedulerProxy.obj
 0001:0002875e       ?CreateOversubscriber@SchedulerProxy@details@Concurrency@@UAEPAUIVirtualProcessorRoot@3@PAUIExecutionResource@3@@Z 1002975e f   libconcrt:SchedulerProxy.obj
 0001:00028818       ?CreateVirtualProcessorRoot@SchedulerProxy@details@Concurrency@@UAEPAVVirtualProcessorRoot@23@PAUSchedulerNode@23@I@Z 10029818 f   libconcrt:SchedulerProxy.obj
 0001:00028850       ?DecrementCoreSubscription@SchedulerProxy@details@Concurrency@@QAEXPAVExecutionResource@23@@Z 10029850 f   libconcrt:SchedulerProxy.obj
 0001:0002889a       ?DecrementFixedCoreCount@SchedulerProxy@details@Concurrency@@QAEXII_N@Z 1002989a f   libconcrt:SchedulerProxy.obj
 0001:00028915       ?DeleteThis@SchedulerProxy@details@Concurrency@@MAEXXZ 10029915 f i libconcrt:SchedulerProxy.obj
 0001:00028930       ?DestroyExecutionResource@SchedulerProxy@details@Concurrency@@QAEXPAVExecutionResource@23@@Z 10029930 f   libconcrt:SchedulerProxy.obj
 0001:000289b5       ?DestroyVirtualProcessorRoot@SchedulerProxy@details@Concurrency@@QAEXPAVVirtualProcessorRoot@23@@Z 100299b5 f   libconcrt:SchedulerProxy.obj
 0001:00028a3e       ?FinalShutdown@SchedulerProxy@details@Concurrency@@UAEXXZ 10029a3e f   libconcrt:SchedulerProxy.obj
 0001:00028a5a       ?GetCurrentThreadExecutionResource@SchedulerProxy@details@Concurrency@@QAEPAVExecutionResource@23@XZ 10029a5a f   libconcrt:SchedulerProxy.obj
 0001:00028a77       ?GetNewThreadProxy@SchedulerProxy@details@Concurrency@@UAEPAUIThreadProxy@3@PAUIExecutionContext@3@@Z 10029a77 f   libconcrt:SchedulerProxy.obj
 0001:00028ac4       ?GetResourceForNewSubscription@SchedulerProxy@details@Concurrency@@QAEPAVExecutionResource@23@PAV423@@Z 10029ac4 f   libconcrt:SchedulerProxy.obj
 0001:00028b12       ?GrantAllocation@SchedulerProxy@details@Concurrency@@QAEPAVExecutionResource@23@I_N0@Z 10029b12 f   libconcrt:SchedulerProxy.obj
 0001:00028df1       ?IncrementCoreSubscription@SchedulerProxy@details@Concurrency@@QAEXPAVExecutionResource@23@@Z 10029df1 f   libconcrt:SchedulerProxy.obj
 0001:00028e3f       ?IncrementFixedCoreCount@SchedulerProxy@details@Concurrency@@QAEXII_N@Z 10029e3f f   libconcrt:SchedulerProxy.obj
 0001:00028ec7       ?ReferenceCurrentThreadExecutionResource@SchedulerProxy@details@Concurrency@@QAEPAVExecutionResource@23@XZ 10029ec7 f   libconcrt:SchedulerProxy.obj
 0001:00028f72       ?Remove@?$List@VExecutionResource@details@Concurrency@@VCount@CollectionTypes@23@@details@Concurrency@@QAEXPAVExecutionResource@23@@Z 10029f72 f i libconcrt:SchedulerProxy.obj
 0001:00028fa8       ?RemoveCore@SchedulerProxy@details@Concurrency@@QAEXPAUSchedulerNode@23@I@Z 10029fa8 f   libconcrt:SchedulerProxy.obj
 0001:00029092       ?RemoveThreadSubscription@SchedulerProxy@details@Concurrency@@QAEXPAVExecutionResource@23@@Z 1002a092 f   libconcrt:SchedulerProxy.obj
 0001:000290be       ?RequestInitialVirtualProcessors@SchedulerProxy@details@Concurrency@@UAEPAUIExecutionResource@3@_N@Z 1002a0be f   libconcrt:SchedulerProxy.obj
 0001:000290d1       ?SendCoreNotification@SchedulerProxy@details@Concurrency@@QAEXPAUSchedulerCore@23@_N@Z 1002a0d1 f   libconcrt:SchedulerProxy.obj
 0001:000291b5       ?Shutdown@SchedulerProxy@details@Concurrency@@UAEXXZ 1002a1b5 f   libconcrt:SchedulerProxy.obj
 0001:000291bf       ?SubscribeCurrentThread@SchedulerProxy@details@Concurrency@@UAEPAUIExecutionResource@3@XZ 1002a1bf f   libconcrt:SchedulerProxy.obj
 0001:000291c9       ?ToggleBorrowedState@SchedulerProxy@details@Concurrency@@QAEXPAUSchedulerNode@23@I@Z 1002a1c9 f   libconcrt:SchedulerProxy.obj
 0001:000291fc       ?UnbindContext@SchedulerProxy@details@Concurrency@@UAEXPAUIExecutionContext@3@@Z 1002a1fc f   libconcrt:SchedulerProxy.obj
 0001:00029246       ?Initialize@WinRT@details@Concurrency@@SAXXZ 1002a246 f   libconcrt:WinRTWrapper.obj
 0001:000292f7       ?RoInitialize@WinRT@details@Concurrency@@SAJW4RO_INIT_TYPE@@@Z 1002a2f7 f   libconcrt:WinRTWrapper.obj
 0001:00029318       ?RoUninitialize@WinRT@details@Concurrency@@SAXXZ 1002a318 f   libconcrt:WinRTWrapper.obj
 0001:00029332       ??0?$ThreadProxyFactory@VFreeThreadProxy@details@Concurrency@@@details@Concurrency@@IAE@PAVThreadProxyFactoryManager@12@@Z 1002a332 f i libconcrt:ThreadProxyFactoryManager.obj
 0001:0002936d       ??0FreeThreadProxy@details@Concurrency@@QAE@PAUIThreadProxyFactory@12@I@Z 1002a36d f i libconcrt:ThreadProxyFactoryManager.obj
 0001:000293a4       ??0FreeThreadProxyFactory@details@Concurrency@@IAE@PAVThreadProxyFactoryManager@12@@Z 1002a3a4 f i libconcrt:ThreadProxyFactoryManager.obj
 0001:000293d0       ??0ThreadProxyFactoryManager@details@Concurrency@@QAE@XZ 1002a3d0 f   libconcrt:ThreadProxyFactoryManager.obj
 0001:00029404       ??1ThreadProxyFactoryManager@details@Concurrency@@QAE@XZ 1002a404 f   libconcrt:ThreadProxyFactoryManager.obj
 0001:0002947b       ??_E?$ThreadProxyFactory@VFreeThreadProxy@details@Concurrency@@@details@Concurrency@@UAEPAXI@Z 1002a47b f i libconcrt:ThreadProxyFactoryManager.obj
 0001:0002947b       ??_G?$ThreadProxyFactory@VFreeThreadProxy@details@Concurrency@@@details@Concurrency@@UAEPAXI@Z 1002a47b f i libconcrt:ThreadProxyFactoryManager.obj
 0001:0002949e       ??_EFreeThreadProxy@details@Concurrency@@UAEPAXI@Z 1002a49e f i libconcrt:ThreadProxyFactoryManager.obj
 0001:0002949e       ??_GFreeThreadProxy@details@Concurrency@@UAEPAXI@Z 1002a49e f i libconcrt:ThreadProxyFactoryManager.obj
 0001:000294c6       ??_GFreeThreadProxyFactory@details@Concurrency@@UAEPAXI@Z 1002a4c6 f i libconcrt:ThreadProxyFactoryManager.obj
 0001:000294c6       ??_EFreeThreadProxyFactory@details@Concurrency@@UAEPAXI@Z 1002a4c6 f i libconcrt:ThreadProxyFactoryManager.obj
 0001:000294e9       ??_GIThreadProxyFactory@details@Concurrency@@UAEPAXI@Z 1002a4e9 f i libconcrt:ThreadProxyFactoryManager.obj
 0001:000294e9       ??_EIThreadProxyFactory@details@Concurrency@@UAEPAXI@Z 1002a4e9 f i libconcrt:ThreadProxyFactoryManager.obj
 0001:0002950c       ?Create@FreeThreadProxyFactory@details@Concurrency@@EAEPAVFreeThreadProxy@23@I@Z 1002a50c f i libconcrt:ThreadProxyFactoryManager.obj
 0001:00029541       ?CreateFactory@FreeThreadProxyFactory@details@Concurrency@@SAPAV123@PAVThreadProxyFactoryManager@23@@Z 1002a541 f i libconcrt:ThreadProxyFactoryManager.obj
 0001:0002956b       ?GetExecutionResourceTls@?$ThreadProxyFactory@VFreeThreadProxy@details@Concurrency@@@details@Concurrency@@UAEKXZ 1002a56b f i libconcrt:ThreadProxyFactoryManager.obj
 0001:0002956f       ?GetFreeThreadProxyFactory@ThreadProxyFactoryManager@details@Concurrency@@QAEPAVFreeThreadProxyFactory@23@XZ 1002a56f f   libconcrt:ThreadProxyFactoryManager.obj
 0001:000295b7       ?Prepare@?$ThreadProxyFactory@VFreeThreadProxy@details@Concurrency@@@details@Concurrency@@MAEXPAVFreeThreadProxy@23@H@Z 1002a5b7 f i libconcrt:ThreadProxyFactoryManager.obj
 0001:000295cf       ?ReclaimProxy@?$ThreadProxyFactory@VFreeThreadProxy@details@Concurrency@@@details@Concurrency@@UAEXPAUIThreadProxy@3@@Z 1002a5cf f i libconcrt:ThreadProxyFactoryManager.obj
 0001:00029631       ?ReclaimProxy@FreeThreadProxyFactory@details@Concurrency@@UAEXPAUIThreadProxy@3@@Z 1002a631 f i libconcrt:ThreadProxyFactoryManager.obj
 0001:000296d4       ?Reference@FreeThreadProxyFactory@details@Concurrency@@UAEJXZ 1002a6d4 f i libconcrt:ThreadProxyFactoryManager.obj
 0001:000296de       ?Release@FreeThreadProxyFactory@details@Concurrency@@UAEJXZ 1002a6de f i libconcrt:ThreadProxyFactoryManager.obj
 0001:0002970a       ?RequestProxy@?$ThreadProxyFactory@VFreeThreadProxy@details@Concurrency@@@details@Concurrency@@UAEPAUIThreadProxy@3@IH@Z 1002a70a f i libconcrt:ThreadProxyFactoryManager.obj
 0001:0002978c       ?Retire@FreeThreadProxyFactory@details@Concurrency@@EAEXPAVFreeThreadProxy@23@@Z 1002a78c f i libconcrt:ThreadProxyFactoryManager.obj
 0001:0002979b       ?RetireThreadProxies@?$ThreadProxyFactory@VFreeThreadProxy@details@Concurrency@@@details@Concurrency@@QAEXXZ 1002a79b f i libconcrt:ThreadProxyFactoryManager.obj
 0001:00029808       ?ShutdownFactory@FreeThreadProxyFactory@details@Concurrency@@UAEXXZ 1002a808 f i libconcrt:ThreadProxyFactoryManager.obj
 0001:00029828       ?StaticInitialize@?$ThreadProxyFactory@VFreeThreadProxy@details@Concurrency@@@details@Concurrency@@KAXXZ 1002a828 f i libconcrt:ThreadProxyFactoryManager.obj
 0001:0002983f       ?YieldToSystem@FreeThreadProxy@details@Concurrency@@UAEXXZ 1002a83f f i libconcrt:ThreadProxyFactoryManager.obj
 0001:00029844       ??0Etw@details@Concurrency@@AAE@XZ 1002a844 f   libconcrt:Trace.obj
 0001:00029910       ?ControlCallback@details@Concurrency@@YGKW4WMIDPREQUESTCODE@@PAXPAK1@Z 1002a910 f   libconcrt:Trace.obj
 0001:000299d7       ?GetEnableFlags@Etw@details@Concurrency@@QAEK_K@Z 1002a9d7 f   libconcrt:Trace.obj
 0001:00029a13       ?GetEnableLevel@Etw@details@Concurrency@@QAEE_K@Z 1002aa13 f   libconcrt:Trace.obj
 0001:00029a4f       ?GetLoggerHandle@Etw@details@Concurrency@@QAE_KPAX@Z 1002aa4f f   libconcrt:Trace.obj
 0001:00029a8b       ?RegisterGuids@Etw@details@Concurrency@@QAEKP6GKW4WMIDPREQUESTCODE@@PAXPAK1@ZPBU_GUID@@KPAU_TRACE_GUID_REGISTRATION@@PA_K@Z 1002aa8b f   libconcrt:Trace.obj
 0001:00029ace       ?Trace@Etw@details@Concurrency@@QAEK_KPAU_EVENT_TRACE_HEADER@@@Z 1002aace f   libconcrt:Trace.obj
 0001:00029b06       ?UnregisterGuids@Etw@details@Concurrency@@QAEK_K@Z 1002ab06 f   libconcrt:Trace.obj
 0001:00029b3b       ?_RegisterConcRTEventTracing@details@Concurrency@@YAXXZ 1002ab3b f   libconcrt:Trace.obj
 0001:00029baa       ?_UnregisterConcRTEventTracing@details@Concurrency@@YAXXZ 1002abaa f   libconcrt:Trace.obj
 0001:00029bed       ??$_InternalDeleteHelper@VVirtualProcessor@details@Concurrency@@@details@Concurrency@@YAXPAVVirtualProcessor@01@@Z 1002abed f i libconcrt:VirtualProcessor.obj
 0001:00029bed       ??$_InternalDeleteHelper@VScheduleGroupSegmentBase@details@Concurrency@@@details@Concurrency@@YAXPAVScheduleGroupSegmentBase@01@@Z 1002abed f i libconcrt:SchedulingRing.obj
 0001:00029c0e       ??0Slot@?$Mailbox@VInternalContextBase@details@Concurrency@@@details@Concurrency@@QAE@XZ 1002ac0e f i libconcrt:VirtualProcessor.obj
 0001:00029c18       ??0VirtualProcessor@details@Concurrency@@QAE@XZ 1002ac18 f   libconcrt:VirtualProcessor.obj
 0001:00029c7a       ??1Segment@?$Mailbox@VInternalContextBase@details@Concurrency@@@details@Concurrency@@QAE@XZ 1002ac7a f i libconcrt:VirtualProcessor.obj
 0001:00029c7a       ??1Segment@?$Mailbox@V_UnrealizedChore@details@Concurrency@@@details@Concurrency@@QAE@XZ 1002ac7a f i libconcrt:ContextBase.obj
 0001:00029c91       ??1VirtualProcessor@details@Concurrency@@UAE@XZ 1002ac91 f   libconcrt:VirtualProcessor.obj
 0001:00029cf3       ??_GVirtualProcessor@details@Concurrency@@UAEPAXI@Z 1002acf3 f i libconcrt:VirtualProcessor.obj
 0001:00029cf3       ??_EVirtualProcessor@details@Concurrency@@UAEPAXI@Z 1002acf3 f i libconcrt:VirtualProcessor.obj
 0001:00029d18       ?AcknowledgedAffinityMessage@SchedulerBase@details@Concurrency@@QAE_NI@Z 1002ad18 f i libconcrt:VirtualProcessor.obj
 0001:00029d4f       ?Affinitize@VirtualProcessor@details@Concurrency@@MAEXPAVInternalContextBase@23@@Z 1002ad4f f   libconcrt:VirtualProcessor.obj
 0001:00029d97       ?CheckAffinityNotification@VirtualProcessor@details@Concurrency@@QAE_NXZ 1002ad97 f   libconcrt:VirtualProcessor.obj
 0001:00029db5       ?CheckForDeletion@?$ListArray@VVirtualProcessor@details@Concurrency@@@details@Concurrency@@AAEXXZ 1002adb5 f i libconcrt:VirtualProcessor.obj
 0001:00029ddb       ?CheckForDeletionBridge@?$ListArray@VVirtualProcessor@details@Concurrency@@@details@Concurrency@@CAXPAV123@@Z 1002addb f i libconcrt:VirtualProcessor.obj
 0001:00029de7       ?Claim@Slot@?$Mailbox@VInternalContextBase@details@Concurrency@@@details@Concurrency@@QAE_NPAPAVInternalContextBase@34@@Z 1002ade7 f i libconcrt:VirtualProcessor.obj
 0001:00029e2e       ?ClaimExclusiveOwnership@VirtualProcessor@details@Concurrency@@QAE_NAAVClaimTicket@123@K_N@Z 1002ae2e f   libconcrt:VirtualProcessor.obj
 0001:00029ec3       ?ClearQuickCacheSlot@SchedulerBase@details@Concurrency@@QAEXI@Z 1002aec3 f i libconcrt:VirtualProcessor.obj
 0001:00029ee8       ?Deactivate@VirtualProcessor@details@Concurrency@@QAE_NPAUIExecutionContext@3@@Z 1002aee8 f   libconcrt:VirtualProcessor.obj
 0001:00029f09       ?DeleteElements@?$ListArray@VVirtualProcessor@details@Concurrency@@@details@Concurrency@@AAEXPAU_SINGLE_LIST_ENTRY@@@Z 1002af09 f i libconcrt:VirtualProcessor.obj
 0001:00029f2a       ?Dereference@Segment@?$Mailbox@VInternalContextBase@details@Concurrency@@@details@Concurrency@@QAEXXZ 1002af2a f i libconcrt:VirtualProcessor.obj
 0001:00029f45       ?EnsureAllTasksVisible@VirtualProcessor@details@Concurrency@@QAEXPAUIExecutionContext@3@@Z 1002af45 f   libconcrt:VirtualProcessor.obj
 0001:00029f66       ?ExerciseClaim@VirtualProcessor@details@Concurrency@@AAE_NW4AvailabilityType@123@PAVScheduleGroupSegmentBase@23@PAVInternalContextBase@23@@Z 1002af66 f   libconcrt:VirtualProcessor.obj
 0001:00029ff5       ?ExerciseWith@ClaimTicket@VirtualProcessor@details@Concurrency@@QAE_NPAVInternalContextBase@34@@Z 1002aff5 f   libconcrt:VirtualProcessor.obj
 0001:0002a020       ?GetCurrentSubAllocator@VirtualProcessor@details@Concurrency@@QAEPAVSubAllocator@23@XZ 1002b020 f   libconcrt:VirtualProcessor.obj
 0001:0002a039       ?GetResourceMaskId@SchedulerBase@details@Concurrency@@QAEII@Z 1002b039 f i libconcrt:VirtualProcessor.obj
 0001:0002a059       ?Initialize@VirtualProcessor@details@Concurrency@@MAEXPAVSchedulingNode@23@PAUIVirtualProcessorRoot@3@@Z 1002b059 f   libconcrt:VirtualProcessor.obj
 0001:0002a1d1       ?InterlockedClear@ReferenceCountedQuickBitSet@details@Concurrency@@QAEII@Z 1002b1d1 f i libconcrt:VirtualProcessor.obj
 0001:0002a211       ?InterlockedSet@ReferenceCountedQuickBitSet@details@Concurrency@@QAEII@Z 1002b211 f i libconcrt:VirtualProcessor.obj
 0001:0002a257       ?MakeAvailable@VirtualProcessor@details@Concurrency@@IAEXW4AvailabilityType@123@_N@Z 1002b257 f   libconcrt:VirtualProcessor.obj
 0001:0002a2c7       ?MarkForRetirement@VirtualProcessor@details@Concurrency@@AAEXXZ 1002b2c7 f   libconcrt:VirtualProcessor.obj
 0001:0002a327       ?Oversubscribe@VirtualProcessor@details@Concurrency@@EAEPAV123@XZ 1002b327 f   libconcrt:VirtualProcessor.obj
 0001:0002a359       ?Pop@?$StructuredWorkStealingQueue@VInternalContextBase@details@Concurrency@@V_HyperNonReentrantLock@23@@details@Concurrency@@QAEPAVInternalContextBase@23@XZ 1002b359 f i libconcrt:VirtualProcessor.obj
 0001:0002a3a7       ?Remove@?$ListArray@VVirtualProcessor@details@Concurrency@@@details@Concurrency@@QAE_NPAVVirtualProcessor@23@H_N@Z 1002b3a7 f i libconcrt:VirtualProcessor.obj
 0001:0002a4a9       ?Retire@VirtualProcessor@details@Concurrency@@MAEXXZ 1002b4a9 f   libconcrt:VirtualProcessor.obj
 0001:0002a609       ?SafePoint@VirtualProcessor@details@Concurrency@@QAE_NXZ 1002b609 f   libconcrt:VirtualProcessor.obj
 0001:0002a61d       ?SaveRetiredVirtualProcessorStatistics@SchedulerBase@details@Concurrency@@QAEXPAVVirtualProcessor@23@@Z 1002b61d f i libconcrt:VirtualProcessor.obj
 0001:0002a657       ?SpinUntilClear@QuickBitSet@details@Concurrency@@QBEXI@Z 1002b657 f i libconcrt:VirtualProcessor.obj
 0001:0002a6a1       ?SpinUntilSet@QuickBitSet@details@Concurrency@@QBEXI@Z 1002b6a1 f i libconcrt:VirtualProcessor.obj
 0001:0002a6eb       ?StartupWorkerContext@VirtualProcessor@details@Concurrency@@EAE_NPAVScheduleGroupSegmentBase@23@PAVInternalContextBase@23@@Z 1002b6eb f   libconcrt:VirtualProcessor.obj
 0001:0002a78a       ?StaticDelete@Segment@?$Mailbox@VInternalContextBase@details@Concurrency@@@details@Concurrency@@SAXPAU1234@@Z 1002b78a f i libconcrt:VirtualProcessor.obj
 0001:0002a78a       ?StaticDelete@Segment@?$Mailbox@V_UnrealizedChore@details@Concurrency@@@details@Concurrency@@SAXPAU1234@@Z 1002b78a f i libconcrt:ContextBase.obj
 0001:0002a7a9       ?ThrowVirtualProcessorEvent@VirtualProcessor@details@Concurrency@@CAXW4ConcRT_EventType@3@EKK@Z 1002b7a9 f   libconcrt:VirtualProcessor.obj
 0001:0002a81c       ?ToInternalContext@VirtualProcessor@details@Concurrency@@MAEPAVInternalContextBase@23@PAUIExecutionContext@3@@Z 1002b81c f   libconcrt:VirtualProcessor.obj
 0001:0002a826       ?TraceVirtualProcessorEvent@VirtualProcessor@details@Concurrency@@AAEXW4ConcRT_EventType@3@EKK@Z 1002b826 f i libconcrt:VirtualProcessor.obj
 0001:0002a853       ?UpdateWorkState@VirtualProcessor@details@Concurrency@@QAEX_N0@Z 1002b853 f   libconcrt:VirtualProcessor.obj
 0001:0002a8b3       ?Wipe@QuickBitSet@details@Concurrency@@QAEXXZ 1002b8b3 f i libconcrt:VirtualProcessor.obj
 0001:0002a8d0       ??0SchedulingNode@details@Concurrency@@QAE@ABVQuickBitSet@12@KPAVSchedulingRing@12@@Z 1002b8d0 f   libconcrt:SchedulingNode.obj
 0001:0002a94d       ??1?$ListArray@VVirtualProcessor@details@Concurrency@@@details@Concurrency@@QAE@XZ 1002b94d f i libconcrt:SchedulingNode.obj
 0001:0002a9c4       ??1SchedulingNode@details@Concurrency@@QAE@XZ 1002b9c4 f   libconcrt:SchedulingNode.obj
 0001:0002a9ed       ?Add@?$ListArray@VVirtualProcessor@details@Concurrency@@@details@Concurrency@@QAEHPAVVirtualProcessor@23@@Z 1002b9ed f i libconcrt:SchedulingNode.obj
 0001:0002ab50       ?AddVirtualProcessor@SchedulingNode@details@Concurrency@@QAEPAVVirtualProcessor@23@PAUIVirtualProcessorRoot@3@_N@Z 1002bb50 f   libconcrt:SchedulingNode.obj
 0001:0002ac57       ?FindMatchingVirtualProcessor@SchedulingNode@details@Concurrency@@QAEPAVVirtualProcessor@23@PAUIVirtualProcessorRoot@3@@Z 1002bc57 f   libconcrt:SchedulingNode.obj
 0001:0002ac96       ?FindVirtualProcessorByLocation@SchedulingNode@details@Concurrency@@QAEPAVVirtualProcessor@23@PBVlocation@3@@Z 1002bc96 f   libconcrt:SchedulingNode.obj
 0001:0002acf3       ?FoundAvailableVirtualProcessor@SchedulingNode@details@Concurrency@@AAE_NAAVClaimTicket@VirtualProcessor@23@Vlocation@3@K@Z 1002bcf3 f   libconcrt:SchedulingNode.obj
 0001:0002ad63       ?GetLocation@SchedulingNode@details@Concurrency@@QAE?AVlocation@3@XZ 1002bd63 f   libconcrt:SchedulingNode.obj
 0001:0002ad96       ?Steal@?$StructuredWorkStealingQueue@VInternalContextBase@details@Concurrency@@V_HyperNonReentrantLock@23@@details@Concurrency@@QAEPAVInternalContextBase@23@_N@Z 1002bd96 f i libconcrt:SchedulingNode.obj
 0001:0002add9       ?UnlockedSteal@?$StructuredWorkStealingQueue@VInternalContextBase@details@Concurrency@@V_HyperNonReentrantLock@23@@details@Concurrency@@QAEPAVInternalContextBase@23@_N@Z 1002bdd9 f i libconcrt:SchedulingNode.obj
 0001:0002ae57       ??0AllocatorBucket@details@Concurrency@@QAE@XZ 1002be57 f   libconcrt:SubAllocator.obj
 0001:0002ae6c       ??1AllocatorBucket@details@Concurrency@@QAE@XZ 1002be6c f   libconcrt:SubAllocator.obj
 0001:0002aec0       ?Alloc@AllocatorBucket@details@Concurrency@@QAEPATAllocationEntry@23@XZ 1002bec0 f   libconcrt:SubAllocator.obj
 0001:0002aed9       ?Alloc@SubAllocator@details@Concurrency@@QAEPAXI@Z 1002bed9 f   libconcrt:SubAllocator.obj
 0001:0002af29       ?Free@AllocatorBucket@details@Concurrency@@QAE_NPATAllocationEntry@23@@Z 1002bf29 f   libconcrt:SubAllocator.obj
 0001:0002af53       ?Free@SubAllocator@details@Concurrency@@QAEXPAX@Z 1002bf53 f   libconcrt:SubAllocator.obj
 0001:0002af8a       ?GetBucketIndex@SubAllocator@details@Concurrency@@SAHI@Z 1002bf8a f   libconcrt:SubAllocator.obj
 0001:0002afdf       ?StaticAlloc@SubAllocator@details@Concurrency@@SAPAXI@Z 1002bfdf f   libconcrt:SubAllocator.obj
 0001:0002b018       ??0InternalContextBase@details@Concurrency@@QAE@PAVSchedulerBase@12@@Z 1002c018 f   libconcrt:InternalContextBase.obj
 0001:0002b091       ??0context_self_unblock@Concurrency@@QAE@ABV01@@Z 1002c091 f i libconcrt:InternalContextBase.obj
 0001:0002b0ac       ??0context_unblock_unbalanced@Concurrency@@QAE@ABV01@@Z 1002c0ac f i libconcrt:InternalContextBase.obj
 0001:0002b0c7       ??0invalid_oversubscribe_operation@Concurrency@@QAE@ABV01@@Z 1002c0c7 f i libconcrt:InternalContextBase.obj
 0001:0002b0e2       ??0nested_scheduler_missing_detach@Concurrency@@QAE@ABV01@@Z 1002c0e2 f i libconcrt:InternalContextBase.obj
 0001:0002b0fd       ??1InternalContextBase@details@Concurrency@@UAE@XZ 1002c0fd f   libconcrt:InternalContextBase.obj
 0001:0002b14b       ??1ScopedCriticalRegion@ContextBase@details@Concurrency@@QAE@XZ 1002c14b f i libconcrt:InternalContextBase.obj
 0001:0002b183       ??_EInternalContextBase@details@Concurrency@@W3AEPAXI@Z 1002c183 f i libconcrt:InternalContextBase.obj
 0001:0002b18b       ??_GInternalContextBase@details@Concurrency@@UAEPAXI@Z 1002c18b f i libconcrt:InternalContextBase.obj
 0001:0002b18b       ??_EInternalContextBase@details@Concurrency@@UAEPAXI@Z 1002c18b f i libconcrt:InternalContextBase.obj
 0001:0002b1b0       ?AddToRunnables@InternalContextBase@details@Concurrency@@MAEXVlocation@3@@Z 1002c1b0 f   libconcrt:InternalContextBase.obj
 0001:0002b33d       ?Alloc@InternalContextBase@details@Concurrency@@UAEPAXI@Z 1002c33d f   libconcrt:InternalContextBase.obj
 0001:0002b391       ?Block@InternalContextBase@details@Concurrency@@UAEXXZ 1002c391 f   libconcrt:InternalContextBase.obj
 0001:0002b4cb       ?Cancel@InternalContextBase@details@Concurrency@@MAEXXZ 1002c4cb f   libconcrt:InternalContextBase.obj
 0001:0002b53f       ?Cleanup@InternalContextBase@details@Concurrency@@IAEXXZ 1002c53f f   libconcrt:InternalContextBase.obj
 0001:0002b557       ?CleanupDispatchedContextOnCancel@InternalContextBase@details@Concurrency@@IAEXXZ 1002c557 f   libconcrt:InternalContextBase.obj
 0001:0002b572       ?Dispatch@InternalContextBase@details@Concurrency@@UAEXPAUDispatchState@3@@Z 1002c572 f   libconcrt:InternalContextBase.obj
 0001:0002b707       ?ExecuteChoreInline@InternalContextBase@details@Concurrency@@IAEXPAVWorkItem@23@@Z 1002c707 f   libconcrt:InternalContextBase.obj
 0001:0002b744       ?ExecutedAssociatedChore@InternalContextBase@details@Concurrency@@IAE_NXZ 1002c744 f   libconcrt:InternalContextBase.obj
 0001:0002b7b7       ?FindWorkForBlockingOrNesting@InternalContextBase@details@Concurrency@@AAEPAV123@AA_N0@Z 1002c7b7 f   libconcrt:InternalContextBase.obj
 0001:0002b8e6       ?Free@InternalContextBase@details@Concurrency@@UAEXPAX@Z 1002c8e6 f   libconcrt:InternalContextBase.obj
 0001:0002b912       ?GetAndResetOversubscribedVProc@InternalContextBase@details@Concurrency@@QAEPAVVirtualProcessor@23@PAV423@@Z 1002c912 f   libconcrt:InternalContextBase.obj
 0001:0002b940       ?GetId@InternalContextBase@details@Concurrency@@UBEIXZ 1002c940 f   libconcrt:InternalContextBase.obj
 0001:0002b944       ?GetId@InternalContextBase@details@Concurrency@@W3BEIXZ 1002c944 f i libconcrt:InternalContextBase.obj
 0001:0002b94c       ?GetProxy@InternalContextBase@details@Concurrency@@UAEPAUIThreadProxy@3@XZ 1002c94c f   libconcrt:InternalContextBase.obj
 0001:0002b953       ?GetScheduler@InternalContextBase@details@Concurrency@@UAEPAUIScheduler@3@XZ 1002c953 f   libconcrt:InternalContextBase.obj
 0001:0002b96b       ?GetVirtualProcessorId@InternalContextBase@details@Concurrency@@UBEIXZ 1002c96b f   libconcrt:InternalContextBase.obj
 0001:0002b99a       ?GrowAndPush@?$StructuredWorkStealingQueue@VInternalContextBase@details@Concurrency@@V_HyperNonReentrantLock@23@@details@Concurrency@@AAEXPAVInternalContextBase@23@VSlot@?$Mailbox@VInternalContextBase@details@Concurrency@@@23@@Z 1002c99a f i libconcrt:InternalContextBase.obj
 0001:0002bb12       ?IsSynchronouslyBlocked@InternalContextBase@details@Concurrency@@UBE_NXZ 1002cb12 f i libconcrt:InternalContextBase.obj
 0001:0002bb1e       ?IsVirtualProcessorRetired@InternalContextBase@details@Concurrency@@IAE_NXZ 1002cb1e f   libconcrt:InternalContextBase.obj
 0001:0002bb7c       ?LeaveScheduler@InternalContextBase@details@Concurrency@@AAEXXZ 1002cb7c f   libconcrt:InternalContextBase.obj
 0001:0002bc80       ?Oversubscribe@InternalContextBase@details@Concurrency@@UAEX_N@Z 1002cc80 f   libconcrt:InternalContextBase.obj
 0001:0002bd07       ?PrepareForUse@InternalContextBase@details@Concurrency@@QAEXPAVScheduleGroupSegmentBase@23@PAU_Chore@23@_N@Z 1002cd07 f   libconcrt:InternalContextBase.obj
 0001:0002bd60       ?PrepareToRun@InternalContextBase@details@Concurrency@@MAEXPAVVirtualProcessor@23@@Z 1002cd60 f i libconcrt:InternalContextBase.obj
 0001:0002bd77       ?Push@?$StructuredWorkStealingQueue@VInternalContextBase@details@Concurrency@@V_HyperNonReentrantLock@23@@details@Concurrency@@QAEXPAVInternalContextBase@23@@Z 1002cd77 f i libconcrt:InternalContextBase.obj
 0001:0002bdb8       ?ReclaimVirtualProcessor@InternalContextBase@details@Concurrency@@IAEXXZ 1002cdb8 f   libconcrt:InternalContextBase.obj
 0001:0002be22       ?RejoinScheduler@InternalContextBase@details@Concurrency@@AAEXXZ 1002ce22 f   libconcrt:InternalContextBase.obj
 0001:0002be41       ?RemoveFromUse@InternalContextBase@details@Concurrency@@QAEXXZ 1002ce41 f   libconcrt:InternalContextBase.obj
 0001:0002be64       ?SearchForWork@VirtualProcessor@details@Concurrency@@QAE_NPAVWorkItem@23@PAVScheduleGroupSegmentBase@23@_N@Z 1002ce64 f i libconcrt:InternalContextBase.obj
 0001:0002be8b       ?SetProxy@InternalContextBase@details@Concurrency@@UAEXPAUIThreadProxy@3@@Z 1002ce8b f   libconcrt:InternalContextBase.obj
 0001:0002bec0       ?SpinUntilBlocked@InternalContextBase@details@Concurrency@@IAEXXZ 1002cec0 f   libconcrt:InternalContextBase.obj
 0001:0002beed       ?SpinUntilValueEquals@details@Concurrency@@YAXPCJJ@Z 1002ceed f i libconcrt:InternalContextBase.obj
 0001:0002bf1c       ?SpinYield@InternalContextBase@details@Concurrency@@UAEXXZ 1002cf1c f   libconcrt:InternalContextBase.obj
 0001:0002bfd7       ?SwapScheduleGroupSegment@InternalContextBase@details@Concurrency@@QAEXPAVScheduleGroupSegmentBase@23@_N@Z 1002cfd7 f   libconcrt:InternalContextBase.obj
 0001:0002c022       ?SwitchOut@InternalContextBase@details@Concurrency@@IAE_NW4ReasonForSwitch@123@@Z 1002d022 f   libconcrt:InternalContextBase.obj
 0001:0002c141       ?SwitchTo@InternalContextBase@details@Concurrency@@IAEXPAV123@W4ReasonForSwitch@123@@Z 1002d141 f   libconcrt:InternalContextBase.obj
 0001:0002c27a       ?Unblock@InternalContextBase@details@Concurrency@@UAEXXZ 1002d27a f   libconcrt:InternalContextBase.obj
 0001:0002c339       ?WaitForWork@InternalContextBase@details@Concurrency@@IAEXXZ 1002d339 f   libconcrt:InternalContextBase.obj
 0001:0002c435       ?WorkWasFound@InternalContextBase@details@Concurrency@@IAE_NPAVWorkItem@23@@Z 1002d435 f   libconcrt:InternalContextBase.obj
 0001:0002c491       ?Yield@InternalContextBase@details@Concurrency@@UAEXXZ 1002d491 f   libconcrt:InternalContextBase.obj
 0001:0002c615       ??0SchedulingRing@details@Concurrency@@QAE@PAVSchedulerBase@12@H@Z 1002d615 f   libconcrt:SchedulingRing.obj
 0001:0002c69e       ??1?$ListArray@VScheduleGroupSegmentBase@details@Concurrency@@@details@Concurrency@@QAE@XZ 1002d69e f i libconcrt:SchedulingRing.obj
 0001:0002c715       ??1SchedulingRing@details@Concurrency@@QAE@XZ 1002d715 f   libconcrt:SchedulingRing.obj
 0001:0002c72d       ?Activate@SchedulingRing@details@Concurrency@@QAEXXZ 1002d72d f   libconcrt:SchedulingRing.obj
 0001:0002c739       ?CheckForDeletion@?$ListArray@VScheduleGroupSegmentBase@details@Concurrency@@@details@Concurrency@@AAEXXZ 1002d739 f i libconcrt:SchedulingRing.obj
 0001:0002c75f       ?CheckForDeletionBridge@?$ListArray@VScheduleGroupSegmentBase@details@Concurrency@@@details@Concurrency@@CAXPAV123@@Z 1002d75f f i libconcrt:SchedulingRing.obj
 0001:0002c76b       ?DeleteElements@?$ListArray@VScheduleGroupSegmentBase@details@Concurrency@@@details@Concurrency@@AAEXPAU_SINGLE_LIST_ENTRY@@@Z 1002d76b f i libconcrt:SchedulingRing.obj
 0001:0002c78c       ?Remove@?$ListArray@VScheduleGroupSegmentBase@details@Concurrency@@@details@Concurrency@@QAE_NPAVScheduleGroupSegmentBase@23@H_N@Z 1002d78c f i libconcrt:SchedulingRing.obj
 0001:0002c88e       ?RemoveScheduleGroupSegment@SchedulingRing@details@Concurrency@@AAEXPAVScheduleGroupSegmentBase@23@@Z 1002d88e f   libconcrt:SchedulingRing.obj
 0001:0002c8b7       ??0?$Mailbox@V_UnrealizedChore@details@Concurrency@@@details@Concurrency@@QAE@PAVSchedulerBase@12@ABVQuickBitSet@12@_NI@Z 1002d8b7 f i libconcrt:ScheduleGroupBase.obj
 0001:0002c92e       ??0ScheduleGroupBase@details@Concurrency@@QAE@PAVSchedulerBase@12@PAVlocation@2@@Z 1002d92e f   libconcrt:ScheduleGroupBase.obj
 0001:0002c987       ??0ScheduleGroupSegmentBase@details@Concurrency@@IAE@PAVScheduleGroupBase@12@PAVSchedulingRing@12@PAVlocation@2@@Z 1002d987 f   libconcrt:ScheduleGroupBase.obj
 0001:0002ca47       ??0Segment@?$Mailbox@V_UnrealizedChore@details@Concurrency@@@details@Concurrency@@QAE@PAVSchedulerBase@23@ABVQuickBitSet@23@II@Z 1002da47 f i libconcrt:ScheduleGroupBase.obj
 0001:0002cab3       ??1?$ListArray@U?$ListArrayInlineLink@VWorkQueue@details@Concurrency@@@details@Concurrency@@@details@Concurrency@@QAE@XZ 1002dab3 f i libconcrt:ScheduleGroupBase.obj
 0001:0002cb2d       ??1?$ListArray@VWorkQueue@details@Concurrency@@@details@Concurrency@@QAE@XZ 1002db2d f i libconcrt:ScheduleGroupBase.obj
 0001:0002cba9       ??1?$Mailbox@V_UnrealizedChore@details@Concurrency@@@details@Concurrency@@QAE@XZ 1002dba9 f i libconcrt:ScheduleGroupBase.obj
 0001:0002cc0f       ??1ScheduleGroupSegmentBase@details@Concurrency@@UAE@XZ 1002dc0f f   libconcrt:ScheduleGroupBase.obj
 0001:0002cc5d       ??4QuickBitSet@details@Concurrency@@QAEAAV012@$$QAV012@@Z 1002dc5d f i libconcrt:ScheduleGroupBase.obj
 0001:0002cc87       ??_EScheduleGroupSegmentBase@details@Concurrency@@UAEPAXI@Z 1002dc87 f i libconcrt:ScheduleGroupBase.obj
 0001:0002cc87       ??_GScheduleGroupSegmentBase@details@Concurrency@@UAEPAXI@Z 1002dc87 f i libconcrt:ScheduleGroupBase.obj
 0001:0002ccac       ?Add@?$ListArray@U?$ListArrayInlineLink@VWorkQueue@details@Concurrency@@@details@Concurrency@@@details@Concurrency@@QAEHPAU?$ListArrayInlineLink@VWorkQueue@details@Concurrency@@@23@@Z 1002dcac f i libconcrt:ScheduleGroupBase.obj
 0001:0002ce0e       ?Add@?$ListArray@VExternalStatistics@details@Concurrency@@@details@Concurrency@@QAEHPAVExternalStatistics@23@@Z 1002de0e f i libconcrt:ScheduleGroupBase.obj
 0001:0002cf70       ?Add@?$ListArray@VScheduleGroupSegmentBase@details@Concurrency@@@details@Concurrency@@QAEHPAVScheduleGroupSegmentBase@23@@Z 1002df70 f i libconcrt:ScheduleGroupBase.obj
 0001:0002d0d6       ?AddRunnableContext@ScheduleGroupSegmentBase@details@Concurrency@@IAEXPAVInternalContextBase@23@Vlocation@3@@Z 1002e0d6 f   libconcrt:ScheduleGroupBase.obj
 0001:0002d1ba       ?CheckForDeletion@?$ListArray@U?$ListArrayInlineLink@VWorkQueue@details@Concurrency@@@details@Concurrency@@@details@Concurrency@@AAEXXZ 1002e1ba f i libconcrt:ScheduleGroupBase.obj
 0001:0002d1e0       ?CheckForDeletionBridge@?$ListArray@U?$ListArrayInlineLink@VWorkQueue@details@Concurrency@@@details@Concurrency@@@details@Concurrency@@CAXPAV123@@Z 1002e1e0 f i libconcrt:ScheduleGroupBase.obj
 0001:0002d1ec       ?ClearQuickCacheSlotIf@SchedulerBase@details@Concurrency@@QAEXIPAVScheduleGroupSegmentBase@23@@Z 1002e1ec f i libconcrt:ScheduleGroupBase.obj
 0001:0002d211       ?CreateSegment@ScheduleGroupBase@details@Concurrency@@IAEPAVScheduleGroupSegmentBase@23@PAVlocation@3@PAVSchedulingRing@23@@Z 1002e211 f   libconcrt:ScheduleGroupBase.obj
 0001:0002d2c0       ?DeleteElements@?$ListArray@U?$ListArrayInlineLink@VWorkQueue@details@Concurrency@@@details@Concurrency@@@details@Concurrency@@AAEXPAU_SINGLE_LIST_ENTRY@@@Z 1002e2c0 f i libconcrt:ScheduleGroupBase.obj
 0001:0002d2e1       ?DemandInitialize@?$Mailbox@V_UnrealizedChore@details@Concurrency@@@details@Concurrency@@AAEXXZ 1002e2e1 f i libconcrt:ScheduleGroupBase.obj
 0001:0002d357       ?Dequeue@?$Mailbox@V_UnrealizedChore@details@Concurrency@@@details@Concurrency@@QAE_NPAPAV_UnrealizedChore@23@@Z 1002e357 f i libconcrt:ScheduleGroupBase.obj
 0001:0002d41b       ?Dequeue@?$SafeSQueue@VRealizedChore@details@Concurrency@@V_HyperNonReentrantLock@23@@details@Concurrency@@QAEPAVRealizedChore@23@XZ 1002e41b f i libconcrt:ScheduleGroupBase.obj
 0001:0002d44f       ?DetachActiveWorkQueue@ScheduleGroupSegmentBase@details@Concurrency@@IAEXPAVWorkQueue@23@@Z 1002e44f f   libconcrt:ScheduleGroupBase.obj
 0001:0002d48e       ?Enqueue@?$SafeSQueue@VRealizedChore@details@Concurrency@@V_HyperNonReentrantLock@23@@details@Concurrency@@QAEXPAVRealizedChore@23@@Z 1002e48e f i libconcrt:ScheduleGroupBase.obj
 0001:0002d4c9       ?FindSegment@ScheduleGroupBase@details@Concurrency@@MAEPAVScheduleGroupSegmentBase@23@PAVlocation@3@PAVSchedulingRing@23@@Z 1002e4c9 f   libconcrt:ScheduleGroupBase.obj
 0001:0002d51f       ?GetDetachedWorkQueue@ScheduleGroupSegmentBase@details@Concurrency@@IAEPAVWorkQueue@23@XZ 1002e51f f   libconcrt:ScheduleGroupBase.obj
 0001:0002d586       ?GetInternalContext@ScheduleGroupSegmentBase@details@Concurrency@@IAEPAVInternalContextBase@23@PAU_Chore@23@_N@Z 1002e586 f   libconcrt:ScheduleGroupBase.obj
 0001:0002d5b9       ?GetRealizedChore@ScheduleGroupSegmentBase@details@Concurrency@@IAEPAVRealizedChore@23@XZ 1002e5b9 f   libconcrt:ScheduleGroupBase.obj
 0001:0002d5c9       ?Grow@?$Mailbox@V_UnrealizedChore@details@Concurrency@@@details@Concurrency@@AAEPAUSegment@123@PAU4123@@Z 1002e5c9 f i libconcrt:ScheduleGroupBase.obj
 0001:0002d613       ?HasRealizedChores@ScheduleGroupSegmentBase@details@Concurrency@@IBE_NXZ 1002e613 f   libconcrt:ScheduleGroupBase.obj
 0001:0002d61b       ?HasUnrealizedChores@ScheduleGroupSegmentBase@details@Concurrency@@IAE_NXZ 1002e61b f   libconcrt:ScheduleGroupBase.obj
 0001:0002d627       ?Initialize@?$Mailbox@V_UnrealizedChore@details@Concurrency@@@details@Concurrency@@QAEXABVQuickBitSet@23@@Z 1002e627 f i libconcrt:ScheduleGroupBase.obj
 0001:0002d650       ?Initialize@ScheduleGroupBase@details@Concurrency@@QAEXPAVlocation@3@@Z 1002e650 f   libconcrt:ScheduleGroupBase.obj
 0001:0002d663       ?Initialize@ScheduleGroupSegmentBase@details@Concurrency@@IAEXPAVScheduleGroupBase@23@PAVSchedulingRing@23@PAVlocation@3@@Z 1002e663 f   libconcrt:ScheduleGroupBase.obj
 0001:0002d6e7       ?IsEmpty@WorkQueue@details@Concurrency@@QBE_NXZ 1002e6e7 f i libconcrt:ScheduleGroupBase.obj
 0001:0002d6fd       ?LocateMailboxSegment@?$Mailbox@V_UnrealizedChore@details@Concurrency@@@details@Concurrency@@AAEPAUSegment@123@I_N@Z 1002e6fd f i libconcrt:ScheduleGroupBase.obj
 0001:0002d747       ?LocateSegment@ScheduleGroupBase@details@Concurrency@@UAEPAVScheduleGroupSegmentBase@23@PAVlocation@3@_N@Z 1002e747 f   libconcrt:ScheduleGroupBase.obj
 0001:0002d82a       ?LocateUnrealizedChores@ScheduleGroupSegmentBase@details@Concurrency@@IAEPAVWorkQueue@23@XZ 1002e82a f   libconcrt:ScheduleGroupBase.obj
 0001:0002d883       ?MarkDetachment@?$WorkStealingQueue@V_UnrealizedChore@details@Concurrency@@V_CriticalNonReentrantLock@23@@details@Concurrency@@QAEXXZ 1002e883 f i libconcrt:ScheduleGroupBase.obj
 0001:0002d8b6       ?RedetachQueue@ScheduleGroupSegmentBase@details@Concurrency@@QAEXPAVWorkQueue@23@@Z 1002e8b6 f   libconcrt:ScheduleGroupBase.obj
 0001:0002d8cf       ?ReleaseInternalContext@ScheduleGroupSegmentBase@details@Concurrency@@IAEXPAVInternalContextBase@23@@Z 1002e8cf f   libconcrt:ScheduleGroupBase.obj
 0001:0002d8f5       ?Remove@?$ListArray@U?$ListArrayInlineLink@VWorkQueue@details@Concurrency@@@details@Concurrency@@@details@Concurrency@@QAE_NPAU?$ListArrayInlineLink@VWorkQueue@details@Concurrency@@@23@H_N@Z 1002e8f5 f i libconcrt:ScheduleGroupBase.obj
 0001:0002d9f2       ?Remove@ScheduleGroupSegmentBase@details@Concurrency@@IAEXXZ 1002e9f2 f   libconcrt:ScheduleGroupBase.obj
 0001:0002da15       ?RemoveSegments@ScheduleGroupBase@details@Concurrency@@MAEXXZ 1002ea15 f   libconcrt:ScheduleGroupBase.obj
 0001:0002da54       ?RetireDetachedQueue@ScheduleGroupSegmentBase@details@Concurrency@@QAEXPAVWorkQueue@23@@Z 1002ea54 f   libconcrt:ScheduleGroupBase.obj
 0001:0002da7b       ?SafelyDeleteDetachedWorkQueue@ScheduleGroupSegmentBase@details@Concurrency@@IAE_NPAVWorkQueue@23@@Z 1002ea7b f   libconcrt:ScheduleGroupBase.obj
 0001:0002dabd       ?ScheduleTask@ScheduleGroupBase@details@Concurrency@@QAEXP6AXPAX@Z0AAVlocation@3@@Z 1002eabd f   libconcrt:ScheduleGroupBase.obj
 0001:0002daec       ?ScheduleTask@ScheduleGroupBase@details@Concurrency@@UAEXP6AXPAX@Z0@Z 1002eaec f   libconcrt:ScheduleGroupBase.obj
 0001:0002db13       ?ScheduleTask@ScheduleGroupSegmentBase@details@Concurrency@@QAEXP6AXPAX@Z0@Z 1002eb13 f   libconcrt:ScheduleGroupBase.obj
 0001:0002dc47       ?SetDeletionReferences@Segment@?$Mailbox@V_UnrealizedChore@details@Concurrency@@@details@Concurrency@@QAEXI@Z 1002ec47 f i libconcrt:ScheduleGroupBase.obj
 0001:0002dc6d       ?StealUnrealizedChore@ScheduleGroupSegmentBase@details@Concurrency@@IAEPAV_UnrealizedChore@23@_N@Z 1002ec6d f   libconcrt:ScheduleGroupBase.obj
 0001:0002de1e       ??IQuickBitSet@details@Concurrency@@QBE?AV012@ABV012@@Z 1002ee1e f i libconcrt:CacheLocalScheduleGroup.obj
 0001:0002de70       ?AddToRunnablesCollection@FairScheduleGroupSegment@details@Concurrency@@EAEXPAVInternalContextBase@23@@Z 1002ee70 f   libconcrt:FairScheduleGroup.obj
 0001:0002de70       ?AddToRunnablesCollection@CacheLocalScheduleGroupSegment@details@Concurrency@@EAEXPAVInternalContextBase@23@@Z 1002ee70 f   libconcrt:CacheLocalScheduleGroup.obj
 0001:0002de7f       ?Enqueue@?$Mailbox@V_UnrealizedChore@details@Concurrency@@@details@Concurrency@@QAE?AVSlot@123@PAV_UnrealizedChore@23@@Z 1002ee7f f i libconcrt:CacheLocalScheduleGroup.obj
 0001:0002ded0       ?Enqueue@?$SafeSQueue@VInternalContextBase@details@Concurrency@@V_HyperNonReentrantLock@23@@details@Concurrency@@QAEXPAVInternalContextBase@23@@Z 1002eed0 f i libconcrt:CacheLocalScheduleGroup.obj
 0001:0002df0e       ?InterlockedSet@QuickBitSet@details@Concurrency@@QAEXABV123@@Z 1002ef0e f i libconcrt:CacheLocalScheduleGroup.obj
 0001:0002df46       ?MailChore@CacheLocalScheduleGroup@details@Concurrency@@UAE?AVSlot@?$Mailbox@V_UnrealizedChore@details@Concurrency@@@23@PAV_UnrealizedChore@23@PAVlocation@3@PAPAVScheduleGroupSegmentBase@23@@Z 1002ef46 f   libconcrt:CacheLocalScheduleGroup.obj
 0001:0002df7d       ?MailChore@CacheLocalScheduleGroupSegment@details@Concurrency@@QAE?AVSlot@?$Mailbox@V_UnrealizedChore@details@Concurrency@@@23@PAV_UnrealizedChore@23@@Z 1002ef7d f   libconcrt:CacheLocalScheduleGroup.obj
 0001:0002df95       ?NotifyAffinitizedWork@CacheLocalScheduleGroupSegment@details@Concurrency@@UAEXXZ 1002ef95 f   libconcrt:CacheLocalScheduleGroup.obj
 0001:0002dfc8       ?PostAffinityMessage@SchedulerBase@details@Concurrency@@QAEXABVQuickBitSet@23@@Z 1002efc8 f i libconcrt:CacheLocalScheduleGroup.obj
 0001:0002e008       ?SetQuickCacheSlot@SchedulerBase@details@Concurrency@@QAEXIPAVScheduleGroupSegmentBase@23@@Z 1002f008 f i libconcrt:CacheLocalScheduleGroup.obj
 0001:0002e02e       ?FindSegment@FairScheduleGroup@details@Concurrency@@MAEPAVScheduleGroupSegmentBase@23@PAVlocation@3@PAVSchedulingRing@23@@Z 1002f02e f   libconcrt:FairScheduleGroup.obj
 0001:0002e05f       ?LocateSegment@FairScheduleGroup@details@Concurrency@@UAEPAVScheduleGroupSegmentBase@23@PAVlocation@3@_N@Z 1002f05f f   libconcrt:FairScheduleGroup.obj
 0001:0002e0ca       ??0ExternalContextBase@details@Concurrency@@QAE@PAVSchedulerBase@12@_N@Z 1002f0ca f   libconcrt:ExternalContextBase.obj
 0001:0002e163       ??1ExternalContextBase@details@Concurrency@@UAE@XZ 1002f163 f   libconcrt:ExternalContextBase.obj
 0001:0002e1aa       ??_GExternalContextBase@details@Concurrency@@UAEPAXI@Z 1002f1aa f i libconcrt:ExternalContextBase.obj
 0001:0002e1aa       ??_EExternalContextBase@details@Concurrency@@UAEPAXI@Z 1002f1aa f i libconcrt:ExternalContextBase.obj
 0001:0002e1cf       ?Alloc@ExternalContextBase@details@Concurrency@@UAEPAXI@Z 1002f1cf f   libconcrt:ExternalContextBase.obj
 0001:0002e1f0       ?Block@ExternalContextBase@details@Concurrency@@UAEXXZ 1002f1f0 f   libconcrt:ExternalContextBase.obj
 0001:0002e239       ?Cleanup@ExternalContextBase@details@Concurrency@@AAEXXZ 1002f239 f   libconcrt:ExternalContextBase.obj
 0001:0002e291       ?Free@ExternalContextBase@details@Concurrency@@UAEXPAX@Z 1002f291 f   libconcrt:ExternalContextBase.obj
 0001:0002e2b6       ?GetCurrentSubAllocator@ExternalContextBase@details@Concurrency@@QAEPAVSubAllocator@23@XZ 1002f2b6 f i libconcrt:ExternalContextBase.obj
 0001:0002e2d8       ?GetVirtualProcessorId@ExternalContextBase@details@Concurrency@@UBEIXZ 1002f2d8 f i libconcrt:ExternalContextBase.obj
 0001:0002e2d8       ?underflow@?$basic_streambuf@DU?$char_traits@D@std@@@std@@MAEHXZ 1002f2d8 f i libcpmt:cout.obj
 0001:0002e2dc       ?ImplicitDetachHandler@ExternalContextBase@details@Concurrency@@CGXPAU_TP_CALLBACK_INSTANCE@@PAXPAU_TP_WAIT@@K@Z 1002f2dc f   libconcrt:ExternalContextBase.obj
 0001:0002e2fe       ?ImplicitDetachHandlerXP@ExternalContextBase@details@Concurrency@@CGXPAXE@Z 1002f2fe f   libconcrt:ExternalContextBase.obj
 0001:0002e321       ?IsSynchronouslyBlocked@ExternalContextBase@details@Concurrency@@UBE_NXZ 1002f321 f i libconcrt:ExternalContextBase.obj
 0001:0002e32d       ?Oversubscribe@ExternalContextBase@details@Concurrency@@UAEX_N@Z 1002f32d f   libconcrt:ExternalContextBase.obj
 0001:0002e366       ?PrepareForUse@ExternalContextBase@details@Concurrency@@QAEX_N@Z 1002f366 f   libconcrt:ExternalContextBase.obj
 0001:0002e42d       ?RemoveFromUse@ExternalContextBase@details@Concurrency@@QAEXXZ 1002f42d f   libconcrt:ExternalContextBase.obj
 0001:0002e44f       ?SpinYield@ExternalContextBase@details@Concurrency@@UAEXXZ 1002f44f f i libconcrt:ExternalContextBase.obj
 0001:0002e466       ?Unblock@ExternalContextBase@details@Concurrency@@UAEXXZ 1002f466 f   libconcrt:ExternalContextBase.obj
 0001:0002e4e8       ?Yield@ExternalContextBase@details@Concurrency@@UAEXXZ 1002f4e8 f   libconcrt:ExternalContextBase.obj
 0001:0002e517       ??0ThreadInternalContext@details@Concurrency@@QAE@PAVSchedulerBase@12@@Z 1002f517 f i libconcrt:ThreadScheduler.obj
 0001:0002e53f       ??0ThreadScheduler@details@Concurrency@@QAE@ABVSchedulerPolicy@2@@Z 1002f53f f   libconcrt:ThreadScheduler.obj
 0001:0002e572       ??1ThreadScheduler@details@Concurrency@@UAE@XZ 1002f572 f   libconcrt:ThreadScheduler.obj
 0001:0002e586       ??_EThreadInternalContext@details@Concurrency@@W3AEPAXI@Z 1002f586 f i libconcrt:ThreadScheduler.obj
 0001:0002e58e       ??_EThreadScheduler@details@Concurrency@@W7AEPAXI@Z 1002f58e f i libconcrt:ThreadScheduler.obj
 0001:0002e596       ??_EThreadInternalContext@details@Concurrency@@UAEPAXI@Z 1002f596 f i libconcrt:ThreadScheduler.obj
 0001:0002e596       ??_GThreadInternalContext@details@Concurrency@@UAEPAXI@Z 1002f596 f i libconcrt:ThreadScheduler.obj
 0001:0002e5c8       ??_GThreadScheduler@details@Concurrency@@UAEPAXI@Z 1002f5c8 f i libconcrt:ThreadScheduler.obj
 0001:0002e5c8       ??_EThreadScheduler@details@Concurrency@@UAEPAXI@Z 1002f5c8 f i libconcrt:ThreadScheduler.obj
 0001:0002e5ed       ?AddVirtualProcessors@ThreadScheduler@details@Concurrency@@UAEXPAPAUIVirtualProcessorRoot@3@I@Z 1002f5ed f i libconcrt:ThreadScheduler.obj
 0001:0002e5f9       ?Create@ThreadScheduler@details@Concurrency@@SAPAV123@ABVSchedulerPolicy@3@@Z 1002f5f9 f   libconcrt:ThreadScheduler.obj
 0001:0002e62c       ?CreateInternalContext@ThreadScheduler@details@Concurrency@@MAEPAVInternalContextBase@23@XZ 1002f62c f   libconcrt:ThreadScheduler.obj
 0001:0002e66a       ?CreateVirtualProcessor@ThreadScheduler@details@Concurrency@@UAEPAVVirtualProcessor@23@PAVSchedulingNode@23@PAUIVirtualProcessorRoot@3@@Z 1002f66a f   libconcrt:ThreadScheduler.obj
 0001:0002e6a2       ?do_encoding@codecvt_base@std@@MBEHXZ 1002f6a2 f i libcpmt:cout.obj
 0001:0002e6a2       __get_startup_argv_mode    1002f6a2 f i LIBCMT:argv_mode.obj
 0001:0002e6a2       ?GetContextKind@ThreadInternalContext@details@Concurrency@@UBE?AW4ContextKind@ContextBase@23@XZ 1002f6a2 f i libconcrt:ThreadScheduler.obj
 0001:0002e6a2       ?do_max_length@codecvt_base@std@@MBEHXZ 1002f6a2 f i libcpmt:cout.obj
 0001:0002e6a6       ?GetIScheduler@ThreadScheduler@details@Concurrency@@UAEPAUIScheduler@3@XZ 1002f6a6 f i libconcrt:ThreadScheduler.obj
 0001:0002e6aa       ?GetId@ThreadScheduler@details@Concurrency@@UBEIXZ 1002f6aa f i libconcrt:ThreadScheduler.obj
 0001:0002e6c2       ?GetPolicy@ThreadScheduler@details@Concurrency@@UBE?AVSchedulerPolicy@3@XZ 1002f6c2 f i libconcrt:ThreadScheduler.obj
 0001:0002e6de       ?GetPolicy@ThreadScheduler@details@Concurrency@@W7BE?AVSchedulerPolicy@3@XZ 1002f6de f i libconcrt:ThreadScheduler.obj
 0001:0002e6e6       ?RemoveVirtualProcessors@ThreadScheduler@details@Concurrency@@UAEXPAPAUIVirtualProcessorRoot@3@I@Z 1002f6e6 f i libconcrt:ThreadScheduler.obj
 0001:0002e6f2       ?Statistics@ThreadScheduler@details@Concurrency@@UAEXPAI00@Z 1002f6f2 f i libconcrt:ThreadScheduler.obj
 0001:0002e6fe       ?OneShotStaticConstruction@UMSThreadScheduler@details@Concurrency@@SAXXZ 1002f6fe f   libconcrt:UMSThreadScheduler.obj
 0001:0002e744       ?OneShotStaticDestruction@UMSThreadScheduler@details@Concurrency@@SAXXZ 1002f744 f   libconcrt:UMSThreadScheduler.obj
 0001:0002e758       ??0exception_ptr@std@@QAE@ABV01@@Z 1002f758 f i libconcrt:TaskCollectionBase.obj
 0001:0002e770       ?_Current_exception@exception_ptr@std@@SA?AV12@XZ 1002f770 f i libconcrt:TaskCollectionBase.obj
 0001:0002e78a       ?_FinishCancelState@_TaskCollectionBase@details@Concurrency@@IAEXI@Z 1002f78a f   libconcrt:TaskCollectionBase.obj
 0001:0002e7b0       ?_GetTokenState@_TaskCollectionBase@details@Concurrency@@QAEPAV_CancellationTokenState@23@PAPAV_CancellationTokenRegistration@23@@Z 1002f7b0 f   libconcrt:TaskCollectionBase.obj
 0001:0002e7d8       ?_MarkCancellation@_TaskCollectionBase@details@Concurrency@@IAE_NXZ 1002f7d8 f   libconcrt:TaskCollectionBase.obj
 0001:0002e800       ?_RaisedException@_TaskCollectionBase@details@Concurrency@@IAEXXZ 1002f800 f   libconcrt:TaskCollectionBase.obj
 0001:0002e85e       ?_RethrowException@_TaskCollectionBase@details@Concurrency@@IAEXXZ 1002f85e f   libconcrt:TaskCollectionBase.obj
 0001:0002e8c8       ?_RethrowException@exception_ptr@std@@QBEXXZ 1002f8c8 f i libconcrt:TaskCollectionBase.obj
 0001:0002e8cf       ?current_exception@std@@YA?AVexception_ptr@1@XZ 1002f8cf f i libconcrt:TaskCollectionBase.obj
 0001:0002e8e0       ?rethrow_exception@std@@YAXVexception_ptr@1@@Z 1002f8e0 f i libconcrt:TaskCollectionBase.obj
 0001:0002e8f9       ??0?$StructuredWorkStealingQueue@V_UnrealizedChore@details@Concurrency@@V_CriticalNonReentrantLock@23@@details@Concurrency@@QAE@PAV_CriticalNonReentrantLock@12@@Z 1002f8f9 f i libconcrt:WorkQueue.obj
 0001:0002e8f9       ??0?$StructuredWorkStealingQueue@VInternalContextBase@details@Concurrency@@V_HyperNonReentrantLock@23@@details@Concurrency@@QAE@PAV_HyperNonReentrantLock@12@@Z 1002f8f9 f i libconcrt:VirtualProcessor.obj
 0001:0002e969       ??0?$WorkStealingQueue@V_UnrealizedChore@details@Concurrency@@V_CriticalNonReentrantLock@23@@details@Concurrency@@QAE@PAV_CriticalNonReentrantLock@12@@Z 1002f969 f i libconcrt:WorkQueue.obj
 0001:0002e9d2       ??0WorkQueue@details@Concurrency@@QAE@XZ 1002f9d2 f   libconcrt:WorkQueue.obj
 0001:0002ea1c       ?DeferToAffineSearchers@Slot@?$Mailbox@VInternalContextBase@details@Concurrency@@@details@Concurrency@@QBE_NXZ 1002fa1c f i libconcrt:SchedulingNode.obj
 0001:0002ea1c       ?DeferToAffineSearchers@Slot@?$Mailbox@V_UnrealizedChore@details@Concurrency@@@details@Concurrency@@QBE_NXZ 1002fa1c f i libconcrt:WorkQueue.obj
 0001:0002ea72       ?RedetachFromScheduleGroupAtSafePoint@WorkQueue@details@Concurrency@@QAEXPAVScheduleGroupSegmentBase@23@@Z 1002fa72 f   libconcrt:WorkQueue.obj
 0001:0002ea96       ?Reinitialize@WorkQueue@details@Concurrency@@AAEXXZ 1002fa96 f   libconcrt:WorkQueue.obj
 0001:0002ead0       ?RetireAtSafePoint@WorkQueue@details@Concurrency@@QAEXPAVScheduleGroupSegmentBase@23@@Z 1002fad0 f   libconcrt:WorkQueue.obj
 0001:0002eaf4       ?StaticRedetachFromScheduleGroup@WorkQueue@details@Concurrency@@CAXPAV123@@Z 1002faf4 f   libconcrt:WorkQueue.obj
 0001:0002eb05       ?StaticRetire@WorkQueue@details@Concurrency@@CAXPAV123@@Z 1002fb05 f   libconcrt:WorkQueue.obj
 0001:0002eb16       ?Steal@WorkQueue@details@Concurrency@@QAEPAV_UnrealizedChore@23@_N@Z 1002fb16 f   libconcrt:WorkQueue.obj
 0001:0002eb59       ?Sweep@?$WorkStealingQueue@V_UnrealizedChore@details@Concurrency@@V_CriticalNonReentrantLock@23@@details@Concurrency@@QAEXP6A_NPAV_UnrealizedChore@23@PAX@Z12@Z 1002fb59 f i libconcrt:WorkQueue.obj
 0001:0002ec0b       ?SweepUnstructured@WorkQueue@details@Concurrency@@QAEXP6A_NPAV_UnrealizedChore@23@PAX@Z12@Z 1002fc0b f   libconcrt:WorkQueue.obj
 0001:0002ec17       ?TryToSteal@WorkQueue@details@Concurrency@@QAEPAV_UnrealizedChore@23@_NAA_N@Z 1002fc17 f   libconcrt:WorkQueue.obj
 0001:0002ec7d       ?UnlockedSteal@?$StructuredWorkStealingQueue@V_UnrealizedChore@details@Concurrency@@V_CriticalNonReentrantLock@23@@details@Concurrency@@QAEPAV_UnrealizedChore@23@_N@Z 1002fc7d f i libconcrt:WorkQueue.obj
 0001:0002ecfb       ?UnlockedSteal@?$WorkStealingQueue@V_UnrealizedChore@details@Concurrency@@V_CriticalNonReentrantLock@23@@details@Concurrency@@QAEPAV_UnrealizedChore@23@_N0@Z 1002fcfb f i libconcrt:WorkQueue.obj
 0001:0002ed89       ?UnlockedSteal@WorkQueue@details@Concurrency@@AAEPAV_UnrealizedChore@23@_N@Z 1002fd89 f   libconcrt:WorkQueue.obj
 0001:0002ee4c       ?_CancelViaToken@_UnrealizedChore@details@Concurrency@@CAXPAVContextBase@23@@Z 1002fe4c f   libconcrt:Chores.obj
 0001:0002ee73       ?_InternalFree@_UnrealizedChore@details@Concurrency@@CAXPAV123@@Z 1002fe73 f   libconcrt:Chores.obj
 0001:0002ee90       ?_PrepareSteal@_UnrealizedChore@details@Concurrency@@QAEXPAVContextBase@23@@Z 1002fe90 f   libconcrt:Chores.obj
 0001:0002eea8       ?_PrepareStealStructured@_UnrealizedChore@details@Concurrency@@AAEXPAVContextBase@23@@Z 1002fea8 f   libconcrt:Chores.obj
 0001:0002eee0       ?_PrepareStealUnstructured@_UnrealizedChore@details@Concurrency@@AAEXPAVContextBase@23@@Z 1002fee0 f   libconcrt:Chores.obj
 0001:0002ef4c       ?_SetDetached@_UnrealizedChore@details@Concurrency@@QAEX_N@Z 1002ff4c f   libconcrt:Chores.obj
 0001:0002ef59       ?_StructuredChoreWrapper@_UnrealizedChore@details@Concurrency@@CAXPAV123@@Z 1002ff59 f   libconcrt:Chores.obj
 0001:0002f0a3       ??0VirtualProcessorRoot@details@Concurrency@@QAE@PAVSchedulerProxy@12@PAUSchedulerNode@12@I@Z 100300a3 f   libconcrt:VirtualProcessorRoot.obj
 0001:0002f0ef       ??_EVirtualProcessorRoot@details@Concurrency@@UAEPAXI@Z 100300ef f i libconcrt:VirtualProcessorRoot.obj
 0001:0002f0ef       ??_GVirtualProcessorRoot@details@Concurrency@@UAEPAXI@Z 100300ef f i libconcrt:VirtualProcessorRoot.obj
 0001:0002f119       ?CurrentSubscriptionLevel@VirtualProcessorRoot@details@Concurrency@@UBEIXZ 10030119 f i libconcrt:VirtualProcessorRoot.obj
 0001:0002f121       ?GetExecutionResourceId@VirtualProcessorRoot@details@Concurrency@@UBEIXZ 10030121 f i libconcrt:VirtualProcessorRoot.obj
 0001:0002f125       ?GetId@VirtualProcessorRoot@details@Concurrency@@UBEIXZ 10030125 f i libconcrt:VirtualProcessorRoot.obj
 0001:0002f129       ?Remove@VirtualProcessorRoot@details@Concurrency@@UAEXPAUIScheduler@3@@Z 10030129 f   libconcrt:VirtualProcessorRoot.obj
 0001:0002f183       ?ResetSubscriptionLevel@VirtualProcessorRoot@details@Concurrency@@QAEXXZ 10030183 f   libconcrt:VirtualProcessorRoot.obj
 0001:0002f19b       ?Subscribe@VirtualProcessorRoot@details@Concurrency@@QAEXXZ 1003019b f   libconcrt:VirtualProcessorRoot.obj
 0001:0002f1a8       ?Unsubscribe@VirtualProcessorRoot@details@Concurrency@@QAEXXZ 100301a8 f   libconcrt:VirtualProcessorRoot.obj
 0001:0002f1b5       ??0FreeVirtualProcessorRoot@details@Concurrency@@QAE@PAVSchedulerProxy@12@PAUSchedulerNode@12@I@Z 100301b5 f   libconcrt:FreeVirtualProcessorRoot.obj
 0001:0002f1ea       ??8HardwareAffinity@details@Concurrency@@QAE_NABU012@@Z 100301ea f i libconcrt:FreeVirtualProcessorRoot.obj
 0001:0002f20b       ??_GFreeVirtualProcessorRoot@details@Concurrency@@UAEPAXI@Z 1003020b f i libconcrt:FreeVirtualProcessorRoot.obj
 0001:0002f20b       ??_EFreeVirtualProcessorRoot@details@Concurrency@@UAEPAXI@Z 1003020b f i libconcrt:FreeVirtualProcessorRoot.obj
 0001:0002f235       ?AcquireActivatedContext@VirtualProcessorRoot@details@Concurrency@@QAEPAUIExecutionContext@3@XZ 10030235 f i libconcrt:FreeVirtualProcessorRoot.obj
 0001:0002f266       ?Activate@FreeVirtualProcessorRoot@details@Concurrency@@UAEXPAUIExecutionContext@3@@Z 10030266 f   libconcrt:FreeVirtualProcessorRoot.obj
 0001:0002f328       ?Affinitize@FreeVirtualProcessorRoot@details@Concurrency@@QAEXPAVFreeThreadProxy@23@@Z 10030328 f   libconcrt:FreeVirtualProcessorRoot.obj
 0001:0002f390       ?Deactivate@FreeVirtualProcessorRoot@details@Concurrency@@UAE_NPAUIExecutionContext@3@@Z 10030390 f   libconcrt:FreeVirtualProcessorRoot.obj
 0001:0002f434       ?DeleteThis@FreeVirtualProcessorRoot@details@Concurrency@@UAEXXZ 10030434 f   libconcrt:FreeVirtualProcessorRoot.obj
 0001:0002f481       ?EnsureAllTasksVisible@FreeVirtualProcessorRoot@details@Concurrency@@UAEXPAUIExecutionContext@3@@Z 10030481 f   libconcrt:FreeVirtualProcessorRoot.obj
 0001:0002f502       ?ResetOnIdle@FreeVirtualProcessorRoot@details@Concurrency@@QAEXW4SwitchingProxyState@3@@Z 10030502 f   libconcrt:FreeVirtualProcessorRoot.obj
 0001:0002f56d       ?SetAffinity@FreeThreadProxy@details@Concurrency@@QAEXUHardwareAffinity@23@@Z 1003056d f i libconcrt:FreeVirtualProcessorRoot.obj
 0001:0002f5a3       ?SpinUntilIdle@FreeVirtualProcessorRoot@details@Concurrency@@IAEXXZ 100305a3 f i libconcrt:FreeVirtualProcessorRoot.obj
 0001:0002f5d3       ?AssociateExecutionContext@FreeThreadProxy@details@Concurrency@@QAEXPAUIExecutionContext@3@@Z 100305d3 f   libconcrt:FreeThreadProxy.obj
 0001:0002f5f5       ?Dispatch@FreeThreadProxy@details@Concurrency@@EAEXXZ 100305f5 f   libconcrt:FreeThreadProxy.obj
 0001:0002f696       ?ReturnIdleProxy@FreeThreadProxy@details@Concurrency@@QAEXXZ 10030696 f   libconcrt:FreeThreadProxy.obj
 0001:0002f6b3       ?SwitchOut@FreeThreadProxy@details@Concurrency@@UAEXW4SwitchingProxyState@3@@Z 100306b3 f   libconcrt:FreeThreadProxy.obj
 0001:0002f70a       ?SwitchTo@FreeThreadProxy@details@Concurrency@@UAEXPAUIExecutionContext@3@W4SwitchingProxyState@3@@Z 1003070a f   libconcrt:FreeThreadProxy.obj
 0001:0002f7bf       ??0ThreadProxy@details@Concurrency@@QAE@PAUIThreadProxyFactory@12@I@Z 100307bf f   libconcrt:ThreadProxy.obj
 0001:0002f894       ??0scheduler_worker_creation_error@Concurrency@@QAE@ABV01@@Z 10030894 f i libconcrt:ThreadProxy.obj
 0001:0002f8af       ??1ThreadProxy@details@Concurrency@@UAE@XZ 100308af f   libconcrt:ThreadProxy.obj
 0001:0002f911       ??_EThreadProxy@details@Concurrency@@UAEPAXI@Z 10030911 f i libconcrt:ThreadProxy.obj
 0001:0002f911       ??_GThreadProxy@details@Concurrency@@UAEPAXI@Z 10030911 f i libconcrt:ThreadProxy.obj
 0001:0002f933       ?Cancel@ThreadProxy@details@Concurrency@@QAEXXZ 10030933 f   libconcrt:ThreadProxy.obj
 0001:0002f944       ?GetId@ThreadProxy@details@Concurrency@@UBEIXZ 10030944 f   libconcrt:ThreadProxy.obj
 0001:0002f948       ?ResumeExecution@ThreadProxy@details@Concurrency@@QAEXXZ 10030948 f   libconcrt:ThreadProxy.obj
 0001:0002f952       ?SetPriority@ThreadProxy@details@Concurrency@@QAEXH@Z 10030952 f   libconcrt:ThreadProxy.obj
 0001:0002f96a       ?SpinUntilBlocked@ThreadProxy@details@Concurrency@@QAEXXZ 1003096a f   libconcrt:ThreadProxy.obj
 0001:0002f997       ?SuspendExecution@ThreadProxy@details@Concurrency@@QAEXXZ 10030997 f   libconcrt:ThreadProxy.obj
 0001:0002f9b3       ?ThreadProxyMain@ThreadProxy@details@Concurrency@@CGKPAX@Z 100309b3 f   libconcrt:ThreadProxy.obj
 0001:0002fa01       ??0location@Concurrency@@QAE@W4_Type@01@IIPAX@Z 10030a01 f   libconcrt:location.obj
 0001:0002fa26       ?ContainsResourceId@SchedulingNode@details@Concurrency@@QAE_NI@Z 10030a26 f i libconcrt:location.obj
 0001:0002fa51       ?_FastNodeIntersects@location@Concurrency@@QBE_NABV12@@Z 10030a51 f   libconcrt:location.obj
 0001:0002fa9c       ?_FastVPIntersects@location@Concurrency@@QBE_NABV12@@Z 10030a9c f   libconcrt:location.obj
 0001:0002fae8       ??0WorkItem@details@Concurrency@@QAE@PAVInternalContextBase@12@@Z 10030ae8 f   libconcrt:SearchAlgorithms.obj
 0001:0002fb0e       ?AcquireQuickCacheSlot@SchedulerBase@details@Concurrency@@QAEPAVScheduleGroupSegmentBase@23@I@Z 10030b0e f i libconcrt:SearchAlgorithms.obj
 0001:0002fb2c       ?ActualGetQuickCacheSlot@SchedulerBase@details@Concurrency@@AAEPAVScheduleGroupSegmentBase@23@I@Z 10030b2c f i libconcrt:SearchAlgorithms.obj
 0001:0002fb5f       ?Bind@WorkItem@details@Concurrency@@QAEPAVInternalContextBase@23@XZ 10030b5f f   libconcrt:SearchAlgorithms.obj
 0001:0002fbac       ?BindTo@WorkItem@details@Concurrency@@QAEXPAVInternalContextBase@23@@Z 10030bac f   libconcrt:SearchAlgorithms.obj
 0001:0002fbe6       ?CheckPriorityList@WorkSearchContext@details@Concurrency@@AAE_N_K@Z 10030be6 f i libconcrt:SearchAlgorithms.obj
 0001:0002fc1e       ?GetLocalRunnable@WorkSearchContext@details@Concurrency@@AAE_NPAVWorkItem@23@PAVVirtualProcessor@23@_N@Z 10030c1e f   libconcrt:SearchAlgorithms.obj
 0001:0002fcb7       ?GetNextSchedulingNode@SchedulerBase@details@Concurrency@@QAEPAVSchedulingNode@23@PAHH@Z 10030cb7 f i libconcrt:SearchAlgorithms.obj
 0001:0002fd06       ?GetPseudoRRAffineScheduleGroupSegment@SchedulingRing@details@Concurrency@@QAEPAVScheduleGroupSegmentBase@23@PAH@Z 10030d06 f i libconcrt:SearchAlgorithms.obj
 0001:0002fd41       ?GetPseudoRRNonAffineScheduleGroupSegment@SchedulingRing@details@Concurrency@@QAEPAVScheduleGroupSegmentBase@23@PAH@Z 10030d41 f i libconcrt:SearchAlgorithms.obj
 0001:0002fd7f       ?GetRealizedChore@WorkSearchContext@details@Concurrency@@AAE_NPAVWorkItem@23@PAVScheduleGroupSegmentBase@23@_N@Z 10030d7f f   libconcrt:SearchAlgorithms.obj
 0001:0002fdd1       ?GetRealizedChoreWithinGroup@WorkSearchContext@details@Concurrency@@AAE_NPAVWorkItem@23@PAVScheduleGroupSegmentBase@23@_NW4SearchAffinity@123@2@Z 10030dd1 f   libconcrt:SearchAlgorithms.obj
 0001:0002fe52       ?GetRunnableContext@WorkSearchContext@details@Concurrency@@AAE_NPAVWorkItem@23@PAVScheduleGroupSegmentBase@23@@Z 10030e52 f   libconcrt:SearchAlgorithms.obj
 0001:0002fe90       ?GetRunnableContextWithinGroup@WorkSearchContext@details@Concurrency@@AAE_NPAVWorkItem@23@PAVScheduleGroupSegmentBase@23@W4SearchAffinity@123@_N@Z 10030e90 f   libconcrt:SearchAlgorithms.obj
 0001:0002ff0b       ?GetUnrealizedChore@WorkSearchContext@details@Concurrency@@AAE_NPAVWorkItem@23@PAVScheduleGroupSegmentBase@23@_N2@Z 10030f0b f   libconcrt:SearchAlgorithms.obj
 0001:0002ff60       ?GetUnrealizedChoreWithinGroup@WorkSearchContext@details@Concurrency@@AAE_NPAVWorkItem@23@PAVScheduleGroupSegmentBase@23@_NW4SearchAffinity@123@2@Z 10030f60 f   libconcrt:SearchAlgorithms.obj
 0001:0002fff0       ?Invoke@WorkItem@details@Concurrency@@QAEXXZ 10030ff0 f   libconcrt:SearchAlgorithms.obj
 0001:00030032       ?PeriodicScan@SchedulerBase@details@Concurrency@@QAEX_K@Z 10031032 f i libconcrt:SearchAlgorithms.obj
 0001:0003006d       ?PreSearch@WorkSearchContext@details@Concurrency@@AAE_NPAVWorkItem@23@@Z 1003106d f   libconcrt:SearchAlgorithms.obj
 0001:000300aa       ?QuickSearch@WorkSearchContext@details@Concurrency@@AAE_NPAVScheduleGroupSegmentBase@23@PAVWorkItem@23@_NK@Z 100310aa f   libconcrt:SearchAlgorithms.obj
 0001:00030117       ?QuickSearchYield@WorkSearchContext@details@Concurrency@@AAE_NPAVScheduleGroupSegmentBase@23@PAVWorkItem@23@_NK@Z 10031117 f   libconcrt:SearchAlgorithms.obj
 0001:00030185       ?Reset@WorkSearchContext@details@Concurrency@@QAEXPAVVirtualProcessor@23@W4Algorithm@123@@Z 10031185 f   libconcrt:SearchAlgorithms.obj
 0001:000301df       ?ResolveToken@WorkItem@details@Concurrency@@QAE_NXZ 100311df f   libconcrt:SearchAlgorithms.obj
 0001:0003025f       ?SearchCacheLocal@WorkSearchContext@details@Concurrency@@AAE_NPAVWorkItem@23@PAVScheduleGroupSegmentBase@23@_NK@Z 1003125f f   libconcrt:SearchAlgorithms.obj
 0001:0003052b       ?SearchCacheLocalYield@WorkSearchContext@details@Concurrency@@AAE_NPAVWorkItem@23@PAVScheduleGroupSegmentBase@23@_NK@Z 1003152b f   libconcrt:SearchAlgorithms.obj
 0001:000307ae       ?SearchCacheLocal_Realized@WorkSearchContext@details@Concurrency@@AAE_NPAVWorkItem@23@PAVSchedulingRing@23@PAVScheduleGroupSegmentBase@23@_NW4SearchAffinity@123@K3@Z 100317ae f   libconcrt:SearchAlgorithms.obj
 0001:000308ab       ?SearchCacheLocal_Runnables@WorkSearchContext@details@Concurrency@@AAE_NPAVWorkItem@23@PAVSchedulingRing@23@PAVScheduleGroupSegmentBase@23@_NW4SearchAffinity@123@K3@Z 100318ab f   libconcrt:SearchAlgorithms.obj
 0001:000309b6       ?SearchCacheLocal_Unrealized@WorkSearchContext@details@Concurrency@@AAE_NPAVWorkItem@23@PAVSchedulingRing@23@PAVScheduleGroupSegmentBase@23@_NW4SearchAffinity@123@K3@Z 100319b6 f   libconcrt:SearchAlgorithms.obj
 0001:00030ab6       ?SearchFair@WorkSearchContext@details@Concurrency@@AAE_NPAVWorkItem@23@PAVScheduleGroupSegmentBase@23@_NK@Z 10031ab6 f   libconcrt:SearchAlgorithms.obj
 0001:00030bcb       ?SearchFairYield@WorkSearchContext@details@Concurrency@@AAE_NPAVWorkItem@23@PAVScheduleGroupSegmentBase@23@_NK@Z 10031bcb f   libconcrt:SearchAlgorithms.obj
 0001:00030cdb       ?SearchFair_Realized@WorkSearchContext@details@Concurrency@@AAE_NPAVWorkItem@23@PAVSchedulingRing@23@_N@Z 10031cdb f   libconcrt:SearchAlgorithms.obj
 0001:00030d71       ?SearchFair_Runnables@WorkSearchContext@details@Concurrency@@AAE_NPAVWorkItem@23@PAVSchedulingRing@23@@Z 10031d71 f   libconcrt:SearchAlgorithms.obj
 0001:00030df3       ?SearchFair_Unrealized@WorkSearchContext@details@Concurrency@@AAE_NPAVWorkItem@23@PAVSchedulingRing@23@_N@Z 10031df3 f   libconcrt:SearchAlgorithms.obj
 0001:00030e8d       ?ServiceMark@ScheduleGroupSegmentBase@details@Concurrency@@QAEX_K@Z 10031e8d f i libconcrt:SearchAlgorithms.obj
 0001:00030eb3       ?ServiceMark@VirtualProcessor@details@Concurrency@@QAEX_K@Z 10031eb3 f i libconcrt:SearchAlgorithms.obj
 0001:00030ed9       ?SkipSegmentSearch@WorkSearchContext@details@Concurrency@@AAE_NPAVScheduleGroupSegmentBase@23@0W4SearchAffinity@123@_N@Z 10031ed9 f   libconcrt:SearchAlgorithms.obj
 0001:00030f65       ?StealForeignLocalRunnable@WorkSearchContext@details@Concurrency@@AAE_NPAVWorkItem@23@PAVSchedulingNode@23@@Z 10031f65 f   libconcrt:SearchAlgorithms.obj
 0001:00030fa9       ?StealLocalRunnable@WorkSearchContext@details@Concurrency@@AAE_NPAVWorkItem@23@PAVSchedulingNode@23@PAVVirtualProcessor@23@@Z 10031fa9 f   libconcrt:SearchAlgorithms.obj
 0001:0003101a       ?StealLocalRunnableContext@VirtualProcessor@details@Concurrency@@AAEPAVInternalContextBase@23@XZ 1003201a f i libconcrt:SearchAlgorithms.obj
 0001:00031031       ?TransferReferences@WorkItem@details@Concurrency@@QAEXPAVInternalContextBase@23@@Z 10032031 f   libconcrt:SearchAlgorithms.obj
 0001:00031086       ?Invoke@RealizedChore@details@Concurrency@@QAEXXZ 10032086 f   libconcrt:RealizedChore.obj
 0001:00031099       ??0ThreadVirtualProcessor@details@Concurrency@@QAE@PAVSchedulingNode@12@PAUIVirtualProcessorRoot@2@@Z 10032099 f   libconcrt:ThreadVirtualProcessor.obj
 0001:000310d0       ??_GThreadVirtualProcessor@details@Concurrency@@UAEPAXI@Z 100320d0 f i libconcrt:ThreadVirtualProcessor.obj
 0001:000310d0       ??_EThreadVirtualProcessor@details@Concurrency@@UAEPAXI@Z 100320d0 f i libconcrt:ThreadVirtualProcessor.obj
 0001:00031100       _memmove                   10032100 f   libvcruntime:memmove.obj
 0001:00031674       __get_purecall_handler     10032674 f   libvcruntime:purevirt.obj
 0001:00031693       __purecall                 10032693 f   libvcruntime:purevirt.obj
 0001:000316b0       _memchr                    100326b0 f   libvcruntime:memchr.obj
 0001:0003175d       ___std_exception_copy      1003275d f   libvcruntime:std_exception.obj
 0001:000317c0       ___std_exception_destroy   100327c0 f   libvcruntime:std_exception.obj
 0001:000317df       __CxxThrowException@8      100327df f   libvcruntime:throw.obj
 0001:0003184d       ?_CallCatchBlock2@@YAPAXPAUEHRegistrationNode@@PBU_s_FuncInfo@@PAXHK@Z 1003284d f   libvcruntime:trnsctrl.obj
 0001:000318ad       ?_CallSETranslator@@YAHPAUEHExceptionRecord@@PAUEHRegistrationNode@@PAX2PBU_s_FuncInfo@@H1@Z 100328ad f   libvcruntime:trnsctrl.obj
 0001:0003198a       ?_GetRangeOfTrysToCheck@@YAPBU_s_TryBlockMapEntry@@PBU_s_FuncInfo@@HHPAI1@Z 1003298a f   libvcruntime:trnsctrl.obj
 0001:00031a02       ?_JumpToContinuation@@YGXPAXPAUEHRegistrationNode@@@Z 10032a02 f   libvcruntime:trnsctrl.obj
 0001:00031a34       ?_UnwindNestedFrames@@YGXPAUEHRegistrationNode@@PAUEHExceptionRecord@@@Z 10032a34 f   libvcruntime:trnsctrl.obj
 0001:00031a89       __CatchGuardHandler        10032a89 f   libvcruntime:trnsctrl.obj
 0001:00031aba       __CreateFrameInfo          10032aba f   libvcruntime:trnsctrl.obj
 0001:00031ade       __FindAndUnlinkFrame       10032ade f   libvcruntime:trnsctrl.obj
 0001:00031b28       __IsExceptionObjectToBeDestroyed 10032b28 f   libvcruntime:trnsctrl.obj
 0001:00031b4e       __TranslatorGuardHandler   10032b4e f   libvcruntime:trnsctrl.obj
 0001:00031bed       ___CxxFrameHandler3        10032bed f   libvcruntime:trnsctrl.obj
 0001:00031c30       _memcpy                    10032c30 f   libvcruntime:memcpy.obj
 0001:000321a4       ___DestructExceptionObject 100331a4 f   libvcruntime:frame.obj
 0001:00032238       ??0bad_exception@std@@QAE@ABV01@@Z 10033238 f i libvcruntime:frame.obj
 0001:00032253       ??0bad_exception@std@@QAE@XZ 10033253 f i libvcruntime:frame.obj
 0001:00032a84       ?_CallMemberFunction0@@YGXQAX0@Z 10033a84 f i libvcruntime:frame.obj
 0001:00032a84       ?_CallMemberFunction1@@YGXQAX00@Z 10033a84 f i libvcruntime:frame.obj
 0001:00032a84       ?_CallMemberFunction2@@YGXQAX00H@Z 10033a84 f i libvcruntime:frame.obj
 0001:00032a8b       ___AdjustPointer           10033a8b f   libvcruntime:frame.obj
 0001:00032ab0       ___BuildCatchObject        10033ab0 f   libvcruntime:frame.obj
 0001:00032b3f       ___BuildCatchObjectHelper  10033b3f f   libvcruntime:frame.obj
 0001:00032c6d       ___FrameUnwindFilter       10033c6d f   libvcruntime:frame.obj
 0001:00032cb2       ___FrameUnwindToState      10033cb2 f   libvcruntime:frame.obj
 0001:00032d7a       ___InternalCxxFrameHandler 10033d7a f   libvcruntime:frame.obj
 0001:00032e76       ___TypeMatch               10033e76 f   libvcruntime:frame.obj
 0001:00032f04       ___current_exception       10033f04 f   libvcruntime:frame.obj
 0001:00032f0d       ___processing_throw        10033f0d f   libvcruntime:frame.obj
 0001:00032f16       ___std_terminate           10033f16 f   libvcruntime:frame.obj
 0001:00032f1b       ___uncaught_exception      10033f1b f   libvcruntime:frame.obj
 0001:00032f30       _memset                    10033f30 f   libvcruntime:memset.obj
 0001:0003308a       _memcmp                    1003408a f   libvcruntime:_memcmp_.obj
 0001:0003480a       ___vcrt_initialize         1003580a f   libvcruntime:initialization.obj
 0001:00034833       ___vcrt_thread_attach      10035833 f   libvcruntime:initialization.obj
 0001:0003483e       ___vcrt_thread_detach      1003583e f   libvcruntime:initialization.obj
 0001:00034849       ___vcrt_uninitialize       10035849 f   libvcruntime:initialization.obj
 0001:00034868       ___vcrt_uninitialize_critical 10035868 f   libvcruntime:initialization.obj
 0001:000348b0       __except_handler4          100358b0 f   libvcruntime:_chandler4_.obj
 0001:00034a16       ??$__crt_fast_encode_pointer@PAP6AXXZ@@YAPAP6AXXZQAP6AXXZ@Z 10035a16 f i LIBCMT:utility.obj
 0001:00034a16       ??$__crt_fast_encode_pointer@P6GHPAU_RTL_CONDITION_VARIABLE@@PAU_RTL_CRITICAL_SECTION@@K@Z@@YAP6GHPAU_RTL_CONDITION_VARIABLE@@PAU_RTL_CRITICAL_SECTION@@K@ZQ6GH01K@Z@Z 10035a16 f i LIBCMT:thread_safe_statics.obj
 0001:00034a16       ??$__crt_fast_encode_pointer@P6GXPAU_RTL_CONDITION_VARIABLE@@@Z@@YAP6GXPAU_RTL_CONDITION_VARIABLE@@@ZQ6GX0@Z@Z 10035a16 f i LIBCMT:thread_safe_statics.obj
 0001:00034a16       ??$__crt_fast_encode_pointer@PAX@@YAPAXQAX@Z 10035a16 f i libvcruntime:winapi_downlevel.obj
 0001:00034b54       ___vcrt_FlsAlloc           10035b54 f   libvcruntime:winapi_downlevel.obj
 0001:00034b8e       ___vcrt_FlsFree            10035b8e f   libvcruntime:winapi_downlevel.obj
 0001:00034bc8       ___vcrt_FlsGetValue        10035bc8 f   libvcruntime:winapi_downlevel.obj
 0001:00034c02       ___vcrt_FlsSetValue        10035c02 f   libvcruntime:winapi_downlevel.obj
 0001:00034c3f       ___vcrt_InitializeCriticalSectionEx 10035c3f f   libvcruntime:winapi_downlevel.obj
 0001:00034c85       ___vcrt_initialize_winapi_thunks 10035c85 f   libvcruntime:winapi_downlevel.obj
 0001:00034cbf       ___vcrt_uninitialize_winapi_thunks 10035cbf f   libvcruntime:winapi_downlevel.obj
 0001:00034cf1       ___std_type_info_compare   10035cf1 f   libvcruntime:std_type_info.obj
 0001:00034d2d       ___std_type_info_destroy_list 10035d2d f   libvcruntime:std_type_info.obj
 0001:00034d50       ??0__non_rtti_object@std@@QAE@ABV01@@Z 10035d50 f i libvcruntime:rtti.obj
 0001:00034d6b       ??0bad_typeid@std@@QAE@ABV01@@Z 10035d6b f i libvcruntime:rtti.obj
 0001:00034d86       ??1context_self_unblock@Concurrency@@UAE@XZ 10035d86 f i libconcrt:Exceptions.obj
 0001:00034d86       ??1improper_scheduler_reference@Concurrency@@UAE@XZ 10035d86 f i libconcrt:Exceptions.obj
 0001:00034d86       ??1invalid_argument@std@@UAE@XZ 10035d86 f i libcpmt:xthrow.obj
 0001:00034d86       ??1context_unblock_unbalanced@Concurrency@@UAE@XZ 10035d86 f i libconcrt:Exceptions.obj
 0001:00034d86       ??1improper_lock@Concurrency@@UAE@XZ 10035d86 f i libconcrt:rtlocks.obj
 0001:00034d86       ??1unsupported_os@Concurrency@@UAE@XZ 10035d86 f i libconcrt:Exceptions.obj
 0001:00034d86       ??1improper_scheduler_attach@Concurrency@@UAE@XZ 10035d86 f i libconcrt:Exceptions.obj
 0001:00034d86       ??1_Interruption_exception@details@Concurrency@@UAE@XZ 10035d86 f i libconcrt:TaskCollection.obj
 0001:00034d86       ??1scheduler_resource_allocation_error@Concurrency@@UAE@XZ 10035d86 f i libconcrt:Platform.obj
 0001:00034d86       ??1bad_exception@std@@UAE@XZ 10035d86 f i libvcruntime:frame.obj
 0001:00034d86       ??1out_of_range@std@@UAE@XZ 10035d86 f i libcpmt:xthrow.obj
 0001:00034d86       ??1invalid_operation@Concurrency@@UAE@XZ 10035d86 f i libconcrt:ResourceManager.obj
 0001:00034d86       ??1scheduler_worker_creation_error@Concurrency@@UAE@XZ 10035d86 f i libconcrt:Exceptions.obj
 0001:00034d86       ??1bad_cast@std@@UAE@XZ    10035d86 f i libcpmt:cout.obj
 0001:00034d86       ??1invalid_scheduler_policy_value@Concurrency@@UAE@XZ 10035d86 f i libconcrt:Exceptions.obj
 0001:00034d86       ??1nested_scheduler_missing_detach@Concurrency@@UAE@XZ 10035d86 f i libconcrt:Exceptions.obj
 0001:00034d86       ??1bad_function_call@std@@UAE@XZ 10035d86 f i libcpmt:xthrow.obj
 0001:00034d86       ??1length_error@std@@UAE@XZ 10035d86 f i libcpmt:xthrow.obj
 0001:00034d86       ??1bad_array_new_length@std@@UAE@XZ 10035d86 f i LIBCMT:throw_bad_alloc.obj
 0001:00034d86       ??1__non_rtti_object@std@@UAE@XZ 10035d86 f i libvcruntime:rtti.obj
 0001:00034d86       ??1missing_wait@Concurrency@@UAE@XZ 10035d86 f i libconcrt:Exceptions.obj
 0001:00034d86       ??1invalid_oversubscribe_operation@Concurrency@@UAE@XZ 10035d86 f i libconcrt:Exceptions.obj
 0001:00034d86       ??1bad_alloc@std@@UAE@XZ   10035d86 f i libcpmt:xthrow.obj
 0001:00034d86       ??1invalid_scheduler_policy_key@Concurrency@@UAE@XZ 10035d86 f i libconcrt:Exceptions.obj
 0001:00034d86       ??1invalid_scheduler_policy_thread_specification@Concurrency@@UAE@XZ 10035d86 f i libconcrt:Exceptions.obj
 0001:0003519f       ?__construct_from_string_literal@__non_rtti_object@std@@SA?AV12@QBD@Z 1003619f f i libvcruntime:rtti.obj
 0001:000351bb       ?__construct_from_string_literal@bad_cast@std@@SA?AV12@QBD@Z 100361bb f i libvcruntime:rtti.obj
 0001:000351d7       ___RTDynamicCast           100361d7 f   libvcruntime:rtti.obj
 0001:000352b9       ___vcrt_initialize_pure_virtual_call_handler 100362b9 f   libvcruntime:purevirt_data.obj
 0001:000352d6       ___vcrt_freefls@4          100362d6 f   libvcruntime:per_thread_data.obj
 0001:000352f2       ___vcrt_freeptd            100362f2 f   libvcruntime:per_thread_data.obj
 0001:00035328       ___vcrt_getptd             10036328 f   libvcruntime:per_thread_data.obj
 0001:00035336       ___vcrt_getptd_noexit      10036336 f   libvcruntime:per_thread_data.obj
 0001:000353c8       ___vcrt_initialize_ptd     100363c8 f   libvcruntime:per_thread_data.obj
 0001:000353fb       ___vcrt_uninitialize_ptd   100363fb f   libvcruntime:per_thread_data.obj
 0001:00035420       __CallSettingFrame@12      10036420 f   libvcruntime:lowhelpr.obj
 0001:00035447       __NLG_Return               10036447     libvcruntime:lowhelpr.obj
 0001:0003546c       _unexpected                1003646c f   libvcruntime:unexpected.obj
 0001:00035488       ___vcrt_initialize_locks   10036488 f   libvcruntime:locks.obj
 0001:000354c4       ___vcrt_uninitialize_locks 100364c4 f   libvcruntime:locks.obj
 0001:00035500       __local_unwind4            10036500 f   libvcruntime:_exsup4_.obj
 0001:000355d6       __seh_longjmp_unwind4@4    100365d6 f   libvcruntime:_exsup4_.obj
 0001:000355fe       @_EH4_CallFilterFunc@8     100365fe f   libvcruntime:_exsup4_.obj
 0001:00035615       @_EH4_TransferToHandler@8  10036615 f   libvcruntime:_exsup4_.obj
 0001:0003562e       @_EH4_GlobalUnwind2@8      1003662e f   libvcruntime:_exsup4_.obj
 0001:00035647       @_EH4_LocalUnwind@16       10036647 f   libvcruntime:_exsup4_.obj
 0001:00035660       __global_unwind2           10036660 f   libvcruntime:_exsup_.obj
 0001:000356c5       __local_unwind2            100366c5 f   libvcruntime:_exsup_.obj
 0001:00035749       __abnormal_termination     10036749 f   libvcruntime:_exsup_.obj
 0001:0003576c       __NLG_Notify1              1003676c f   libvcruntime:_exsup_.obj
 0001:00035775       __NLG_Notify               10036775 f   libvcruntime:_exsup_.obj
 0001:0003578c       __NLG_Dispatch2            1003678c     libvcruntime:_exsup_.obj
 0001:0003578c       __NLG_Dispatch             1003678c     libvcruntime:_exsup_.obj
 0001:00035794       __NLG_Call                 10036794 f   libvcruntime:_exsup_.obj
 0001:00035796       __NLG_Return2              10036796     libvcruntime:_exsup_.obj
 0001:00035797       ??0_LocaleUpdate@@QAE@QAU__crt_locale_pointers@@@Z 10036797 f i libucrt:_ctype.obj
 0001:0003581a       __chvalidchk_l             1003681a f i libucrt:_ctype.obj
 0001:00035844       __isalnum_l                10036844 f i libucrt:_ctype.obj
 0001:0003587f       __ischartype_l             1003687f f i libucrt:_ctype.obj
 0001:000358b2       __isdigit_l                100368b2 f i libucrt:_ctype.obj
 0001:000358ea       __islower_l                100368ea f i libucrt:_ctype.obj
 0001:00035922       __isupper_l                10036922 f i libucrt:_ctype.obj
 0001:0003595a       _isalnum                   1003695a f i libucrt:_ctype.obj
 0001:00035989       _isdigit                   10036989 f i libucrt:_ctype.obj
 0001:000359b6       _islower                   100369b6 f i libucrt:_ctype.obj
 0001:000359e3       _isupper                   100369e3 f i libucrt:_ctype.obj
 0001:00035a10       ___acrt_call_reportfault   10036a10 f   libucrt:invalid_parameter.obj
 0001:00035b4b       ___acrt_initialize_invalid_parameter_handler 10036b4b f   libucrt:invalid_parameter.obj
 0001:00035b5f       __invalid_parameter        10036b5f f   libucrt:invalid_parameter.obj
 0001:00035bda       __invalid_parameter_noinfo 10036bda f   libucrt:invalid_parameter.obj
 0001:00035bea       __invalid_parameter_noinfo_noreturn 10036bea f   libucrt:invalid_parameter.obj
 0001:00035c07       __invoke_watson            10036c07 f   libucrt:invalid_parameter.obj
 0001:00035c3a       ___acrt_errno_from_os_error 10036c3a f   libucrt:errno.obj
 0001:00035c7d       ___acrt_errno_map_os_error 10036c7d f   libucrt:errno.obj
 0001:00035ca0       ___doserrno                10036ca0 f   libucrt:errno.obj
 0001:00035cb3       __errno                    10036cb3 f   libucrt:errno.obj
 0001:00035cc6       ??$is_overflow_condition@K@__crt_strtox@@YA_NIK@Z 10036cc6 f i libucrt:strtox.obj
 0001:00035cf9       ??$parse_integer@KV?$c_string_character_source@D@__crt_strtox@@@__crt_strtox@@YAKQAU__crt_locale_pointers@@V?$c_string_character_source@D@0@H_N@Z 10036cf9 f i libucrt:strtox.obj
 0001:00035f21       ??$parse_integer@KV?$c_string_character_source@_W@__crt_strtox@@@__crt_strtox@@YAKQAU__crt_locale_pointers@@V?$c_string_character_source@_W@0@H_N@Z 10036f21 f i libucrt:strtox.obj
 0001:00036606       ?unget@?$c_string_character_source@D@__crt_strtox@@QAEXD@Z 10037606 f i libucrt:strtox.obj
 0001:0003662e       ?unget@?$c_string_character_source@_W@__crt_strtox@@QAEX_W@Z 1003762e f i libucrt:strtox.obj
 0001:0003665a       _strtol                    1003765a f   libucrt:strtox.obj
 0001:00036686       _rand                      10037686 f   libucrt:rand.obj
 0001:000366b0       _strncmp                   100376b0 f   libucrt:strncmp.obj
 0001:00036728       ??$make_c_string_character_source@DPAPAD@__crt_strtox@@YA?AV?$c_string_character_source@D@0@QBDQAPAD@Z 10037728 f i libucrt:strtox.obj
 0001:00036728       ??$make_c_string_character_source@D$$T@__crt_strtox@@YA?AV?$c_string_character_source@D@0@QBD$$T@Z 10037728 f i libucrt:atox.obj
 0001:00036728       ??$make_c_string_character_source@_W$$T@__crt_strtox@@YA?AV?$c_string_character_source@_W@0@QB_W$$T@Z 10037728 f i libucrt:atox.obj
 0001:00036743       __wtol                     10037743 f   libucrt:atox.obj
 0001:0003676d       _atoi                      1003776d f   libucrt:atox.obj
 0001:00036797       _abort                     10037797 f   libucrt:abort.obj
 0001:000367da       _calloc                    100377da f   libucrt:calloc.obj
 0001:000367f0       _strcspn                   100377f0 f   libucrt:strcspn.obj
 0001:00036ba6       ??$count@D@formatting_buffer@__crt_stdio_output@@QBEIXZ 10037ba6 f i libucrt:output.obj
 0001:00036bbe       ??$ensure_buffer_is_big_enough@D@formatting_buffer@__crt_stdio_output@@QAE_NI@Z 10037bbe f i libucrt:output.obj
 0001:00036c44       ??$is_wide_character_specifier@D@__crt_stdio_output@@YA_N_KDW4length_modifier@0@@Z 10037c44 f i libucrt:output.obj
 0001:00036c84       ??$scratch_data@D@formatting_buffer@__crt_stdio_output@@QAEPADXZ 10037c84 f i libucrt:output.obj
 0001:00036ca2       ??$type_case_integer_parse_into_buffer@I@?$output_processor@DV?$string_output_adapter@D@__crt_stdio_output@@V?$format_validation_base@DV?$string_output_adapter@D@__crt_stdio_output@@@2@@__crt_stdio_output@@AAEXII_N@Z 10037ca2 f i libucrt:output.obj
 0001:00036ca2       ??$type_case_integer_parse_into_buffer@I@?$output_processor@DV?$string_output_adapter@D@__crt_stdio_output@@V?$standard_base@DV?$string_output_adapter@D@__crt_stdio_output@@@2@@__crt_stdio_output@@AAEXII_N@Z 10037ca2 f i libucrt:output.obj
 0001:00036d17       ??$type_case_integer_parse_into_buffer@_K@?$output_processor@DV?$string_output_adapter@D@__crt_stdio_output@@V?$standard_base@DV?$string_output_adapter@D@__crt_stdio_output@@@2@@__crt_stdio_output@@AAEX_KI_N@Z 10037d17 f i libucrt:output.obj
 0001:00036d17       ??$type_case_integer_parse_into_buffer@_K@?$output_processor@DV?$string_output_adapter@D@__crt_stdio_output@@V?$format_validation_base@DV?$string_output_adapter@D@__crt_stdio_output@@@2@@__crt_stdio_output@@AAEX_KI_N@Z 10037d17 f i libucrt:output.obj
 0001:00036d9f       ??$write_multiple_characters@V?$string_output_adapter@D@__crt_stdio_output@@D@__crt_stdio_output@@YAXABV?$string_output_adapter@D@0@DHQAH@Z 10037d9f f i libucrt:output.obj
 0001:00036dcb       ??0?$common_data@D@__crt_stdio_output@@IAE@XZ 10037dcb f i libucrt:output.obj
 0001:00036e12       ??0?$output_adapter_data@DV?$string_output_adapter@D@__crt_stdio_output@@@__crt_stdio_output@@IAE@ABV?$string_output_adapter@D@1@_KQBDQAU__crt_locale_pointers@@QAD@Z 10037e12 f i libucrt:output.obj
 0001:00036e4e       ??0?$output_processor@DV?$string_output_adapter@D@__crt_stdio_output@@V?$format_validation_base@DV?$string_output_adapter@D@__crt_stdio_output@@@2@@__crt_stdio_output@@QAE@ABV?$string_output_adapter@D@1@_KQBDQAU__crt_locale_pointers@@QAD@Z 10037e4e f i libucrt:output.obj
 0001:00036e4e       ??0?$output_processor@DV?$string_output_adapter@D@__crt_stdio_output@@V?$standard_base@DV?$string_output_adapter@D@__crt_stdio_output@@@2@@__crt_stdio_output@@QAE@ABV?$string_output_adapter@D@1@_KQBDQAU__crt_locale_pointers@@QAD@Z 10037e4e f i libucrt:output.obj
 0001:00036e83       ??1formatting_buffer@__crt_stdio_output@@QAE@XZ 10037e83 f i libucrt:output.obj
 0001:00036e9d       ??4?$__crt_unique_heap_ptr@DU__crt_internal_free_policy@@@@QAEAAV0@$$QAV0@@Z 10037e9d f i libucrt:output.obj
 0001:00036ec1       ?crop_zeroes@__crt_stdio_output@@YAXPADQAU__crt_locale_pointers@@@Z 10037ec1 f i libucrt:output.obj
 0001:00036f18       ?find_next_state@?$output_processor@DV?$string_output_adapter@D@__crt_stdio_output@@V?$format_validation_base@DV?$string_output_adapter@D@__crt_stdio_output@@@2@@__crt_stdio_output@@ABE?AW4state@2@DW432@@Z 10037f18 f i libucrt:output.obj
 0001:00036f4d       ?find_next_state@?$output_processor@DV?$string_output_adapter@D@__crt_stdio_output@@V?$standard_base@DV?$string_output_adapter@D@__crt_stdio_output@@@2@@__crt_stdio_output@@ABE?AW4state@2@DW432@@Z 10037f4d f i libucrt:output.obj
 0001:00036f7f       ?force_decimal_point@__crt_stdio_output@@YAXPADQAU__crt_locale_pointers@@@Z 10037f7f f i libucrt:output.obj
 0001:00036fdb       ?parse_int_from_format_string@?$output_processor@DV?$string_output_adapter@D@__crt_stdio_output@@V?$standard_base@DV?$string_output_adapter@D@__crt_stdio_output@@@2@@__crt_stdio_output@@AAE_NQAH@Z 10037fdb f i libucrt:output.obj
 0001:00036fdb       ?parse_int_from_format_string@?$output_processor@DV?$string_output_adapter@D@__crt_stdio_output@@V?$format_validation_base@DV?$string_output_adapter@D@__crt_stdio_output@@@2@@__crt_stdio_output@@AAE_NQAH@Z 10037fdb f i libucrt:output.obj
 0001:00037037       ?process@?$output_processor@DV?$string_output_adapter@D@__crt_stdio_output@@V?$format_validation_base@DV?$string_output_adapter@D@__crt_stdio_output@@@2@@__crt_stdio_output@@QAEHXZ 10038037 f i libucrt:output.obj
 0001:0003715f       ?process@?$output_processor@DV?$string_output_adapter@D@__crt_stdio_output@@V?$standard_base@DV?$string_output_adapter@D@__crt_stdio_output@@@2@@__crt_stdio_output@@QAEHXZ 1003815f f i libucrt:output.obj
 0001:0003727b       ?state_case_flag@?$output_processor@DV?$string_output_adapter@D@__crt_stdio_output@@V?$format_validation_base@DV?$string_output_adapter@D@__crt_stdio_output@@@2@@__crt_stdio_output@@AAE_NXZ 1003827b f i libucrt:output.obj
 0001:0003727b       ?state_case_flag@?$output_processor@DV?$string_output_adapter@D@__crt_stdio_output@@V?$standard_base@DV?$string_output_adapter@D@__crt_stdio_output@@@2@@__crt_stdio_output@@AAE_NXZ 1003827b f i libucrt:output.obj
 0001:000372b8       ?state_case_normal@?$output_processor@DV?$string_output_adapter@D@__crt_stdio_output@@V?$format_validation_base@DV?$string_output_adapter@D@__crt_stdio_output@@@2@@__crt_stdio_output@@AAE_NXZ 100382b8 f i libucrt:output.obj
 0001:000372b8       ?state_case_normal@?$output_processor@DV?$string_output_adapter@D@__crt_stdio_output@@V?$standard_base@DV?$string_output_adapter@D@__crt_stdio_output@@@2@@__crt_stdio_output@@AAE_NXZ 100382b8 f i libucrt:output.obj
 0001:000372d7       ?state_case_normal_common@?$output_processor@DV?$string_output_adapter@D@__crt_stdio_output@@V?$standard_base@DV?$string_output_adapter@D@__crt_stdio_output@@@2@@__crt_stdio_output@@AAE_NXZ 100382d7 f i libucrt:output.obj
 0001:000372d7       ?state_case_normal_common@?$output_processor@DV?$string_output_adapter@D@__crt_stdio_output@@V?$format_validation_base@DV?$string_output_adapter@D@__crt_stdio_output@@@2@@__crt_stdio_output@@AAE_NXZ 100382d7 f i libucrt:output.obj
 0001:00037301       ?state_case_normal_tchar@?$output_processor@DV?$string_output_adapter@D@__crt_stdio_output@@V?$format_validation_base@DV?$string_output_adapter@D@__crt_stdio_output@@@2@@__crt_stdio_output@@AAE_ND@Z 10038301 f i libucrt:output.obj
 0001:00037301       ?state_case_normal_tchar@?$output_processor@DV?$string_output_adapter@D@__crt_stdio_output@@V?$standard_base@DV?$string_output_adapter@D@__crt_stdio_output@@@2@@__crt_stdio_output@@AAE_ND@Z 10038301 f i libucrt:output.obj
 0001:00037362       ?state_case_precision@?$output_processor@DV?$string_output_adapter@D@__crt_stdio_output@@V?$format_validation_base@DV?$string_output_adapter@D@__crt_stdio_output@@@2@@__crt_stdio_output@@AAE_NXZ 10038362 f i libucrt:output.obj
 0001:00037362       ?state_case_precision@?$output_processor@DV?$string_output_adapter@D@__crt_stdio_output@@V?$standard_base@DV?$string_output_adapter@D@__crt_stdio_output@@@2@@__crt_stdio_output@@AAE_NXZ 10038362 f i libucrt:output.obj
 0001:0003738a       ?state_case_size@?$output_processor@DV?$string_output_adapter@D@__crt_stdio_output@@V?$standard_base@DV?$string_output_adapter@D@__crt_stdio_output@@@2@@__crt_stdio_output@@AAE_NXZ 1003838a f i libucrt:output.obj
 0001:0003738a       ?state_case_size@?$output_processor@DV?$string_output_adapter@D@__crt_stdio_output@@V?$format_validation_base@DV?$string_output_adapter@D@__crt_stdio_output@@@2@@__crt_stdio_output@@AAE_NXZ 1003838a f i libucrt:output.obj
 0001:000374f3       ?state_case_type@?$output_processor@DV?$string_output_adapter@D@__crt_stdio_output@@V?$standard_base@DV?$string_output_adapter@D@__crt_stdio_output@@@2@@__crt_stdio_output@@AAE_NXZ 100384f3 f i libucrt:output.obj
 0001:000374f3       ?state_case_type@?$output_processor@DV?$string_output_adapter@D@__crt_stdio_output@@V?$format_validation_base@DV?$string_output_adapter@D@__crt_stdio_output@@@2@@__crt_stdio_output@@AAE_NXZ 100384f3 f i libucrt:output.obj
 0001:00037722       ?state_case_width@?$output_processor@DV?$string_output_adapter@D@__crt_stdio_output@@V?$standard_base@DV?$string_output_adapter@D@__crt_stdio_output@@@2@@__crt_stdio_output@@AAE_NXZ 10038722 f i libucrt:output.obj
 0001:00037722       ?state_case_width@?$output_processor@DV?$string_output_adapter@D@__crt_stdio_output@@V?$format_validation_base@DV?$string_output_adapter@D@__crt_stdio_output@@@2@@__crt_stdio_output@@AAE_NXZ 10038722 f i libucrt:output.obj
 0001:0003774d       ?to_integer_size@__crt_stdio_output@@YAIW4length_modifier@1@@Z 1003874d f i libucrt:output.obj
 0001:000377a9       ?type_case_Z@?$output_processor@DV?$string_output_adapter@D@__crt_stdio_output@@V?$format_validation_base@DV?$string_output_adapter@D@__crt_stdio_output@@@2@@__crt_stdio_output@@AAE_NXZ 100387a9 f i libucrt:output.obj
 0001:000377a9       ?type_case_Z@?$output_processor@DV?$string_output_adapter@D@__crt_stdio_output@@V?$standard_base@DV?$string_output_adapter@D@__crt_stdio_output@@@2@@__crt_stdio_output@@AAE_NXZ 100387a9 f i libucrt:output.obj
 0001:0003780c       ?type_case_a@?$output_processor@DV?$string_output_adapter@D@__crt_stdio_output@@V?$format_validation_base@DV?$string_output_adapter@D@__crt_stdio_output@@@2@@__crt_stdio_output@@AAE_NXZ 1003880c f i libucrt:output.obj
 0001:0003780c       ?type_case_a@?$output_processor@DV?$string_output_adapter@D@__crt_stdio_output@@V?$standard_base@DV?$string_output_adapter@D@__crt_stdio_output@@@2@@__crt_stdio_output@@AAE_NXZ 1003880c f i libucrt:output.obj
 0001:00037966       ?type_case_c_tchar@?$output_processor@DV?$string_output_adapter@D@__crt_stdio_output@@V?$standard_base@DV?$string_output_adapter@D@__crt_stdio_output@@@2@@__crt_stdio_output@@AAE_ND@Z 10038966 f i libucrt:output.obj
 0001:00037966       ?type_case_c_tchar@?$output_processor@DV?$string_output_adapter@D@__crt_stdio_output@@V?$format_validation_base@DV?$string_output_adapter@D@__crt_stdio_output@@@2@@__crt_stdio_output@@AAE_ND@Z 10038966 f i libucrt:output.obj
 0001:000379f6       ?type_case_integer@?$output_processor@DV?$string_output_adapter@D@__crt_stdio_output@@V?$standard_base@DV?$string_output_adapter@D@__crt_stdio_output@@@2@@__crt_stdio_output@@AAE_NI_N@Z 100389f6 f i libucrt:output.obj
 0001:000379f6       ?type_case_integer@?$output_processor@DV?$string_output_adapter@D@__crt_stdio_output@@V?$format_validation_base@DV?$string_output_adapter@D@__crt_stdio_output@@@2@@__crt_stdio_output@@AAE_NI_N@Z 100389f6 f i libucrt:output.obj
 0001:00037b40       ?type_case_n@?$output_processor@DV?$string_output_adapter@D@__crt_stdio_output@@V?$format_validation_base@DV?$string_output_adapter@D@__crt_stdio_output@@@2@@__crt_stdio_output@@AAE_NXZ 10038b40 f i libucrt:output.obj
 0001:00037b40       ?type_case_n@?$output_processor@DV?$string_output_adapter@D@__crt_stdio_output@@V?$standard_base@DV?$string_output_adapter@D@__crt_stdio_output@@@2@@__crt_stdio_output@@AAE_NXZ 10038b40 f i libucrt:output.obj
 0001:00037bb4       ?type_case_o@?$output_processor@DV?$string_output_adapter@D@__crt_stdio_output@@V?$standard_base@DV?$string_output_adapter@D@__crt_stdio_output@@@2@@__crt_stdio_output@@AAE_NXZ 10038bb4 f i libucrt:output.obj
 0001:00037bb4       ?type_case_o@?$output_processor@DV?$string_output_adapter@D@__crt_stdio_output@@V?$format_validation_base@DV?$string_output_adapter@D@__crt_stdio_output@@@2@@__crt_stdio_output@@AAE_NXZ 10038bb4 f i libucrt:output.obj
 0001:00037bd3       ?type_case_p@?$output_processor@DV?$string_output_adapter@D@__crt_stdio_output@@V?$format_validation_base@DV?$string_output_adapter@D@__crt_stdio_output@@@2@@__crt_stdio_output@@AAE_NXZ 10038bd3 f i libucrt:output.obj
 0001:00037bd3       ?type_case_p@?$output_processor@DV?$string_output_adapter@D@__crt_stdio_output@@V?$standard_base@DV?$string_output_adapter@D@__crt_stdio_output@@@2@@__crt_stdio_output@@AAE_NXZ 10038bd3 f i libucrt:output.obj
 0001:00037beb       ?type_case_s@?$output_processor@DV?$string_output_adapter@D@__crt_stdio_output@@V?$standard_base@DV?$string_output_adapter@D@__crt_stdio_output@@@2@@__crt_stdio_output@@AAE_NXZ 10038beb f i libucrt:output.obj
 0001:00037beb       ?type_case_s@?$output_processor@DV?$string_output_adapter@D@__crt_stdio_output@@V?$format_validation_base@DV?$string_output_adapter@D@__crt_stdio_output@@@2@@__crt_stdio_output@@AAE_NXZ 10038beb f i libucrt:output.obj
 0001:00037c5e       ?validate@?$string_output_adapter@D@__crt_stdio_output@@QBE_NXZ 10038c5e f i libucrt:output.obj
 0001:00037c5e       ?validate@?$c_string_character_source@_W@__crt_strtox@@QBE_NXZ 10038c5e f i libucrt:strtox.obj
 0001:00037c5e       ?validate@?$c_string_character_source@D@__crt_strtox@@QBE_NXZ 10038c5e f i libucrt:strtox.obj
 0001:00037c79       ?validate_and_update_state_at_end_of_format_string@?$format_validation_base@DV?$string_output_adapter@D@__crt_stdio_output@@@__crt_stdio_output@@IBE_NXZ 10038c79 f i libucrt:output.obj
 0001:00037c9b       ?write_character@?$string_output_adapter@D@__crt_stdio_output@@QBE_NDQAH@Z 10038c9b f i libucrt:output.obj
 0001:00037cdd       ?write_stored_string_tchar@?$output_processor@DV?$string_output_adapter@D@__crt_stdio_output@@V?$standard_base@DV?$string_output_adapter@D@__crt_stdio_output@@@2@@__crt_stdio_output@@AAE_ND@Z 10038cdd f i libucrt:output.obj
 0001:00037cdd       ?write_stored_string_tchar@?$output_processor@DV?$string_output_adapter@D@__crt_stdio_output@@V?$format_validation_base@DV?$string_output_adapter@D@__crt_stdio_output@@@2@@__crt_stdio_output@@AAE_ND@Z 10038cdd f i libucrt:output.obj
 0001:00037d84       ?write_string@?$string_output_adapter@D@__crt_stdio_output@@QBEXQBDHQAH1@Z 10038d84 f i libucrt:output.obj
 0001:00037e17       ___stdio_common_vsprintf   10038e17 f   libucrt:output.obj
 0001:00037e3b       ___stdio_common_vsprintf_s 10038e3b f   libucrt:output.obj
 0001:00037e5f       _localeconv                10038e5f f   libucrt:localeconv.obj
 0001:00037e89       _free                      10038e89 f   libucrt:free.obj
 0001:00037e8e       _frexp                     10038e8e f   libucrt:frexp.obj
 0001:00037f8a       ___ascii_stricmp           10038f8a f   libucrt:stricmp.obj
 0001:00037fc5       __stricmp                  10038fc5 f   libucrt:stricmp.obj
 0001:0003800d       __stricmp_l                1003900d f   libucrt:stricmp.obj
 0001:000380a7       __calloc_base              100390a7 f   libucrt:calloc_base.obj
 0001:00038104       __free_base                10039104 f   libucrt:free_base.obj
 0001:0003813e       ___acrt_initialize_locks   1003913e f   libucrt:locks.obj
 0001:0003817f       ___acrt_lock               1003917f f   libucrt:locks.obj
 0001:00038196       ___acrt_uninitialize_locks 10039196 f   libucrt:locks.obj
 0001:000381c7       ___acrt_unlock             100391c7 f   libucrt:locks.obj
 0001:000381de       __lock_locales             100391de f   libucrt:locks.obj
 0001:000381e7       __unlock_locales           100391e7 f   libucrt:locks.obj
 0001:000381f0       ___acrt_initialize_stdio   100391f0 f   libucrt:_file.obj
 0001:000382b8       ___acrt_iob_func           100392b8 f   libucrt:_file.obj
 0001:000382c8       ___acrt_uninitialize_stdio 100392c8 f   libucrt:_file.obj
 0001:00038314       __get_stream_buffer_pointers 10039314 f   libucrt:_file.obj
 0001:0003835a       __lock_file                1003935a f   libucrt:_file.obj
 0001:0003836e       __unlock_file              1003936e f   libucrt:_file.obj
 0001:00038382       __fclose_nolock            10039382 f   libucrt:fclose.obj
 0001:000383f8       _fclose                    100393f8 f   libucrt:fclose.obj
 0001:00038478       ___acrt_stdio_flush_nolock 10039478 f   libucrt:fflush.obj
 0001:000384de       __fflush_nolock            100394de f   libucrt:fflush.obj
 0001:00038525       __flushall                 10039525 f   libucrt:fflush.obj
 0001:00038606       _fflush                    10039606 f   libucrt:fflush.obj
 0001:0003865f       __fgetc_nolock             1003965f f   libucrt:fgetc.obj
 0001:0003869b       _fgetc                     1003969b f   libucrt:fgetc.obj
 0001:0003879d       _fgetpos                   1003979d f   libucrt:fgetpos.obj
 0001:000387f8       __fputc_nolock             100397f8 f   libucrt:fputc.obj
 0001:00038821       _fputc                     10039821 f   libucrt:fputc.obj
 0001:00038925       _fsetpos                   10039925 f   libucrt:fsetpos.obj
 0001:00038960       ?LongLongSub@@YAJ_J0PA_J@Z 10039960 f i libucrt:fseek.obj
 0001:00038c1a       __fseeki64                 10039c1a f   libucrt:fseek.obj
 0001:00038c35       ??$?RV<lambda_11b4f7b0d3157825a5656a18eba1ae27>@@AAV<lambda_b51c0495177f500e782686251704ae76>@@V<lambda_cf89b47920b5017557bfe891e78aca36>@@@?$__crt_seh_guarded_call@I@@QAEI$$QAV<lambda_11b4f7b0d3157825a5656a18eba1ae27>@@AAV<lambda_b51c0495177f500e782686251704ae76>@@$$QAV<lambda_cf89b47920b5017557bfe891e78aca36>@@@Z 10039c35 f i libucrt:fwrite.obj
 0001:00038c86       ??$__acrt_lock_stream_and_call@V<lambda_b51c0495177f500e782686251704ae76>@@@@YAIQAU_iobuf@@$$QAV<lambda_b51c0495177f500e782686251704ae76>@@@Z 10039c86 f i libucrt:fwrite.obj
 0001:00038cf4       __fwrite_nolock            10039cf4 f   libucrt:fwrite.obj
 0001:00038e6d       _fwrite                    10039e6d f   libucrt:fwrite.obj
 0001:00038ec5       ??$?RV<lambda_d92cfe8357b99225085016881b624cb0>@@AAV<lambda_b721fa326cdb32351d23dfa67958c160>@@V<lambda_42d75b0848218ec137fa420c8ba9fdf9>@@@?$__crt_seh_guarded_call@H@@QAEH$$QAV<lambda_d92cfe8357b99225085016881b624cb0>@@AAV<lambda_b721fa326cdb32351d23dfa67958c160>@@$$QAV<lambda_42d75b0848218ec137fa420c8ba9fdf9>@@@Z 10039ec5 f i libucrt:setvbuf.obj
 0001:00038f16       ??$__acrt_lock_stream_and_call@V<lambda_b721fa326cdb32351d23dfa67958c160>@@@@YAHQAU_iobuf@@$$QAV<lambda_b721fa326cdb32351d23dfa67958c160>@@@Z 10039f16 f i libucrt:setvbuf.obj
 0001:0003900b       _setvbuf                   1003a00b f   libucrt:setvbuf.obj
 0001:00039081       __ungetc_nolock            1003a081 f   libucrt:ungetc.obj
 0001:00039170       _ungetc                    1003a170 f   libucrt:ungetc.obj
 0001:000391e0       _malloc                    1003a1e0 f   libucrt:malloc.obj
 0001:00039288       _setlocale                 1003a288 f   libucrt:setlocale.obj
 0001:000393e5       ___pctype_func             1003a3e5 f   libucrt:ctype.obj
 0001:0003940b       __wcsdup                   1003a40b f   libucrt:wcsdup.obj
 0001:0003946c       ____lc_codepage_func       1003a46c f   libucrt:initctype.obj
 0001:00039493       ____lc_locale_name_func    1003a493 f   libucrt:initctype.obj
 0001:000394bc       ____mb_cur_max_func        1003a4bc f   libucrt:initctype.obj
 0001:000394e3       ___acrt_locale_initialize_ctype 1003a4e3 f   libucrt:initctype.obj
 0001:000398da       __ismbblead                1003a8da f   libucrt:ismbbyte.obj
 0001:000398f2       __malloc_base              1003a8f2 f   libucrt:malloc_base.obj
 0001:00039940       __realloc_base             1003a940 f   libucrt:realloc_base.obj
 0001:000399b0       ?divide@__crt_strtox@@YA_KAAUbig_integer@1@ABU21@@Z 1003a9b0 f i libucrt:strtod.obj
 0001:00039ee0       _pow                       1003aee0 f   libucrt:pow.obj
 0001:00039f20       __CIpow                    1003af20 f   libucrt:pow.obj
 0001:00039f5b       __CIpow_default            1003af5b f   libucrt:pow.obj
 0001:00039f74       __pow_default              1003af74     libucrt:pow.obj
 0001:0003a169       ___strncnt                 1003b169 f   libucrt:strncnt.obj
 0001:0003a2ec       __tolower_l                1003b2ec f   libucrt:tolower_toupper.obj
 0001:0003a306       _tolower                   1003b306 f   libucrt:tolower_toupper.obj
 0001:0003a336       _wcscpy_s                  1003b336 f   libucrt:wcscpy_s.obj
 0001:0003a39a       _strnlen                   1003b39a f   libucrt:strnlen.obj
 0001:0003a4c1       _wcsnlen                   1003b4c1 f   libucrt:strnlen.obj
 0001:0003a678       ___acrt_initialize_new_handler 1003b678 f   libucrt:new_handler.obj
 0001:0003a68c       __callnewh                 1003b68c f   libucrt:new_handler.obj
 0001:0003a6d0       __query_new_handler        1003b6d0 f   libucrt:new_handler.obj
 0001:0003a722       __seh_filter_dll           1003b722 f   libucrt:exception_filter.obj
 0001:0003a742       __seh_filter_exe           1003b742 f   libucrt:exception_filter.obj
 0001:0003aad0       ___acrt_initialize_thread_local_exit_callback 1003bad0 f   libucrt:exit.obj
 0001:0003aadf       __cexit                    1003badf f   libucrt:exit.obj
 0001:0003aaee       __exit                     1003baee f   libucrt:exit.obj
 0001:0003ab04       __is_c_termination_complete 1003bb04 f   libucrt:exit.obj
 0001:0003ada3       ___acrt_allocate_buffer_for_argv 1003bda3 f   libucrt:argv_parsing.obj
 0001:0003adf8       __configure_narrow_argv    1003bdf8 f   libucrt:argv_parsing.obj
 0001:0003af5c       ??$uninitialize@A6AXAAPAPAD@Z@?$dual_state_global@PAPAD@__crt_state_management@@QAEXA6AXAAPAPAD@Z@Z 1003bf5c f i libucrt:environment_initialization.obj
 0001:0003af5c       ??$uninitialize@A6AXAAPAPA_W@Z@?$dual_state_global@PAPA_W@__crt_state_management@@QAEXA6AXAAPAPA_W@Z@Z 1003bf5c f i libucrt:environment_initialization.obj
 0001:0003afd5       ___dcrt_uninitialize_environments_nolock 1003bfd5 f   libucrt:environment_initialization.obj
 0001:0003b00c       __initialize_narrow_environment 1003c00c f   libucrt:environment_initialization.obj
 0001:0003b011       ??$?RV<lambda_800076c951b434888f4765a74a194fcc>@@AAV<lambda_4e60a939b0d047cfe11ddc22648dfba9>@@V<lambda_6dbb1268764f43b569ce7b67e331d33a>@@@?$__crt_seh_guarded_call@H@@QAEH$$QAV<lambda_800076c951b434888f4765a74a194fcc>@@AAV<lambda_4e60a939b0d047cfe11ddc22648dfba9>@@$$QAV<lambda_6dbb1268764f43b569ce7b67e331d33a>@@@Z 1003c011 f i libucrt:onexit.obj
 0001:0003b062       ??$?RV<lambda_995298e7d72eb4c2aab26c0585b3abe5>@@AAV<lambda_275893d493268fdec8709772e3fcec0e>@@V<lambda_293819299cbf9a7022e18b56a874bb5c>@@@?$__crt_seh_guarded_call@H@@QAEH$$QAV<lambda_995298e7d72eb4c2aab26c0585b3abe5>@@AAV<lambda_275893d493268fdec8709772e3fcec0e>@@$$QAV<lambda_293819299cbf9a7022e18b56a874bb5c>@@@Z 1003c062 f i libucrt:onexit.obj
 0001:0003b0b3       ??$__acrt_lock_and_call@V<lambda_275893d493268fdec8709772e3fcec0e>@@@@YAHW4__acrt_lock_id@@$$QAV<lambda_275893d493268fdec8709772e3fcec0e>@@@Z 1003c0b3 f i libucrt:onexit.obj
 0001:0003b0db       ??$__acrt_lock_and_call@V<lambda_4e60a939b0d047cfe11ddc22648dfba9>@@@@YAHW4__acrt_lock_id@@$$QAV<lambda_4e60a939b0d047cfe11ddc22648dfba9>@@@Z 1003c0db f i libucrt:onexit.obj
 0001:0003b364       __crt_atexit               1003c364 f   libucrt:onexit.obj
 0001:0003b37a       __execute_onexit_table     1003c37a f   libucrt:onexit.obj
 0001:0003b397       __initialize_onexit_table  1003c397 f   libucrt:onexit.obj
 0001:0003b3d4       __register_onexit_function 1003c3d4 f   libucrt:onexit.obj
 0001:0003b42c       ?SweepWaitNode@SingleWaitBlock@details@Concurrency@@UAE_NXZ 1003c42c f   libconcrt:event.obj
 0001:0003b42c       ___acrt_uninitialize_command_line 1003c42c f   libucrt:argv_data.obj
 0001:0003b42c       ?AllowGeneralFetchOfReservedContexts@SchedulerBase@details@Concurrency@@MAE_NXZ 1003c42c f   libconcrt:SchedulerBase.obj
 0001:0003b42c       ?do_always_noconv@?$codecvt@DDU_Mbstatet@@@std@@MBE_NXZ 1003c42c f   libcpmt:cout.obj
 0001:0003b4ec       ___acrt_initialize         1003c4ec f   libucrt:initialization.obj
 0001:0003b4fe       ___acrt_thread_attach      1003c4fe f   libucrt:initialization.obj
 0001:0003b509       ___acrt_thread_detach      1003c509 f   libucrt:initialization.obj
 0001:0003b511       ___acrt_uninitialize       1003c511 f   libucrt:initialization.obj
 0001:0003b523       ___acrt_uninitialize_critical 1003c523 f   libucrt:initialization.obj
 0001:0003b535       __initterm                 1003c535 f   libucrt:initterm.obj
 0001:0003b591       __initterm_e               1003c591 f   libucrt:initterm.obj
 0001:0003b5d6       _terminate                 1003c5d6 f   libucrt:terminate.obj
 0001:0003b620       _exp                       1003c620 f   libucrt:87ctran.obj
 0001:0003b65c       __CIexp                    1003c65c f   libucrt:87ctran.obj
 0001:0003b697       __exp_default              1003c697 f   libucrt:87ctran.obj
 0001:0003b6a1       __CIexp_default            1003c6a1 f   libucrt:87ctran.obj
 0001:0003b6b0       __CIsqrt                   1003c6b0 f   libucrt:sqrt.obj
 0001:0003b6c4       _sqrt                      1003c6c4     libucrt:sqrt.obj
 0001:0003b837       _wcsncpy_s                 1003c837 f   libucrt:wcsncpy_s.obj
 0001:0003b842       _strcpy_s                  1003c842 f   libucrt:strcpy_s.obj
 0001:0003b89c       __isctype_l                1003c89c f   libucrt:isctype.obj
 0001:0003b96e       ??$?RV<lambda_3518db117f0e7cdb002338c5d3c47b6c>@@AAV<lambda_b2ea41f6bbb362cd97d94c6828d90b61>@@V<lambda_abdedf541bb04549bc734292b4a045d4>@@@?$__crt_seh_guarded_call@X@@QAEX$$QAV<lambda_3518db117f0e7cdb002338c5d3c47b6c>@@AAV<lambda_b2ea41f6bbb362cd97d94c6828d90b61>@@$$QAV<lambda_abdedf541bb04549bc734292b4a045d4>@@@Z 1003c96e f i libucrt:per_thread_data.obj
 0001:0003b9be       ??$?RV<lambda_51b6e8b1eb166f2a3faf91f424b38130>@@AAV<lambda_6250bd4b2a391816dd638c3bf72b0bcb>@@V<lambda_0b5a4a3e68152e1d9b943535f5f47bed>@@@?$__crt_seh_guarded_call@X@@QAEX$$QAV<lambda_51b6e8b1eb166f2a3faf91f424b38130>@@AAV<lambda_6250bd4b2a391816dd638c3bf72b0bcb>@@$$QAV<lambda_0b5a4a3e68152e1d9b943535f5f47bed>@@@Z 1003c9be f i libucrt:per_thread_data.obj
 0001:0003ba1f       ??$?RV<lambda_5b71d36f03204c0beab531769a5b5694>@@AAV<lambda_be2b3da3f62db62e9dad5dc70221a656>@@V<lambda_8f9ce462984622f9bf76b59e2aaaf805>@@@?$__crt_seh_guarded_call@X@@QAEX$$QAV<lambda_5b71d36f03204c0beab531769a5b5694>@@AAV<lambda_be2b3da3f62db62e9dad5dc70221a656>@@$$QAV<lambda_8f9ce462984622f9bf76b59e2aaaf805>@@@Z 1003ca1f f i libucrt:per_thread_data.obj
 0001:0003ba6a       ??$?RV<lambda_9df27f884b057bc3edfc946cb5b7cf47>@@AAV<lambda_e69574bed617af4e071282c136b37893>@@V<lambda_cc0d902bcbbeb830f749456577db4721>@@@?$__crt_seh_guarded_call@X@@QAEX$$QAV<lambda_9df27f884b057bc3edfc946cb5b7cf47>@@AAV<lambda_e69574bed617af4e071282c136b37893>@@$$QAV<lambda_cc0d902bcbbeb830f749456577db4721>@@@Z 1003ca6a f i libucrt:per_thread_data.obj
 0001:0003bab2       ??$__acrt_lock_and_call@V<lambda_6250bd4b2a391816dd638c3bf72b0bcb>@@@@YAXW4__acrt_lock_id@@$$QAV<lambda_6250bd4b2a391816dd638c3bf72b0bcb>@@@Z 1003cab2 f i libucrt:per_thread_data.obj
 0001:0003bada       ??$__acrt_lock_and_call@V<lambda_b2ea41f6bbb362cd97d94c6828d90b61>@@@@YAXW4__acrt_lock_id@@$$QAV<lambda_b2ea41f6bbb362cd97d94c6828d90b61>@@@Z 1003cada f i libucrt:per_thread_data.obj
 0001:0003bb02       ??$__acrt_lock_and_call@V<lambda_be2b3da3f62db62e9dad5dc70221a656>@@@@YAXW4__acrt_lock_id@@$$QAV<lambda_be2b3da3f62db62e9dad5dc70221a656>@@@Z 1003cb02 f i libucrt:per_thread_data.obj
 0001:0003bb2a       ??$__acrt_lock_and_call@V<lambda_e69574bed617af4e071282c136b37893>@@@@YAXW4__acrt_lock_id@@$$QAV<lambda_e69574bed617af4e071282c136b37893>@@@Z 1003cb2a f i libucrt:per_thread_data.obj
 0001:0003bce0       ___acrt_freeptd            1003cce0 f   libucrt:per_thread_data.obj
 0001:0003bd0c       ___acrt_getptd             1003cd0c f   libucrt:per_thread_data.obj
 0001:0003bd90       ___acrt_getptd_noexit      1003cd90 f   libucrt:per_thread_data.obj
 0001:0003be15       ___acrt_initialize_ptd     1003ce15 f   libucrt:per_thread_data.obj
 0001:0003be41       ___acrt_uninitialize_ptd   1003ce41 f   libucrt:per_thread_data.obj
 0001:0003be5b       ___acrt_update_locale_info 1003ce5b f   libucrt:locale_update.obj
 0001:0003be88       ___acrt_update_multibyte_info 1003ce88 f   libucrt:locale_update.obj
 0001:0003beb5       ??$?RV<lambda_70818de7b02deff9841e8b0962a60ed9>@@AAV<lambda_2af78c5f5901b1372d98f9ab3177dfa6>@@AAV<lambda_f51fe5fd7c79a33db34fc9310f277369>@@@?$__crt_seh_guarded_call@X@@QAEX$$QAV<lambda_70818de7b02deff9841e8b0962a60ed9>@@AAV<lambda_2af78c5f5901b1372d98f9ab3177dfa6>@@AAV<lambda_f51fe5fd7c79a33db34fc9310f277369>@@@Z 1003ceb5 f i libucrt:wsetlocale.obj
 0001:0003bef0       ??$?RV<lambda_c76fdea48760d5f9368b465f31df4405>@@AAV<lambda_e378711a6f6581bf7f0efd7cdf97f5d9>@@V<lambda_e927a58b2a85c081d733e8c6192ae2d2>@@@?$__crt_seh_guarded_call@X@@QAEX$$QAV<lambda_c76fdea48760d5f9368b465f31df4405>@@AAV<lambda_e378711a6f6581bf7f0efd7cdf97f5d9>@@$$QAV<lambda_e927a58b2a85c081d733e8c6192ae2d2>@@@Z 1003cef0 f i libucrt:wsetlocale.obj
 0001:0003bf33       ??$__acrt_lock_and_call@V<lambda_e378711a6f6581bf7f0efd7cdf97f5d9>@@@@YAXW4__acrt_lock_id@@$$QAV<lambda_e378711a6f6581bf7f0efd7cdf97f5d9>@@@Z 1003cf33 f i libucrt:wsetlocale.obj
 0001:0003c0b5       ___acrt_copy_locale_name   1003d0b5 f   libucrt:wsetlocale.obj
 0001:0003c11b       ___acrt_set_locale_changed 1003d11b f   libucrt:wsetlocale.obj
 0001:0003c126       ___acrt_uninitialize_locale 1003d126 f   libucrt:wsetlocale.obj
 0001:0003c178       ___lc_lctowcs              1003d178 f   libucrt:wsetlocale.obj
 0001:0003c1e8       ___lc_wcstolc              1003d1e8 f   libucrt:wsetlocale.obj
 0001:0003c346       __expandlocale             1003d346 f   libucrt:wsetlocale.obj
 0001:0003c6bd       __wcscats                  1003d6bd f   libucrt:wsetlocale.obj
 0001:0003c6fe       __wsetlocale               1003d6fe f   libucrt:wsetlocale.obj
 0001:0003cfc8       _iswctype                  1003dfc8 f   libucrt:iswctype.obj
 0001:0003d027       ??$?RV<lambda_a048d3beccc847880fc8490e18b82769>@@AAV<lambda_ec61778202f4f5fc7e7711acc23c3bca>@@V<lambda_f7496a158712204296dd6628a163878e>@@@?$__crt_seh_guarded_call@P6AXH@Z@@QAEP6AXH@Z$$QAV<lambda_a048d3beccc847880fc8490e18b82769>@@AAV<lambda_ec61778202f4f5fc7e7711acc23c3bca>@@$$QAV<lambda_f7496a158712204296dd6628a163878e>@@@Z 1003e027 f i libucrt:signal.obj
 0001:0003d081       ??$__acrt_lock_and_call@V<lambda_ec61778202f4f5fc7e7711acc23c3bca>@@@@YAP6AXH@ZW4__acrt_lock_id@@$$QAV<lambda_ec61778202f4f5fc7e7711acc23c3bca>@@@Z 1003e081 f i libucrt:signal.obj
 0001:0003d113       ___acrt_get_sigabrt_handler 1003e113 f   libucrt:signal.obj
 0001:0003d12a       ___acrt_initialize_signal_handlers 1003e12a f   libucrt:signal.obj
 0001:0003d165       ___fpecode                 1003e165 f   libucrt:signal.obj
 0001:0003d16e       _raise                     1003e16e f   libucrt:signal.obj
 0001:0003d376       __mbtowc_l                 1003e376 f   libucrt:mbtowc.obj
 0001:0003d470       _mbtowc                    1003e470 f   libucrt:mbtowc.obj
 0001:0003d48a       __wctomb_s_l               1003e48a f   libucrt:wctomb.obj
 0001:0003d5ab       _wctomb_s                  1003e5ab f   libucrt:wctomb.obj
 0001:0003d5c8       ?__acrt_fp_classify@@YA?AW4__acrt_fp_class@@ABN@Z 1003e5c8 f i libucrt:cvt.obj
 0001:0003d634       ?__acrt_fp_is_negative@@YA_NABN@Z 1003e634 f i libucrt:cvt.obj
 0001:0003de93       ___acrt_fp_format          1003ee93 f   libucrt:cvt.obj
 0001:0003dfdd       __fileno                   1003efdd f   libucrt:fileno.obj
 0001:0003e003       __get_printf_count_output  1003f003 f   libucrt:printf_count_output.obj
 0001:0003e018       ___acrt_stdio_begin_temporary_buffering_nolock 1003f018 f   libucrt:_sftbuf.obj
 0001:0003e0cd       ___acrt_stdio_end_temporary_buffering_nolock 1003f0cd f   libucrt:_sftbuf.obj
 0001:0003e272       ___acrt_initialize_lowio   1003f272 f   libucrt:ioinit.obj
 0001:0003e2c8       ___acrt_uninitialize_lowio 1003f2c8 f   libucrt:ioinit.obj
 0001:0003e2f4       __dsign                    1003f2f4 f   libucrt:nan.obj
 0001:0003e304       __errcode                  1003f304 f   libucrt:fpexcept.obj
 0001:0003e338       __except1                  1003f338 f   libucrt:fpexcept.obj
 0001:0003e406       __handle_exc               1003f406 f   libucrt:fpexcept.obj
 0001:0003e5e6       __raise_exc                1003f5e6 f   libucrt:fpexcept.obj
 0001:0003e609       __raise_exc_ex             1003f609 f   libucrt:fpexcept.obj
 0001:0003e8fa       __set_errno_from_matherr   1003f8fa f   libucrt:fpexcept.obj
 0001:0003e929       __umatherr                 1003f929 f   libucrt:fpexcept.obj
 0001:0003e9cb       __decomp                   1003f9cb f   libucrt:util.obj
 0001:0003ea9f       __set_exp                  1003fa9f f   libucrt:util.obj
 0001:0003eace       __sptype                   1003face f   libucrt:util.obj
 0001:0003eb2c       __clrfp                    1003fb2c f   libucrt:fpctrl.obj
 0001:0003eb3f       __ctrlfp                   1003fb3f f   libucrt:fpctrl.obj
 0001:0003eb6b       __set_statfp               1003fb6b f   libucrt:fpctrl.obj
 0001:0003ebc6       __statfp                   1003fbc6 f   libucrt:fpctrl.obj
 0001:0003ebd8       __query_new_mode           1003fbd8 f   libucrt:new_mode.obj
 0001:0003ebde       ___acrt_initialize_heap    1003fbde f   libucrt:heap_handle.obj
 0001:0003ebef       ___acrt_uninitialize_heap  1003fbef f   libucrt:heap_handle.obj
 0001:0003ec3f       ??$?RV<lambda_9227be29367c048ad7fd93a717dcb1a1>@@AAV<lambda_a463b7b0560cfcaf9b17f27c6ef46564>@@V<lambda_ccea11b5727ccf69be64f5f5d9a08d9f>@@@?$__crt_seh_guarded_call@H@@QAEH$$QAV<lambda_9227be29367c048ad7fd93a717dcb1a1>@@AAV<lambda_a463b7b0560cfcaf9b17f27c6ef46564>@@$$QAV<lambda_ccea11b5727ccf69be64f5f5d9a08d9f>@@@Z 1003fc3f f i libucrt:winapi_thunks.obj
 0001:0003ecc3       ??$__acrt_lock_and_call@V<lambda_a463b7b0560cfcaf9b17f27c6ef46564>@@@@YAHW4__acrt_lock_id@@$$QAV<lambda_a463b7b0560cfcaf9b17f27c6ef46564>@@@Z 1003fcc3 f i libucrt:winapi_thunks.obj
 0001:0003eceb       ??$__crt_fast_encode_pointer@P6AHXZ@@YAP6AHXZQ6AHXZ@Z 1003fceb f i libucrt:onexit.obj
 0001:0003eceb       ??$__crt_fast_encode_pointer@P6GHPA_WKJ@Z@@YAP6GHPA_WKJ@ZQ6GH0KJ@Z@Z 1003fceb f i libucrt:winapi_thunks.obj
 0001:0003ee3b       ___acrt_EnumSystemLocalesEx@16 1003fe3b f   libucrt:winapi_thunks.obj
 0001:0003eea8       ___acrt_FlsAlloc@4         1003fea8 f   libucrt:winapi_thunks.obj
 0001:0003eefe       ___acrt_FlsFree@4          1003fefe f   libucrt:winapi_thunks.obj
 0001:0003ef54       ___acrt_FlsGetValue@4      1003ff54 f   libucrt:winapi_thunks.obj
 0001:0003efaa       ___acrt_FlsSetValue@8      1003ffaa f   libucrt:winapi_thunks.obj
 0001:0003f003       ___acrt_GetLocaleInfoEx@16 10040003 f   libucrt:winapi_thunks.obj
 0001:0003f06d       ___acrt_GetUserDefaultLocaleName@8 1004006d f   libucrt:winapi_thunks.obj
 0001:0003f0d4       ___acrt_InitializeCriticalSectionEx@12 100400d4 f   libucrt:winapi_thunks.obj
 0001:0003f136       ___acrt_IsValidLocaleName@4 10040136 f   libucrt:winapi_thunks.obj
 0001:0003f199       ___acrt_LCIDToLocaleName@16 10040199 f   libucrt:winapi_thunks.obj
 0001:0003f203       ___acrt_LCMapStringEx@36   10040203 f   libucrt:winapi_thunks.obj
 0001:0003f28b       ___acrt_LocaleNameToLCID@8 1004028b f   libucrt:winapi_thunks.obj
 0001:0003f2e7       ___acrt_can_use_vista_locale_apis 100402e7 f   libucrt:winapi_thunks.obj
 0001:0003f2f3       ___acrt_initialize_winapi_thunks 100402f3 f   libucrt:winapi_thunks.obj
 0001:0003f319       ___acrt_is_packaged_app    10040319 f   libucrt:winapi_thunks.obj
 0001:0003f3a0       ___acrt_uninitialize_winapi_thunks 100403a0 f   libucrt:winapi_thunks.obj
 0001:0003f3d6       __fcloseall                100403d6 f   libucrt:closeall.obj
 0001:0003f476       ___acrt_stdio_free_buffer_nolock 10040476 f   libucrt:_freebuf.obj
 0001:0003f4b4       ??$?RV<lambda_123407a5e2ac06da108355a851863b7a>@@AAV<lambda_2fe9b910cf3cbf4a0ab98a02ba45b3ec>@@V<lambda_ae55bdf541ad94d75914d381c370e64d>@@@?$__crt_seh_guarded_call@H@@QAEH$$QAV<lambda_123407a5e2ac06da108355a851863b7a>@@AAV<lambda_2fe9b910cf3cbf4a0ab98a02ba45b3ec>@@$$QAV<lambda_ae55bdf541ad94d75914d381c370e64d>@@@Z 100404b4 f i libucrt:close.obj
 0001:0003f536       ??$__acrt_lowio_lock_fh_and_call@V<lambda_2fe9b910cf3cbf4a0ab98a02ba45b3ec>@@@@YAHH$$QAV<lambda_2fe9b910cf3cbf4a0ab98a02ba45b3ec>@@@Z 10040536 f i libucrt:close.obj
 0001:0003f55e       __close                    1004055e f   libucrt:close.obj
 0001:0003f5dd       __close_nolock             100405dd f   libucrt:close.obj
 0001:0003f679       ?__acrt_stdio_free_stream@@YAXV__crt_stdio_stream@@@Z 10040679 f   libucrt:stream.obj
 0001:0003f6b4       ??$?RV<lambda_61cee617f5178ae960314fd4d05640a0>@@AAV<lambda_6978c1fb23f02e42e1d9e99668cc68aa>@@V<lambda_9cd88cf8ad10232537feb2133f08c833>@@@?$__crt_seh_guarded_call@H@@QAEH$$QAV<lambda_61cee617f5178ae960314fd4d05640a0>@@AAV<lambda_6978c1fb23f02e42e1d9e99668cc68aa>@@$$QAV<lambda_9cd88cf8ad10232537feb2133f08c833>@@@Z 100406b4 f i libucrt:commit.obj
 0001:0003f74c       ??$__acrt_lowio_lock_fh_and_call@V<lambda_6978c1fb23f02e42e1d9e99668cc68aa>@@@@YAHH$$QAV<lambda_6978c1fb23f02e42e1d9e99668cc68aa>@@@Z 1004074c f i libucrt:commit.obj
 0001:0003f774       __commit                   10040774 f   libucrt:commit.obj
 0001:0003fd73       __write                    10040d73 f   libucrt:write.obj
 0001:0003fe5e       __write_nolock             10040e5e f   libucrt:write.obj
 0001:000401eb       ___acrt_stdio_refill_and_read_narrow_nolock 100411eb f   libucrt:_filbuf.obj
 0001:00040726       __ftelli64                 10041726 f   libucrt:ftell.obj
 0001:00040731       __ftelli64_nolock          10041731 f   libucrt:ftell.obj
 0001:00040919       ___acrt_stdio_flush_and_write_narrow_nolock 10041919 f   libucrt:_flsbuf.obj
 0001:00040aa7       __lseeki64                 10041aa7 f   libucrt:lseek.obj
 0001:00040ac2       __lseeki64_nolock          10041ac2 f   libucrt:lseek.obj
 0001:00040add       ___acrt_stdio_allocate_buffer_nolock 10041add f   libucrt:_getbuf.obj
 0001:00040cb3       __mbstowcs_s_l             10041cb3 f   libucrt:mbstowcs.obj
 0001:00040d96       _mbstowcs_s                10041d96 f   libucrt:mbstowcs.obj
 0001:00041037       __wcstombs_s_l             10042037 f   libucrt:wcstombs.obj
 0001:000411ff       ___acrt_GetLocaleInfoA     100421ff f   libucrt:getlocaleinfoa.obj
 0001:000413b1       ___acrt_GetStringTypeA     100423b1 f   libucrt:getstringtypea.obj
 0001:000416eb       ___acrt_LCMapStringA       100426eb f   libucrt:lcmapstringa.obj
 0001:00041736       __fpclass                  10042736 f   libucrt:ieeemisc.obj
 0001:000417da       ___acrt_initialize_sse2    100427da f   libucrt:mathfcns.obj
 0001:000417f0       __CIpow_pentium4           100427f0 f   libucrt:pow_pentium4.obj
 0001:00041809       __pow_pentium4             10042809     libucrt:pow_pentium4.obj
 0001:00042321       __fFEXP                    10043321     libucrt:87tran.obj
 0001:00042378       __rtinfpopse               10043378     libucrt:87tran.obj
 0001:0004237a       __rtinfnpopse              1004337a     libucrt:87tran.obj
 0001:0004238a       __fFLN                     1004338a     libucrt:87tran.obj
 0001:0004243f       __rtinfpop                 1004343f     libucrt:87tran.obj
 0001:00042441       __rtinfnpop                10043441     libucrt:87tran.obj
 0001:0004245e       __ffexpm1                  1004345e     libucrt:87tran.obj
 0001:00042510       __trandisp1                10043510 f   libucrt:87disp.obj
 0001:00042577       __trandisp2                10043577 f   libucrt:87disp.obj
 0001:00042603       __rttospopde               10043603     libucrt:87disp.obj
 0001:00042608       __rttospop                 10043608     libucrt:87disp.obj
 0001:0004260a       __rtnospop                 1004360a     libucrt:87disp.obj
 0001:0004260c       __rttosnpop                1004360c     libucrt:87disp.obj
 0001:0004260d       __rtnospopde               1004360d     libucrt:87disp.obj
 0001:00042614       __rtzeropop                10043614     libucrt:87disp.obj
 0001:00042616       __rtzeronpop               10043616     libucrt:87disp.obj
 0001:0004261b       __rtzerospop               1004361b     libucrt:87disp.obj
 0001:00042628       __rtonepop                 10043628     libucrt:87disp.obj
 0001:0004262a       __rtonenpop                1004362a     libucrt:87disp.obj
 0001:0004262f       __tosnan1                  1004362f     libucrt:87disp.obj
 0001:0004265a       __nosnan2                  1004365a     libucrt:87disp.obj
 0001:0004265c       __tosnan2                  1004365c     libucrt:87disp.obj
 0001:00042684       __nan2                     10043684     libucrt:87disp.obj
 0001:000426c3       __rtindfpop                100436c3     libucrt:87disp.obj
 0001:000426c5       __rtindfnpop               100436c5     libucrt:87disp.obj
 0001:000426d6       __rttosnpopde              100436d6     libucrt:87disp.obj
 0001:000426e0       __rtatan2inf               100436e0     libucrt:87disp.obj
 0001:000426fd       __rtchsifneg               100436fd     libucrt:87disp.obj
 0001:00042710       __startTwoArgErrorHandling 10043710 f   libucrt:genexcep.obj
 0001:00042727       __startOneArgErrorHandling 10043727 f   libucrt:genexcep.obj
 0001:00042770       __twoToTOS                 10043770 f   libucrt:common.obj
 0001:00042785       __load_CW                  10043785 f   libucrt:common.obj
 0001:0004279c       __convertTOStoQNaN         1004379c f   libucrt:common.obj
 0001:000427b5       __fload_withFB             100437b5 f   libucrt:common.obj
 0001:000427f8       __checkTOS_withFB          100437f8 f   libucrt:common.obj
 0001:0004280e       __fast_exit                1004380e f   libucrt:common.obj
 0001:0004281b       __math_exit                1004381b f   libucrt:common.obj
 0001:00042845       __check_overflow_exit      10043845 f   libucrt:common.obj
 0001:00042859       __check_range_exit         10043859 f   libucrt:common.obj
 0001:000428fc       __d_inttype                100438fc f   libucrt:powhlp.obj
 0001:00042966       __powhlp                   10043966 f   libucrt:powhlp.obj
 0001:00042a91       __wcsicmp                  10043a91 f   libucrt:wcsicmp.obj
 0001:00042b26       __wcsicmp_l                10043b26 f   libucrt:wcsicmp.obj
 0001:00042c06       ___acrt_initialize_timeset 10043c06 f   libucrt:timeset.obj
 0001:00042c3d       __isleadbyte_l             10043c3d f i libucrt:_wctype.obj
 0001:00043038       ??1?$argument_list@D@?A0xb0e4b824@@QAE@XZ 10044038 f i libucrt:argv_wildcards.obj
 0001:0004305d       ?append@?$argument_list@D@?A0xb0e4b824@@QAEHQAD@Z 1004405d f i libucrt:argv_wildcards.obj
 0001:00043092       ?expand_if_necessary@?$argument_list@D@?A0xb0e4b824@@AAEHXZ 10044092 f i libucrt:argv_wildcards.obj
 0001:00043119       ___acrt_expand_narrow_argv_wildcards 10044119 f   libucrt:argv_wildcards.obj
 0001:00043124       ??$?RV<lambda_978dc153c237d78434369da87b74ff60>@@AAV<lambda_ad1ced32f4ac17aa236e5ef05d6b3b7c>@@V<lambda_4a8533e2866a575feecb8298ce776b0d>@@@?$__crt_seh_guarded_call@X@@QAEX$$QAV<lambda_978dc153c237d78434369da87b74ff60>@@AAV<lambda_ad1ced32f4ac17aa236e5ef05d6b3b7c>@@$$QAV<lambda_4a8533e2866a575feecb8298ce776b0d>@@@Z 10044124 f i libucrt:mbctype.obj
 0001:00043167       ??$__acrt_lock_and_call@V<lambda_ad1ced32f4ac17aa236e5ef05d6b3b7c>@@@@YAXW4__acrt_lock_id@@$$QAV<lambda_ad1ced32f4ac17aa236e5ef05d6b3b7c>@@@Z 10044167 f i libucrt:mbctype.obj
 0001:000435fe       ___acrt_initialize_multibyte 100445fe f   libucrt:mbctype.obj
 0001:0004361c       ___acrt_update_thread_multibyte_data 1004461c f   libucrt:mbctype.obj
 0001:000436be       __setmbcp_nolock           100446be f   libucrt:mbctype.obj
 0001:000438af       ___acrt_initialize_command_line 100448af f   libucrt:argv_data.obj
 0001:000438ff       ___dcrt_get_narrow_environment_from_os 100448ff f   libucrt:get_environment_from_os.obj
 0001:00043982       __recalloc                 10044982 f   libucrt:recalloc.obj
 0001:0004398d       __recalloc_base            1004498d f   libucrt:recalloc.obj
 0001:000439fa       ___acrt_execute_initializers 100449fa f   libucrt:shared_initialization.obj
 0001:00043a7d       ___acrt_execute_uninitializers 10044a7d f   libucrt:shared_initialization.obj
 0001:00043aca       ?initialize@?$dual_state_global@PAU__crt_locale_data@@@__crt_state_management@@QAEXQAU__crt_locale_data@@@Z 10044aca f i libucrt:initialization.obj
 0001:00043aca       ?initialize@?$dual_state_global@P6AHI@Z@__crt_state_management@@QAEXQ6AHI@Z@Z 10044aca f i libucrt:new_handler.obj
 0001:00043aca       ?initialize@?$dual_state_global@P6AXPB_W00II@Z@__crt_state_management@@QAEXQ6AXPB_W00II@Z@Z 10044aca f i libucrt:invalid_parameter.obj
 0001:00043aca       ?initialize@?$dual_state_global@J@__crt_state_management@@QAEXJ@Z 10044aca f i libucrt:timeset.obj
 0001:00043aca       ?initialize@?$dual_state_global@H@__crt_state_management@@QAEXH@Z 10044aca f i libucrt:timeset.obj
 0001:00043aca       ?initialize@?$dual_state_global@P6AXH@Z@__crt_state_management@@QAEXQ6AXH@Z@Z 10044aca f i libucrt:signal.obj
 0001:00043aca       ?initialize@?$dual_state_global@P6AHPAU_exception@@@Z@__crt_state_management@@QAEXQ6AHPAU_exception@@@Z@Z 10044aca f i libucrt:matherr.obj
 0001:00043aca       ?initialize@?$dual_state_global@PAPAD@__crt_state_management@@QAEXQAPAD@Z 10044aca f i libucrt:environment_initialization.obj
 0001:00043afb       ___acrt_has_user_matherr   10044afb f   libucrt:matherr.obj
 0001:00043b14       ___acrt_initialize_user_matherr 10044b14 f   libucrt:matherr.obj
 0001:00043b28       ___acrt_invoke_user_matherr 10044b28 f   libucrt:matherr.obj
 0001:00043b80       __CIexp_pentium4           10044b80 f   libucrt:exp_pentium4.obj
 0001:00043b98       __exp_pentium4             10044b98     libucrt:exp_pentium4.obj
 0001:00043e40       __cintrindisp2             10044e40 f   libucrt:87cdisp.obj
 0001:00043e84       __cintrindisp1             10044e84 f   libucrt:87cdisp.obj
 0001:00043ec7       __ctrandisp2               10044ec7 f   libucrt:87cdisp.obj
 0001:00044056       __ctrandisp1               10045056 f   libucrt:87cdisp.obj
 0001:00044089       __fload                    10045089 f   libucrt:87cdisp.obj
 0001:000440c5       ___acrt_add_locale_ref     100450c5 f   libucrt:locale_refcounting.obj
 0001:00044142       ___acrt_free_locale        10045142 f   libucrt:locale_refcounting.obj
 0001:0004428c       ___acrt_locale_add_lc_time_reference 1004528c f   libucrt:locale_refcounting.obj
 0001:000442b5       ___acrt_locale_free_lc_time_if_unreferenced 100452b5 f   libucrt:locale_refcounting.obj
 0001:000442e5       ___acrt_locale_release_lc_time_reference 100452e5 f   libucrt:locale_refcounting.obj
 0001:0004430e       ___acrt_release_locale_ref 1004530e f   libucrt:locale_refcounting.obj
 0001:0004438f       ___acrt_update_thread_locale_data 1004538f f   libucrt:locale_refcounting.obj
 0001:00044406       __updatetlocinfoEx_nolock  10045406 f   libucrt:locale_refcounting.obj
 0001:00044456       ___acrt_locale_free_monetary 10045456 f   libucrt:initmon.obj
 0001:00044554       ___acrt_locale_initialize_monetary 10045554 f   libucrt:initmon.obj
 0001:00044910       ___acrt_locale_free_numeric 10045910 f   libucrt:initnum.obj
 0001:00044979       ___acrt_locale_initialize_numeric 10045979 f   libucrt:initnum.obj
 0001:00044e4e       ___acrt_locale_free_time   10045e4e f   libucrt:inittime.obj
 0001:00044f32       ___acrt_locale_initialize_time 10045f32 f   libucrt:inittime.obj
 0001:00044fb1       _wcscat_s                  10045fb1 f   libucrt:wcscat_s.obj
 0001:00045026       _wcscspn                   10046026 f   libucrt:wcscspn.obj
 0001:00045076       _wcsncmp                   10046076 f   libucrt:wcsncmp.obj
 0001:000450b0       _wcspbrk                   100460b0 f   libucrt:wcspbrk.obj
 0001:000457f3       ___acrt_get_qualified_locale 100467f3 f   libucrt:get_qualified_locale.obj
 0001:0004612b       ___acrt_get_qualified_locale_downlevel 1004712b f   libucrt:getqloc_downlevel.obj
 0001:00046332       ___acrt_fp_strflt_to_string 10047332 f   libucrt:_fptostr.obj
 0001:000463ee       ??0scoped_fp_state_reset@?A0x48fbfdd4@@QAE@XZ 100473ee f i libucrt:cfout.obj
 0001:00046418       ___acrt_fltout             10047418 f   libucrt:cfout.obj
 0001:000477b4       __isatty                   100487b4 f   libucrt:isatty.obj
 0001:0004780a       ___acrt_lowio_create_handle_array 1004880a f   libucrt:osfinfo.obj
 0001:00047884       ___acrt_lowio_destroy_handle_array 10048884 f   libucrt:osfinfo.obj
 0001:000478b9       ___acrt_lowio_ensure_fh_exists 100488b9 f   libucrt:osfinfo.obj
 0001:00047951       ___acrt_lowio_lock_fh      10048951 f   libucrt:osfinfo.obj
 0001:00047974       ___acrt_lowio_unlock_fh    10048974 f   libucrt:osfinfo.obj
 0001:00047997       __free_osfhnd              10048997 f   libucrt:osfinfo.obj
 0001:00047a28       __get_osfhandle            10048a28 f   libucrt:osfinfo.obj
 0001:00047b4e       ___acrt_DownlevelLCIDToLocaleName 10048b4e f   libucrt:lcidtoname_downlevel.obj
 0001:00047bf8       ___acrt_DownlevelLocaleNameToLCID 10048bf8 f   libucrt:lcidtoname_downlevel.obj
 0001:00047c24       __putwch_nolock            10048c24 f   libucrt:putwch.obj
 0001:00048151       __read                     10049151 f   libucrt:read.obj
 0001:00048264       __read_nolock              10049264 f   libucrt:read.obj
 0001:000486ca       _strncpy_s                 100496ca f   libucrt:strncpy_s.obj
 0001:00048978       __getfpcontrolword         10049978 f   libucrt:_fenvutils.obj
 0001:000489bb       __getfpstatusword          100499bb f   libucrt:_fenvutils.obj
 0001:00048a63       __setfpcontrolword         10049a63 f   libucrt:_fenvutils.obj
 0001:00048ae3       __setfpstatusword          10049ae3 f   libucrt:_fenvutils.obj
 0001:00048b63       ___libm_error_support      10049b63 f   libucrt:libm_error.obj
 0001:00048d7b       __87except                 10049d7b f   libucrt:87except.obj
 0001:00048e86       __frnd                     10049e86 f   libucrt:frnd.obj
 0001:00048e9c       __towlower_l               10049e9c f   libucrt:towlower.obj
 0001:00049050       _qsort                     1004a050 f   libucrt:qsort.obj
 0001:000493f0       _strpbrk                   1004a3f0 f   libucrt:strpbrk.obj
 0001:00049430       __mbsdec                   1004a430 f   libucrt:mbsdec.obj
 0001:00049447       __mbsdec_l                 1004a447 f   libucrt:mbsdec.obj
 0001:000494e3       __msize                    1004a4e3 f   libucrt:msize.obj
 0001:00049603       __itow_s                   1004a603 f   libucrt:xtoa.obj
 0001:00049638       __wcsnicmp                 1004a638 f   libucrt:wcsnicmp.obj
 0001:000496f0       __wcsnicmp_l               1004a6f0 f   libucrt:wcsnicmp.obj
 0001:000497f1       _fegetenv                  1004a7f1 f   libucrt:fegetenv.obj
 0001:0004980e       _fesetenv                  1004a80e f   libucrt:fesetenv.obj
 0001:00049857       _feholdexcept              1004a857 f   libucrt:feholdexcept.obj
 0001:000498b0       _log10                     1004a8b0 f   libucrt:log10.obj
 0001:000498f0       __CIlog10                  1004a8f0 f   libucrt:log10.obj
 0001:0004992b       __CIlog10_default          1004a92b f   libucrt:log10.obj
 0001:0004993f       __log10_default            1004a93f     libucrt:log10.obj
 0001:00049a00       _ceil                      1004aa00 f   libucrt:ceil_pentium4.obj
 0001:00049a40       __ceil_pentium4            1004aa40 f   libucrt:ceil_pentium4.obj
 0001:00049b1d       __query_app_type           1004ab1d f   libucrt:report_runtime_error.obj
 0001:00049b23       ___dcrt_lowio_initialize_console_output 1004ab23 f   libucrt:initcon.obj
 0001:00049b42       ___dcrt_terminate_console_output 1004ab42 f   libucrt:initcon.obj
 0001:00049b59       ___acrt_LCMapStringW       1004ab59 f   libucrt:lcmapstringw.obj
 0001:00049b97       __clearfp                  1004ab97 f   libucrt:ieee87.obj
 0001:00049c80       __CIlog10_pentium4         1004ac80 f   libucrt:log10_pentium4.obj
 0001:00049c98       __log10_pentium4           1004ac98     libucrt:log10_pentium4.obj
 0001:00049f10       __ceil_default             1004af10 f   libucrt:ceil.obj
 0001:00049fd0       ___ascii_strnicmp          1004afd0 f   libucrt:_strnicm.obj
 0001:0004a032       _IsProcessorFeaturePresent@4 1004b032 f   kernel32:KERNEL32.dll
 0001:0004a038       _RtlUnwind@16              1004b038 f   kernel32:KERNEL32.dll
 0001:0004a03e       ?DloadAcquireSectionWriteAccess@@YGXXZ 1004b03e f i DelayImp:delayhlp.obj
 0001:0004a071       ?DloadGetSRWLockFunctionPointers@@YGEXZ 1004b071 f i DelayImp:delayhlp.obj
 0001:0004a0ec       ?DloadLock@@YGXXZ          1004b0ec f i DelayImp:delayhlp.obj
 0001:0004a149       ?DloadMakePermanentImageCommit@@YGXPAXK@Z 1004b149 f i DelayImp:delayhlp.obj
 0001:0004a1bb       ?DloadObtainSection@@YGPAXPAK0@Z 1004b1bb f i DelayImp:delayhlp.obj
 0001:0004a23e       ?DloadProtectSection@@YGXKPAK@Z 1004b23e f i DelayImp:delayhlp.obj
 0001:0004a2ae       ?DloadReleaseSectionWriteAccess@@YGXXZ 1004b2ae f i DelayImp:delayhlp.obj
 0001:0004a2e6       ?DloadUnlock@@YGXXZ        1004b2e6 f i DelayImp:delayhlp.obj
 0001:0004a330       ___delayLoadHelper2@8      1004b330 f   DelayImp:delayhlp.obj
 0001:0004a5b5       ?GetCurrentThreadId@platform@details@Concurrency@@YAJXZ 1004b5b5 f   libcpmt:ppltasks.obj
 0001:0004a5bb       ??$?0AAPAUEHExceptionRecord@@_N@?$_Ref_count_obj@V__ExceptionPtr@@@std@@QAE@AAPAUEHExceptionRecord@@$$QA_N@Z 1004b5bb f i libcpmt:excptptr.obj
 0001:0004a607       ??$?0AAPAUEHExceptionRecord@@_N@?$_Ref_count_obj_alloc@V__ExceptionPtr@@U?$_StaticAllocator@H@@@std@@QAE@ABU?$_StaticAllocator@H@@AAPAUEHExceptionRecord@@$$QA_N@Z 1004b607 f i libcpmt:excptptr.obj
 0001:0004a665       ??$_Reset@V__ExceptionPtr@@@?$_Ptr_base@V__ExceptionPtr@@@std@@QAEXABV01@@Z 1004b665 f i libcpmt:excptptr.obj
 0001:0004a683       ??$allocate_shared@V__ExceptionPtr@@U?$_StaticAllocator@H@@AAPAUEHExceptionRecord@@_N@std@@YA?AV?$shared_ptr@V__ExceptionPtr@@@0@ABU?$_StaticAllocator@H@@AAPAUEHExceptionRecord@@$$QA_N@Z 1004b683 f i libcpmt:excptptr.obj
 0001:0004a6e5       ??$make_shared@V__ExceptionPtr@@AAPAUEHExceptionRecord@@_N@std@@YA?AV?$shared_ptr@V__ExceptionPtr@@@0@AAPAUEHExceptionRecord@@$$QA_N@Z 1004b6e5 f i libcpmt:excptptr.obj
 0001:0004a735       ??0__ExceptionPtr@@QAE@PBUEHExceptionRecord@@_N@Z 1004b735 f   libcpmt:excptptr.obj
 0001:0004a84f       ??1__ExceptionPtr@@QAE@XZ  1004b84f f   libcpmt:excptptr.obj
 0001:0004a912       ??_G?$_Ref_count_obj@V__ExceptionPtr@@@std@@UAEPAXI@Z 1004b912 f i libcpmt:excptptr.obj
 0001:0004a912       ??_G?$_Ref_count_obj_alloc@V__ExceptionPtr@@U?$_StaticAllocator@H@@@std@@UAEPAXI@Z 1004b912 f i libcpmt:excptptr.obj
 0001:0004a912       ??_E?$_Ref_count_obj@V__ExceptionPtr@@@std@@UAEPAXI@Z 1004b912 f i libcpmt:excptptr.obj
 0001:0004a912       ??_E?$_Ref_count_obj_alloc@V__ExceptionPtr@@U?$_StaticAllocator@H@@@std@@UAEPAXI@Z 1004b912 f i libcpmt:excptptr.obj
 0001:0004a935       ??_G?$shared_ptr@V__ExceptionPtr@@@std@@QAEPAXI@Z 1004b935 f i libcpmt:excptptr.obj
 0001:0004a95e       ?_CallCopyCtor@__ExceptionPtr@@ABEXPAX0IQBU_s_CatchableType@@@Z 1004b95e f   libcpmt:excptptr.obj
 0001:0004a9f1       ?_CopyException@__ExceptionPtr@@SA?AV?$shared_ptr@V__ExceptionPtr@@@std@@PBXPBU_s_ThrowInfo@@_N@Z 1004b9f1 f   libcpmt:excptptr.obj
 0001:0004aac6       ?_CurrentException@__ExceptionPtr@@SA?AV?$shared_ptr@V__ExceptionPtr@@@std@@XZ 1004bac6 f   libcpmt:excptptr.obj
 0001:0004ab65       ?_Delete_this@?$_Ref_count_obj@V__ExceptionPtr@@@std@@EAEXXZ 1004bb65 f i libcpmt:excptptr.obj
 0001:0004ab82       ?_Delete_this@?$_Ref_count_obj_alloc@V__ExceptionPtr@@U?$_StaticAllocator@H@@@std@@EAEXXZ 1004bb82 f i libcpmt:excptptr.obj
 0001:0004ab9b       ?_Destroy@?$_Ref_count_obj@V__ExceptionPtr@@@std@@EAEXXZ 1004bb9b f i libcpmt:excptptr.obj
 0001:0004ab9b       ?_Destroy@?$_Ref_count_obj_alloc@V__ExceptionPtr@@U?$_StaticAllocator@H@@@std@@EAEXXZ 1004bb9b f i libcpmt:excptptr.obj
 0001:0004aba3       ?_InitBadAllocException@__ExceptionPtr@@CA?AV?$shared_ptr@V__ExceptionPtr@@@std@@XZ 1004bba3 f   libcpmt:excptptr.obj
 0001:0004abf6       ?_Reset0@?$_Ptr_base@V__ExceptionPtr@@@std@@QAEXPAV__ExceptionPtr@@PAV_Ref_count_base@2@@Z 1004bbf6 f i libcpmt:excptptr.obj
 0001:0004ac18       ?_RethrowException@__ExceptionPtr@@QBEXXZ 1004bc18 f   libcpmt:excptptr.obj
 0001:0004ad44       ?__ExceptionPtrCopy@@YAXPAXPBX@Z 1004bd44 f   libcpmt:excptptr.obj
 0001:0004ad5f       ?__ExceptionPtrCreate@@YAXPAX@Z 1004bd5f f   libcpmt:excptptr.obj
 0001:0004ad72       ?__ExceptionPtrCurrentException@@YAXPAX@Z 1004bd72 f   libcpmt:excptptr.obj
 0001:0004ad9f       ?__ExceptionPtrDestroy@@YAXPAX@Z 1004bd9f f   libcpmt:excptptr.obj
 0001:0004adae       ?__ExceptionPtrRethrow@@YAXPBX@Z 1004bdae f   libcpmt:excptptr.obj
 0001:0004adc0       ?align@std@@YAPAXIIAAPAXAAI@Z 1004bdc0 f i libcpmt:excptptr.obj
 0001:0004adfb       ??0stl_condition_variable_vista@details@Concurrency@@QAE@XZ 1004bdfb f i libcpmt:cond.obj
 0001:0004ae12       ??0stl_condition_variable_win7@details@Concurrency@@QAE@XZ 1004be12 f i libcpmt:cond.obj
 0001:0004ae29       ?create_stl_condition_variable@details@Concurrency@@YAXPAVstl_condition_variable_interface@12@@Z 1004be29 f i libcpmt:cond.obj
 0001:0004ae9e       ?destroy@stl_condition_variable_concrt@details@Concurrency@@UAEXXZ 1004be9e f i libcpmt:cond.obj
 0001:0004af6e       ?notify_all@stl_condition_variable_concrt@details@Concurrency@@UAEXXZ 1004bf6e f i libcpmt:cond.obj
 0001:0004af76       ?notify_all@stl_condition_variable_win7@details@Concurrency@@UAEXXZ 1004bf76 f i libcpmt:cond.obj
 0001:0004af76       ?notify_all@stl_condition_variable_vista@details@Concurrency@@UAEXXZ 1004bf76 f i libcpmt:cond.obj
 0001:0004af81       ?notify_one@stl_condition_variable_concrt@details@Concurrency@@UAEXXZ 1004bf81 f i libcpmt:cond.obj
 0001:0004af89       ?notify_one@stl_condition_variable_vista@details@Concurrency@@UAEXXZ 1004bf89 f i libcpmt:cond.obj
 0001:0004af89       ?notify_one@stl_condition_variable_win7@details@Concurrency@@UAEXXZ 1004bf89 f i libcpmt:cond.obj
 0001:0004af94       ?wait@stl_condition_variable_concrt@details@Concurrency@@UAEXPAVstl_critical_section_interface@23@@Z 1004bf94 f i libcpmt:cond.obj
 0001:0004afaa       ?wait@stl_condition_variable_vista@details@Concurrency@@UAEXPAVstl_critical_section_interface@23@@Z 1004bfaa f i libcpmt:cond.obj
 0001:0004afc5       ?wait@stl_condition_variable_win7@details@Concurrency@@UAEXPAVstl_critical_section_interface@23@@Z 1004bfc5 f i libcpmt:cond.obj
 0001:0004afe0       ?wait_for@stl_condition_variable_concrt@details@Concurrency@@UAE_NPAVstl_critical_section_interface@23@I@Z 1004bfe0 f i libcpmt:cond.obj
 0001:0004aff9       ?wait_for@stl_condition_variable_vista@details@Concurrency@@UAE_NPAVstl_critical_section_interface@23@I@Z 1004bff9 f i libcpmt:cond.obj
 0001:0004b01c       ?wait_for@stl_condition_variable_win7@details@Concurrency@@UAE_NPAVstl_critical_section_interface@23@I@Z 1004c01c f i libcpmt:cond.obj
 0001:0004b041       __Cnd_broadcast            1004c041 f   libcpmt:cond.obj
 0001:0004b05f       __Cnd_destroy_in_situ      1004c05f f   libcpmt:cond.obj
 0001:0004b07b       __Cnd_init_in_situ         1004c07b f   libcpmt:cond.obj
 0001:0004b080       __Cnd_wait                 1004c080 f   libcpmt:cond.obj
 0001:0004b0a0       __aullrem                  1004c0a0 f   LIBCMT:ullrem.obj
 0001:0004b120       __ftol2_sse                1004c120 f   LIBCMT:_ftol2_.obj
 0001:0004b129       __ftol2_pentium4           1004c129 f   LIBCMT:_ftol2_.obj
 0001:0004b13c       __ftol2_sse_excpt          1004c13c f   LIBCMT:_ftol2_.obj
 0001:0004b160       __ftol2                    1004c160 f   LIBCMT:_ftol2_.obj
 0001:0004b1d5       ??_L@YGXPAXIIP6EX0@Z1@Z    1004c1d5 f   LIBCMT:ehvecctr.obj
 0001:0004b240       __FindPESection            1004c240 f   LIBCMT:pesect.obj
 0001:0004b290       __IsNonwritableInCurrentImage 1004c290 f   LIBCMT:pesect.obj
 0001:0004b350       __ValidateImageBase        1004c350 f   LIBCMT:pesect.obj
 0001:0004b390       __allshl                   1004c390 f   LIBCMT:llshl.obj
 0001:0004b3b0       __aullshr                  1004c3b0 f   LIBCMT:ullshr.obj
 0001:0004b3d0       __SEH_prolog4_GS           1004c3d0 f   LIBCMT:_sehprolg4gs_.obj
 0001:0004b419       __SEH_epilog4_GS           1004c419 f   LIBCMT:_sehprolg4gs_.obj
 0001:0004b430       __alldvrm                  1004c430 f   LIBCMT:lldvrm.obj
 0001:0004b510       __alldiv                   1004c510 f   LIBCMT:lldiv.obj
 0001:0004b5c0       _strrchr                   1004c5c0 f   libvcruntime:strrchr.obj
 0001:0004b700       _strchr                    1004c700 f   libvcruntime:strchr.obj
 0001:0004b76e       ___from_strstr_to_strchr   1004c76e     libvcruntime:strchr.obj
 0001:0004b82b       _wcschr                    1004c82b f   libvcruntime:wcschr.obj
 0001:0004caa0       ??__F_Static@?1???$_Immortalize@V_Iostream_error_category@std@@@std@@YAAAV_Iostream_error_category@0@XZ@YAXXZ 1004daa0 f i addon.obj
 0001:0004caa1       ??__F_Static@?1???$_Immortalize@V_Generic_error_category@std@@@std@@YAAAV_Generic_error_category@0@XZ@YAXXZ 1004daa1 f i libcpmt:thread0.obj
 0002:00000000       __imp__GetCurrentThreadId@0 1004e000     kernel32:KERNEL32.dll
 0002:00000004       __imp__GetCurrentProcessId@0 1004e004     kernel32:KERNEL32.dll
 0002:00000008       __imp__GetModuleHandleA@4  1004e008     kernel32:KERNEL32.dll
 0002:0000000c       __imp__LoadLibraryExA@12   1004e00c     kernel32:KERNEL32.dll
 0002:00000010       __imp__VirtualQuery@12     1004e010     kernel32:KERNEL32.dll
 0002:00000014       __imp__GetSystemInfo@4     1004e014     kernel32:KERNEL32.dll
 0002:00000018       __imp__CreateFileW@28      1004e018     kernel32:KERNEL32.dll
 0002:0000001c       __imp__HeapSize@12         1004e01c     kernel32:KERNEL32.dll
 0002:00000020       __imp__ReadConsoleW@20     1004e020     kernel32:KERNEL32.dll
 0002:00000024       __imp__WriteConsoleW@20    1004e024     kernel32:KERNEL32.dll
 0002:00000028       __imp__SetStdHandle@8      1004e028     kernel32:KERNEL32.dll
 0002:0000002c       __imp__FreeEnvironmentStringsW@4 1004e02c     kernel32:KERNEL32.dll
 0002:00000030       __imp__GetEnvironmentStringsW@0 1004e030     kernel32:KERNEL32.dll
 0002:00000034       __imp__GetCommandLineW@0   1004e034     kernel32:KERNEL32.dll
 0002:00000038       __imp__GetCommandLineA@0   1004e038     kernel32:KERNEL32.dll
 0002:0000003c       __imp__GetOEMCP@0          1004e03c     kernel32:KERNEL32.dll
 0002:00000040       __imp__IsValidCodePage@4   1004e040     kernel32:KERNEL32.dll
 0002:00000044       __imp__FindNextFileA@8     1004e044     kernel32:KERNEL32.dll
 0002:00000048       __imp__FindFirstFileExA@24 1004e048     kernel32:KERNEL32.dll
 0002:0000004c       __imp__FindClose@4         1004e04c     kernel32:KERNEL32.dll
 0002:00000050       __imp__EnterCriticalSection@4 1004e050     kernel32:KERNEL32.dll
 0002:00000054       __imp__LeaveCriticalSection@4 1004e054     kernel32:KERNEL32.dll
 0002:00000058       __imp__TryEnterCriticalSection@4 1004e058     kernel32:KERNEL32.dll
 0002:0000005c       __imp__DeleteCriticalSection@4 1004e05c     kernel32:KERNEL32.dll
 0002:00000060       __imp__WideCharToMultiByte@32 1004e060     kernel32:KERNEL32.dll
 0002:00000064       __imp__QueryPerformanceCounter@4 1004e064     kernel32:KERNEL32.dll
 0002:00000068       __imp__SetLastError@4      1004e068     kernel32:KERNEL32.dll
 0002:0000006c       __imp__InitializeCriticalSectionAndSpinCount@8 1004e06c     kernel32:KERNEL32.dll
 0002:00000070       __imp__CreateEventW@16     1004e070     kernel32:KERNEL32.dll
 0002:00000074       __imp__Sleep@4             1004e074     kernel32:KERNEL32.dll
 0002:00000078       __imp__TlsAlloc@0          1004e078     kernel32:KERNEL32.dll
 0002:0000007c       __imp__TlsGetValue@4       1004e07c     kernel32:KERNEL32.dll
 0002:00000080       __imp__TlsSetValue@8       1004e080     kernel32:KERNEL32.dll
 0002:00000084       __imp__TlsFree@4           1004e084     kernel32:KERNEL32.dll
 0002:00000088       __imp__GetSystemTimeAsFileTime@4 1004e088     kernel32:KERNEL32.dll
 0002:0000008c       __imp__GetTickCount@0      1004e08c     kernel32:KERNEL32.dll
 0002:00000090       __imp__GetModuleHandleW@4  1004e090     kernel32:KERNEL32.dll
 0002:00000094       __imp__GetProcAddress@8    1004e094     kernel32:KERNEL32.dll
 0002:00000098       __imp__EncodePointer@4     1004e098     kernel32:KERNEL32.dll
 0002:0000009c       __imp__DecodePointer@4     1004e09c     kernel32:KERNEL32.dll
 0002:000000a0       __imp__MultiByteToWideChar@24 1004e0a0     kernel32:KERNEL32.dll
 0002:000000a4       __imp__LCMapStringW@24     1004e0a4     kernel32:KERNEL32.dll
 0002:000000a8       __imp__GetLocaleInfoW@16   1004e0a8     kernel32:KERNEL32.dll
 0002:000000ac       __imp__GetStringTypeW@16   1004e0ac     kernel32:KERNEL32.dll
 0002:000000b0       __imp__GetCPInfo@8         1004e0b0     kernel32:KERNEL32.dll
 0002:000000b4       __imp__CloseHandle@4       1004e0b4     kernel32:KERNEL32.dll
 0002:000000b8       __imp__SetEvent@4          1004e0b8     kernel32:KERNEL32.dll
 0002:000000bc       __imp__ResetEvent@4        1004e0bc     kernel32:KERNEL32.dll
 0002:000000c0       __imp__WaitForSingleObjectEx@12 1004e0c0     kernel32:KERNEL32.dll
 0002:000000c4       __imp__UnhandledExceptionFilter@4 1004e0c4     kernel32:KERNEL32.dll
 0002:000000c8       __imp__SetUnhandledExceptionFilter@4 1004e0c8     kernel32:KERNEL32.dll
 0002:000000cc       __imp__GetCurrentProcess@0 1004e0cc     kernel32:KERNEL32.dll
 0002:000000d0       __imp__TerminateProcess@8  1004e0d0     kernel32:KERNEL32.dll
 0002:000000d4       __imp__IsProcessorFeaturePresent@4 1004e0d4     kernel32:KERNEL32.dll
 0002:000000d8       __imp__IsDebuggerPresent@0 1004e0d8     kernel32:KERNEL32.dll
 0002:000000dc       __imp__GetStartupInfoW@4   1004e0dc     kernel32:KERNEL32.dll
 0002:000000e0       __imp__InitializeSListHead@4 1004e0e0     kernel32:KERNEL32.dll
 0002:000000e4       __imp__GetLastError@0      1004e0e4     kernel32:KERNEL32.dll
 0002:000000e8       __imp__SignalObjectAndWait@16 1004e0e8     kernel32:KERNEL32.dll
 0002:000000ec       __imp__SwitchToThread@0    1004e0ec     kernel32:KERNEL32.dll
 0002:000000f0       __imp__CreateThread@24     1004e0f0     kernel32:KERNEL32.dll
 0002:000000f4       __imp__SetThreadPriority@8 1004e0f4     kernel32:KERNEL32.dll
 0002:000000f8       __imp__GetThreadPriority@4 1004e0f8     kernel32:KERNEL32.dll
 0002:000000fc       __imp__GetLogicalProcessorInformation@8 1004e0fc     kernel32:KERNEL32.dll
 0002:00000100       __imp__CreateTimerQueueTimer@28 1004e100     kernel32:KERNEL32.dll
 0002:00000104       __imp__ChangeTimerQueueTimer@16 1004e104     kernel32:KERNEL32.dll
 0002:00000108       __imp__DeleteTimerQueueTimer@12 1004e108     kernel32:KERNEL32.dll
 0002:0000010c       __imp__GetNumaHighestNodeNumber@4 1004e10c     kernel32:KERNEL32.dll
 0002:00000110       __imp__GetProcessAffinityMask@12 1004e110     kernel32:KERNEL32.dll
 0002:00000114       __imp__SetThreadAffinityMask@8 1004e114     kernel32:KERNEL32.dll
 0002:00000118       __imp__RegisterWaitForSingleObject@24 1004e118     kernel32:KERNEL32.dll
 0002:0000011c       __imp__UnregisterWait@4    1004e11c     kernel32:KERNEL32.dll
 0002:00000120       __imp__GetCurrentThread@0  1004e120     kernel32:KERNEL32.dll
 0002:00000124       __imp__GetThreadTimes@20   1004e124     kernel32:KERNEL32.dll
 0002:00000128       __imp__FreeLibrary@4       1004e128     kernel32:KERNEL32.dll
 0002:0000012c       __imp__FreeLibraryAndExitThread@8 1004e12c     kernel32:KERNEL32.dll
 0002:00000130       __imp__GetModuleFileNameW@12 1004e130     kernel32:KERNEL32.dll
 0002:00000134       __imp__LoadLibraryExW@12   1004e134     kernel32:KERNEL32.dll
 0002:00000138       __imp__GetVersionExW@4     1004e138     kernel32:KERNEL32.dll
 0002:0000013c       __imp__VirtualAlloc@16     1004e13c     kernel32:KERNEL32.dll
 0002:00000140       __imp__VirtualFree@12      1004e140     kernel32:KERNEL32.dll
 0002:00000144       __imp__VirtualProtect@16   1004e144     kernel32:KERNEL32.dll
 0002:00000148       __imp__DuplicateHandle@28  1004e148     kernel32:KERNEL32.dll
 0002:0000014c       __imp__ReleaseSemaphore@12 1004e14c     kernel32:KERNEL32.dll
 0002:00000150       __imp__InterlockedPopEntrySList@4 1004e150     kernel32:KERNEL32.dll
 0002:00000154       __imp__InterlockedPushEntrySList@8 1004e154     kernel32:KERNEL32.dll
 0002:00000158       __imp__InterlockedFlushSList@4 1004e158     kernel32:KERNEL32.dll
 0002:0000015c       __imp__QueryDepthSList@4   1004e15c     kernel32:KERNEL32.dll
 0002:00000160       __imp__UnregisterWaitEx@8  1004e160     kernel32:KERNEL32.dll
 0002:00000164       __imp__CreateTimerQueue@0  1004e164     kernel32:KERNEL32.dll
 0002:00000168       __imp__LoadLibraryW@4      1004e168     kernel32:KERNEL32.dll
 0002:0000016c       __imp__RaiseException@16   1004e16c     kernel32:KERNEL32.dll
 0002:00000170       __imp__RtlUnwind@16        1004e170     kernel32:KERNEL32.dll
 0002:00000174       __imp__HeapAlloc@12        1004e174     kernel32:KERNEL32.dll
 0002:00000178       __imp__HeapFree@12         1004e178     kernel32:KERNEL32.dll
 0002:0000017c       __imp__HeapReAlloc@16      1004e17c     kernel32:KERNEL32.dll
 0002:00000180       __imp__ExitProcess@4       1004e180     kernel32:KERNEL32.dll
 0002:00000184       __imp__GetModuleHandleExW@12 1004e184     kernel32:KERNEL32.dll
 0002:00000188       __imp__GetModuleFileNameA@12 1004e188     kernel32:KERNEL32.dll
 0002:0000018c       __imp__GetACP@0            1004e18c     kernel32:KERNEL32.dll
 0002:00000190       __imp__GetStdHandle@4      1004e190     kernel32:KERNEL32.dll
 0002:00000194       __imp__GetFileType@4       1004e194     kernel32:KERNEL32.dll
 0002:00000198       __imp__GetProcessHeap@0    1004e198     kernel32:KERNEL32.dll
 0002:0000019c       __imp__IsValidLocale@8     1004e19c     kernel32:KERNEL32.dll
 0002:000001a0       __imp__GetUserDefaultLCID@0 1004e1a0     kernel32:KERNEL32.dll
 0002:000001a4       __imp__EnumSystemLocalesW@8 1004e1a4     kernel32:KERNEL32.dll
 0002:000001a8       __imp__FlushFileBuffers@4  1004e1a8     kernel32:KERNEL32.dll
 0002:000001ac       __imp__WriteFile@20        1004e1ac     kernel32:KERNEL32.dll
 0002:000001b0       __imp__GetConsoleCP@0      1004e1b0     kernel32:KERNEL32.dll
 0002:000001b4       __imp__GetConsoleMode@8    1004e1b4     kernel32:KERNEL32.dll
 0002:000001b8       __imp__ReadFile@20         1004e1b8     kernel32:KERNEL32.dll
 0002:000001bc       __imp__SetFilePointerEx@20 1004e1bc     kernel32:KERNEL32.dll
 0002:000001c0       \177KERNEL32_NULL_THUNK_DATA 1004e1c0     kernel32:KERNEL32.dll
 0002:000001c4       __imp__WSADuplicateSocketW@12 1004e1c4     ws2_32:WS2_32.dll
 0002:000001c8       __imp__WSASocketW@24       1004e1c8     ws2_32:WS2_32.dll
 0002:000001cc       __imp__getpeername@12      1004e1cc     ws2_32:WS2_32.dll
 0002:000001d0       __imp__inet_ntop@16        1004e1d0     ws2_32:WS2_32.dll
 0002:000001d4       __imp__ntohs@4             1004e1d4     ws2_32:WS2_32.dll
 0002:000001d8       __imp__htons@4             1004e1d8     ws2_32:WS2_32.dll
 0002:000001dc       __imp__accept@12           1004e1dc     ws2_32:WS2_32.dll
 0002:000001e0       __imp__bind@12             1004e1e0     ws2_32:WS2_32.dll
 0002:000001e4       __imp__listen@8            1004e1e4     ws2_32:WS2_32.dll
 0002:000001e8       __imp__getaddrinfo@16      1004e1e8     ws2_32:WS2_32.dll
 0002:000001ec       __imp__socket@12           1004e1ec     ws2_32:WS2_32.dll
 0002:000001f0       __imp__connect@12          1004e1f0     ws2_32:WS2_32.dll
 0002:000001f4       __imp__recv@16             1004e1f4     ws2_32:WS2_32.dll
 0002:000001f8       __imp__freeaddrinfo@4      1004e1f8     ws2_32:WS2_32.dll
 0002:000001fc       __imp__WSACleanup@0        1004e1fc     ws2_32:WS2_32.dll
 0002:00000200       __imp__WSAStartup@8        1004e200     ws2_32:WS2_32.dll
 0002:00000204       __imp__closesocket@4       1004e204     ws2_32:WS2_32.dll
 0002:00000208       __imp__shutdown@8          1004e208     ws2_32:WS2_32.dll
 0002:0000020c       __imp__send@16             1004e20c     ws2_32:WS2_32.dll
 0002:00000210       __imp__setsockopt@20       1004e210     ws2_32:WS2_32.dll
 0002:00000214       __imp__WSAGetLastError@0   1004e214     ws2_32:WS2_32.dll
 0002:00000218       \177WS2_32_NULL_THUNK_DATA 1004e218     ws2_32:WS2_32.dll
 0002:0000021c       ___guard_check_icall_fptr  1004e21c     LIBCMT:guard_support.obj
 0002:00000220       ___xc_a                    1004e220     LIBCMT:initializers.obj
 0002:0000026c       __register_uws_            1004e26c     addon.obj
 0002:0000028c       ___xc_z                    1004e28c     LIBCMT:initializers.obj
 0002:00000290       ___xi_a                    1004e290     LIBCMT:initializers.obj
 0002:0000029c       ___acrt_stdio_initializer  1004e29c     libucrt:stdio_initializer.obj
 0002:000002a0       ___acrt_tran_sse2_initializer 1004e2a0     libucrt:sse2_initializer.obj
 0002:000002a4       ___acrt_timeset_initializer 1004e2a4     libucrt:timeset_initializer.obj
 0002:000002a8       ___acrt_multibyte_initializer 1004e2a8     libucrt:multibyte_initializer.obj
 0002:000002ac       ___xi_z                    1004e2ac     LIBCMT:initializers.obj
 0002:000002b0       ___xl_a                    1004e2b0     LIBCMT:tlssup.obj
 0002:000002b4       ___xl_z                    1004e2b4     LIBCMT:tlssup.obj
 0002:000002b8       ___xp_a                    1004e2b8     LIBCMT:initializers.obj
 0002:000002c0       ___acrt_locale_terminator  1004e2c0     libucrt:locale_initializer.obj
 0002:000002c4       ___dcrt_console_output_terminator 1004e2c4     libucrt:console_output_initializer.obj
 0002:000002c8       ___acrt_stdio_terminator   1004e2c8     libucrt:stdio_initializer.obj
 0002:000002cc       ___xp_z                    1004e2cc     LIBCMT:initializers.obj
 0002:000002d0       ___xt_a                    1004e2d0     LIBCMT:initializers.obj
 0002:000002d4       ___xt_z                    1004e2d4     LIBCMT:initializers.obj
 0002:000002e0       __sz_node_exe              1004e2e0     node:node.exe
 0002:000002f0       ??_7exception@std@@6B@     1004e2f0     libcpmt:xthrow.obj
 0002:000002f8       ??_C@_0BC@EOODALEL@Unknown?5exception?$AA@ 1004e2f8     libcpmt:xthrow.obj
 0002:00000310       ??_7bad_alloc@std@@6B@     1004e310     libcpmt:xthrow.obj
 0002:00000318       ??_C@_0P@GHFPNOJB@bad?5allocation?$AA@ 1004e318     libcpmt:xthrow.obj
 0002:0000032c       ??_7logic_error@std@@6B@   1004e32c     libcpmt:xthrow.obj
 0002:00000338       ??_7invalid_argument@std@@6B@ 1004e338     libcpmt:xthrow.obj
 0002:00000344       ??_7length_error@std@@6B@  1004e344     libcpmt:xthrow.obj
 0002:00000350       ??_7out_of_range@std@@6B@  1004e350     libcpmt:xthrow.obj
 0002:0000035c       ??_7runtime_error@std@@6B@ 1004e35c     libcpmt:xthrow.obj
 0002:00000368       ??_7bad_function_call@std@@6B@ 1004e368     libcpmt:xthrow.obj
 0002:00000370       ??_C@_0BC@DPJNKNAF@bad?5function?5call?$AA@ 1004e370     libcpmt:xthrow.obj
 0002:000003bc       ??_C@_0BI@NGCEHDD@device?5or?5resource?5busy?$AA@ 1004e3bc     libcpmt:thread0.obj
 0002:000003d4       ??_C@_0BB@FCMFBGOM@invalid?5argument?$AA@ 1004e3d4     libcpmt:thread0.obj
 0002:000003e8       ??_C@_0BA@ENLPPKBN@no?5such?5process?$AA@ 1004e3e8     libcpmt:thread0.obj
 0002:000003f8       ??_C@_0BC@ENOOLCNF@not?5enough?5memory?$AA@ 1004e3f8     libcpmt:thread0.obj
 0002:0000040c       ??_C@_0BI@OHIEJAAB@operation?5not?5permitted?$AA@ 1004e40c     libcpmt:thread0.obj
 0002:00000424       ??_C@_0BO@BJBOMOEJ@resource?5deadlock?5would?5occur?$AA@ 1004e424     libcpmt:thread0.obj
 0002:00000444       ??_C@_0BP@LKNGHENJ@resource?5unavailable?5try?5again?$AA@ 1004e444     libcpmt:thread0.obj
 0002:00000468       ??_7error_category@std@@6B@ 1004e468     libcpmt:thread0.obj
 0002:00000484       ??_7_System_error@std@@6B@ 1004e484     libcpmt:thread0.obj
 0002:00000490       ??_7system_error@std@@6B@  1004e490     libcpmt:thread0.obj
 0002:0000049c       ??_7_Generic_error_category@std@@6B@ 1004e49c     libcpmt:thread0.obj
 0002:000004b8       ??_7stl_critical_section_vista@details@Concurrency@@6B@ 1004e4b8     libcpmt:mutex.obj
 0002:000004d0       ??_7stl_critical_section_win7@details@Concurrency@@6B@ 1004e4d0     libcpmt:mutex.obj
 0002:000004e8       ??_7stl_critical_section_concrt@details@Concurrency@@6B@ 1004e4e8     libcpmt:mutex.obj
 0002:00000500       ??_7bad_cast@std@@6B@      1004e500     libcpmt:cout.obj
 0002:00000508       ??_C@_08EPJLHIJG@bad?5cast?$AA@ 1004e508     libcpmt:cout.obj
 0002:00000518       ??_7_Facet_base@std@@6B@   1004e518     libcpmt:cout.obj
 0002:00000528       ??_7?$ctype@D@std@@6B@     1004e528     libcpmt:cout.obj
 0002:00000558       ??_7_Iostream_error_category@std@@6B@ 1004e558     libcpmt:cout.obj
 0002:00000574       ??_7failure@ios_base@std@@6B@ 1004e574     libcpmt:cout.obj
 0002:00000580       ??_7ios_base@std@@6B@      1004e580     libcpmt:cout.obj
 0002:00000588       ??_7?$basic_streambuf@DU?$char_traits@D@std@@@std@@6B@ 1004e588     libcpmt:cout.obj
 0002:000005c8       ??_7?$basic_filebuf@DU?$char_traits@D@std@@@std@@6B@ 1004e5c8     libcpmt:cout.obj
 0002:00000608       ??_7?$basic_ios@DU?$char_traits@D@std@@@std@@6B@ 1004e608     libcpmt:cout.obj
 0002:00000610       ??_7?$basic_ostream@DU?$char_traits@D@std@@@std@@6B@ 1004e610     libcpmt:cout.obj
 0002:00000614       ??_8?$basic_ostream@DU?$char_traits@D@std@@@std@@7B@ 1004e614     libcpmt:cout.obj
 0002:00000620       ??_7?$codecvt@DDU_Mbstatet@@@std@@6B@ 1004e620     libcpmt:cout.obj
 0002:0000064c       ??_7_Locimp@locale@std@@6B@ 1004e64c     libcpmt:locale0.obj
 0002:00000658       ??_C@_01NBENCBCI@?$CK?$AA@ 1004e658     libcpmt:locale0.obj
 0002:0000065c       ??_C@_01GFHCPBMG@C?$AA@    1004e65c     libcpmt:locale0.obj
 0002:00000660       ??_C@_0BD@JPHBMONG@identifier?5removed?$AA@ 1004e660     libcpmt:syserror.obj
 0002:00000674       ??_C@_0BG@CDNPAGJK@illegal?5byte?5sequence?$AA@ 1004e674     libcpmt:syserror.obj
 0002:0000068c       ??_C@_0CD@BNPLBMNA@inappropriate?5io?5control?5operati@ 1004e68c     libcpmt:syserror.obj
 0002:000006b0       ??_C@_0M@EGEKIIMP@interrupted?$AA@ 1004e6b0     libcpmt:syserror.obj
 0002:000006bc       ??_C@_0N@OHAFKDEK@invalid?5seek?$AA@ 1004e6bc     libcpmt:syserror.obj
 0002:000006cc       ??_C@_08GLNPIFBN@io?5error?$AA@ 1004e6cc     libcpmt:syserror.obj
 0002:000006d8       ??_C@_0P@FLLDBIDK@is?5a?5directory?$AA@ 1004e6d8     libcpmt:syserror.obj
 0002:000006e8       ??_C@_0N@IFLPBIOP@message?5size?$AA@ 1004e6e8     libcpmt:syserror.obj
 0002:000006f8       ??_C@_0N@KIIEAAIO@network?5down?$AA@ 1004e6f8     libcpmt:syserror.obj
 0002:00000708       ??_C@_0O@FNPDBHEE@network?5reset?$AA@ 1004e708     libcpmt:syserror.obj
 0002:00000718       ??_C@_0BE@IFNCKGE@network?5unreachable?$AA@ 1004e718     libcpmt:syserror.obj
 0002:0000072c       ??_C@_0BA@PFFCAOFK@no?5buffer?5space?$AA@ 1004e72c     libcpmt:syserror.obj
 0002:0000073c       ??_C@_0BB@IEPBLJHK@no?5child?5process?$AA@ 1004e73c     libcpmt:syserror.obj
 0002:00000750       ??_C@_07PLECNNKG@no?5link?$AA@ 1004e750     libcpmt:syserror.obj
 0002:00000758       ??_C@_0BC@NJECKMKE@no?5lock?5available?$AA@ 1004e758     libcpmt:syserror.obj
 0002:0000076c       ??_C@_0BF@PBGGPKKE@no?5message?5available?$AA@ 1004e76c     libcpmt:syserror.obj
 0002:00000784       ??_C@_0L@EDOLMPAK@no?5message?$AA@ 1004e784     libcpmt:syserror.obj
 0002:00000790       ??_C@_0BD@EAMBFIDF@no?5protocol?5option?$AA@ 1004e790     libcpmt:syserror.obj
 0002:000007a4       ??_C@_0BD@IJDJKDEA@no?5space?5on?5device?$AA@ 1004e7a4     libcpmt:syserror.obj
 0002:000007b8       ??_C@_0BE@MKFDAFMP@no?5stream?5resources?$AA@ 1004e7b8     libcpmt:syserror.obj
 0002:000007cc       ??_C@_0BK@IMCPHCBI@no?5such?5device?5or?5address?$AA@ 1004e7cc     libcpmt:syserror.obj
 0002:000007e8       ??_C@_0P@FDINDDOK@no?5such?5device?$AA@ 1004e7e8     libcpmt:syserror.obj
 0002:000007f8       ??_C@_0BK@NDOCBPGE@no?5such?5file?5or?5directory?$AA@ 1004e7f8     libcpmt:syserror.obj
 0002:00000814       ??_C@_0BA@DOCPFFJG@not?5a?5directory?$AA@ 1004e814     libcpmt:syserror.obj
 0002:00000824       ??_C@_0N@POEIPGGF@not?5a?5socket?$AA@ 1004e824     libcpmt:syserror.obj
 0002:00000834       ??_C@_0N@LGAPMMPI@not?5a?5stream?$AA@ 1004e834     libcpmt:syserror.obj
 0002:00000844       ??_C@_0O@GLMIBBEG@not?5connected?$AA@ 1004e844     libcpmt:syserror.obj
 0002:00000854       ??_C@_0O@NHEDABJP@not?5supported?$AA@ 1004e854     libcpmt:syserror.obj
 0002:00000864       ??_C@_0BD@MOLBPMEA@operation?5canceled?$AA@ 1004e864     libcpmt:syserror.obj
 0002:00000878       ??_C@_0BG@KDKHOPCO@operation?5in?5progress?$AA@ 1004e878     libcpmt:syserror.obj
 0002:00000890       ??_C@_0BI@LNEGIFLN@operation?5not?5supported?$AA@ 1004e890     libcpmt:syserror.obj
 0002:000008a8       ??_C@_0BG@OEMDKMEE@operation?5would?5block?$AA@ 1004e8a8     libcpmt:syserror.obj
 0002:000008c0       ??_C@_0L@BLPOFLNJ@owner?5dead?$AA@ 1004e8c0     libcpmt:syserror.obj
 0002:000008cc       ??_C@_0BC@CIJDGCDI@permission?5denied?$AA@ 1004e8cc     libcpmt:syserror.obj
 0002:000008e0       ??_C@_0P@FNPOCJBE@protocol?5error?$AA@ 1004e8e0     libcpmt:syserror.obj
 0002:000008f0       ??_C@_0BH@JPPPLHJB@protocol?5not?5supported?$AA@ 1004e8f0     libcpmt:syserror.obj
 0002:00000908       ??_C@_0BG@EICBIHDP@read?5only?5file?5system?$AA@ 1004e908     libcpmt:syserror.obj
 0002:00000920       ??_C@_0BE@GOIPJJHG@result?5out?5of?5range?$AA@ 1004e920     libcpmt:syserror.obj
 0002:00000934       ??_C@_0BG@MPLKFPAE@state?5not?5recoverable?$AA@ 1004e934     libcpmt:syserror.obj
 0002:0000094c       ??_C@_0P@DIIFGFCG@stream?5timeout?$AA@ 1004e94c     libcpmt:syserror.obj
 0002:0000095c       ??_C@_0P@IPFDMIFL@text?5file?5busy?$AA@ 1004e95c     libcpmt:syserror.obj
 0002:0000096c       ??_C@_09KJPPMAOI@timed?5out?$AA@ 1004e96c     libcpmt:syserror.obj
 0002:00000978       ??_C@_0BO@HACHBEKI@too?5many?5files?5open?5in?5system?$AA@ 1004e978     libcpmt:syserror.obj
 0002:00000998       ??_C@_0BE@GHAFMPAH@too?5many?5files?5open?$AA@ 1004e998     libcpmt:syserror.obj
 0002:000009ac       ??_C@_0P@HCOMKFCC@too?5many?5links?$AA@ 1004e9ac     libcpmt:syserror.obj
 0002:000009bc       ??_C@_0BO@EFGOJEF@too?5many?5symbolic?5link?5levels?$AA@ 1004e9bc     libcpmt:syserror.obj
 0002:000009dc       ??_C@_0BA@KGKGOOJA@value?5too?5large?$AA@ 1004e9dc     libcpmt:syserror.obj
 0002:000009ec       ??_C@_0BE@MIEJDDNH@wrong?5protocol?5type?$AA@ 1004e9ec     libcpmt:syserror.obj
 0002:00000ec0       ??_C@_0BN@LKKBCCDB@address?5family?5not?5supported?$AA@ 1004eec0     libcpmt:syserror.obj
 0002:00000ee0       ??_C@_0P@LDMLAFHI@address?5in?5use?$AA@ 1004eee0     libcpmt:syserror.obj
 0002:00000ef0       ??_C@_0BG@DHPCNBJB@address?5not?5available?$AA@ 1004eef0     libcpmt:syserror.obj
 0002:00000f08       ??_C@_0BC@DFIBIBIL@already?5connected?$AA@ 1004ef08     libcpmt:syserror.obj
 0002:00000f1c       ??_C@_0BH@CAKOHOMI@argument?5list?5too?5long?$AA@ 1004ef1c     libcpmt:syserror.obj
 0002:00000f34       ??_C@_0BH@CGIMPKIM@argument?5out?5of?5domain?$AA@ 1004ef34     libcpmt:syserror.obj
 0002:00000f4c       ??_C@_0M@KGHGGJGL@bad?5address?$AA@ 1004ef4c     libcpmt:syserror.obj
 0002:00000f58       ??_C@_0BE@MPJPGCEO@bad?5file?5descriptor?$AA@ 1004ef58     libcpmt:syserror.obj
 0002:00000f6c       ??_C@_0M@PMMIEFCP@bad?5message?$AA@ 1004ef6c     libcpmt:syserror.obj
 0002:00000f78       ??_C@_0M@KPHOFDBE@broken?5pipe?$AA@ 1004ef78     libcpmt:syserror.obj
 0002:00000f84       ??_C@_0BD@MGNDDEGM@connection?5aborted?$AA@ 1004ef84     libcpmt:syserror.obj
 0002:00000f98       ??_C@_0BP@KAIHPOGN@connection?5already?5in?5progress?$AA@ 1004ef98     libcpmt:syserror.obj
 0002:00000fb8       ??_C@_0BD@PJLIIJEL@connection?5refused?$AA@ 1004efb8     libcpmt:syserror.obj
 0002:00000fcc       ??_C@_0BB@IECNJNOI@connection?5reset?$AA@ 1004efcc     libcpmt:syserror.obj
 0002:00000fe0       ??_C@_0BC@PPHBOELF@cross?5device?5link?$AA@ 1004efe0     libcpmt:syserror.obj
 0002:00000ff4       ??_C@_0BN@KDMIFEIP@destination?5address?5required?$AA@ 1004eff4     libcpmt:syserror.obj
 0002:00001014       ??_C@_0BE@JIDOCPHM@directory?5not?5empty?$AA@ 1004f014     libcpmt:syserror.obj
 0002:00001028       ??_C@_0BI@BNCLIGPB@executable?5format?5error?$AA@ 1004f028     libcpmt:syserror.obj
 0002:00001040       ??_C@_0M@MIDIAGJP@file?5exists?$AA@ 1004f040     libcpmt:syserror.obj
 0002:0000104c       ??_C@_0P@DNAJLBJK@file?5too?5large?$AA@ 1004f04c     libcpmt:syserror.obj
 0002:0000105c       ??_C@_0BC@EJHOMAAK@filename?5too?5long?$AA@ 1004f05c     libcpmt:syserror.obj
 0002:00001070       ??_C@_0BH@KEFGLDAF@function?5not?5supported?$AA@ 1004f070     libcpmt:syserror.obj
 0002:00001088       ??_C@_0BB@DHFDFGDM@host?5unreachable?$AA@ 1004f088     libcpmt:syserror.obj
 0002:0000109c       ??_C@_0O@BFJCFAAK@unknown?5error?$AA@ 1004f09c     libcpmt:syserror.obj
 0002:000010ac       ??_C@_1BK@MGMFAEKH@?$AAk?$AAe?$AAr?$AAn?$AAe?$AAl?$AA3?$AA2?$AA?4?$AAd?$AAl?$AAl?$AA?$AA@ 1004f0ac     libcpmt:winapisupp.obj
 0002:000010c8       ??_C@_08KNHFBNJ@FlsAlloc?$AA@ 1004f0c8     libcpmt:winapisupp.obj
 0002:000010d4       ??_C@_07PEJMOBNF@FlsFree?$AA@ 1004f0d4     libcpmt:winapisupp.obj
 0002:000010dc       ??_C@_0M@GDNOONDI@FlsGetValue?$AA@ 1004f0dc     libcpmt:winapisupp.obj
 0002:000010e8       ??_C@_0M@JCPCPOEF@FlsSetValue?$AA@ 1004f0e8     libcpmt:winapisupp.obj
 0002:000010f4       ??_C@_0BM@HCFOFFN@InitializeCriticalSectionEx?$AA@ 1004f0f4     libcpmt:winapisupp.obj
 0002:00001110       ??_C@_0BE@GPLMMCMH@InitOnceExecuteOnce?$AA@ 1004f110     libcpmt:winapisupp.obj
 0002:00001124       ??_C@_0P@DLHPPCNH@CreateEventExW?$AA@ 1004f124     libcpmt:winapisupp.obj
 0002:00001134       ??_C@_0BB@MEFPJLHN@CreateSemaphoreW?$AA@ 1004f134     libcpmt:winapisupp.obj
 0002:00001148       ??_C@_0BD@KIEEOEEH@CreateSemaphoreExW?$AA@ 1004f148     libcpmt:winapisupp.obj
 0002:0000115c       ??_C@_0BG@OGFAJCKC@CreateThreadpoolTimer?$AA@ 1004f15c     libcpmt:winapisupp.obj
 0002:00001174       ??_C@_0BD@LPLEMMDI@SetThreadpoolTimer?$AA@ 1004f174     libcpmt:winapisupp.obj
 0002:00001188       ??_C@_0CA@FMNJENH@WaitForThreadpoolTimerCallbacks?$AA@ 1004f188     libcpmt:winapisupp.obj
 0002:000011a8       ??_C@_0BF@DCFCCNOC@CloseThreadpoolTimer?$AA@ 1004f1a8     libcpmt:winapisupp.obj
 0002:000011c0       ??_C@_0BF@FLABGKKM@CreateThreadpoolWait?$AA@ 1004f1c0     libcpmt:winapisupp.obj
 0002:000011d8       ??_C@_0BC@MGCOHNA@SetThreadpoolWait?$AA@ 1004f1d8     libcpmt:winapisupp.obj
 0002:000011ec       ??_C@_0BE@OCIOMIMP@CloseThreadpoolWait?$AA@ 1004f1ec     libcpmt:winapisupp.obj
 0002:00001200       ??_C@_0BJ@LKGHFHBO@FlushProcessWriteBuffers?$AA@ 1004f200     libcpmt:winapisupp.obj
 0002:0000121c       ??_C@_0BP@KALKKPMO@FreeLibraryWhenCallbackReturns?$AA@ 1004f21c     libcpmt:winapisupp.obj
 0002:0000123c       ??_C@_0BK@DFNBACLA@GetCurrentProcessorNumber?$AA@ 1004f23c     libcpmt:winapisupp.obj
 0002:00001258       ??_C@_0BE@FKKLLFLM@CreateSymbolicLinkW?$AA@ 1004f258     libcpmt:winapisupp.obj
 0002:0000126c       ??_C@_0BE@JOGNEJCI@GetCurrentPackageId?$AA@ 1004f26c     libcpmt:winapisupp.obj
 0002:00001280       ??_C@_0P@CDHHOHKP@GetTickCount64?$AA@ 1004f280     libcpmt:winapisupp.obj
 0002:00001290       ??_C@_0BN@NEEHBBPO@GetFileInformationByHandleEx?$AA@ 1004f290     libcpmt:winapisupp.obj
 0002:000012b0       ??_C@_0BL@KBBHGKCM@SetFileInformationByHandle?$AA@ 1004f2b0     libcpmt:winapisupp.obj
 0002:000012cc       ??_C@_0BP@FPNJPEJC@GetSystemTimePreciseAsFileTime?$AA@ 1004f2cc     libcpmt:winapisupp.obj
 0002:000012ec       ??_C@_0BM@HLJJNPAH@InitializeConditionVariable?$AA@ 1004f2ec     libcpmt:winapisupp.obj
 0002:00001308       ??_C@_0BG@BFNILBLN@WakeConditionVariable?$AA@ 1004f308     libcpmt:winapisupp.obj
 0002:00001320       ??_C@_0BJ@PGPPEPCC@WakeAllConditionVariable?$AA@ 1004f320     libcpmt:winapisupp.obj
 0002:0000133c       ??_C@_0BJ@JEBJOJFJ@SleepConditionVariableCS?$AA@ 1004f33c     libcpmt:winapisupp.obj
 0002:00001358       ??_C@_0BC@MMLHEBPB@InitializeSRWLock?$AA@ 1004f358     libcpmt:winapisupp.obj
 0002:0000136c       ??_C@_0BI@OMNLIJDB@AcquireSRWLockExclusive?$AA@ 1004f36c     libcpmt:winapisupp.obj
 0002:00001384       ??_C@_0BL@OGHFEMNA@TryAcquireSRWLockExclusive?$AA@ 1004f384     libcpmt:winapisupp.obj
 0002:000013a0       ??_C@_0BI@HMIEPCNJ@ReleaseSRWLockExclusive?$AA@ 1004f3a0     libcpmt:winapisupp.obj
 0002:000013b8       ??_C@_0BK@LGACAGIC@SleepConditionVariableSRW?$AA@ 1004f3b8     libcpmt:winapisupp.obj
 0002:000013d4       ??_C@_0BF@GGPHFPJA@CreateThreadpoolWork?$AA@ 1004f3d4     libcpmt:winapisupp.obj
 0002:000013ec       ??_C@_0BF@NHDAIMMO@SubmitThreadpoolWork?$AA@ 1004f3ec     libcpmt:winapisupp.obj
 0002:00001404       ??_C@_0BE@NPHIPNPD@CloseThreadpoolWork?$AA@ 1004f404     libcpmt:winapisupp.obj
 0002:00001418       ??_C@_0BA@IHGNDAEB@CompareStringEx?$AA@ 1004f418     libcpmt:winapisupp.obj
 0002:00001428       ??_C@_0BA@ONOKGCMP@GetLocaleInfoEx?$AA@ 1004f428     libcpmt:winapisupp.obj
 0002:00001438       ??_C@_0O@KKBNKAPF@LCMapStringEx?$AA@ 1004f438     libcpmt:winapisupp.obj
 0002:00001448       ?_BADOFF@std@@3_JB         1004f448     libcpmt:ios.obj
 0002:00001454       ??_7?$num_put@DV?$ostreambuf_iterator@DU?$char_traits@D@std@@@std@@@std@@6B@ 1004f454     libcpmt:locale.obj
 0002:00001484       ??_7?$numpunct@D@std@@6B@  1004f484     libcpmt:locale.obj
 0002:000014a8       __real@4024000000000000    1004f4a8     libcpmt:locale.obj
 0002:000014b0       ??_C@_11LOCGONAA@?$AA?$AA@ 1004f4b0     libcpmt:wlocale.obj
 0002:000014b4       ??_C@_01JOAMLHOP@?9?$AA@   1004f4b4     libcpmt:wlocale.obj
 0002:000014b8       __real@0000000000000000    1004f4b8     libcpmt:wlocale.obj
 0002:000023a0       ??_C@_15EMKDOKLE@?$AAa?$AAr?$AA?$AA@ 100503a0     libcpmt:winapinls.obj
 0002:000023a8       ??_C@_15KNPADPLH@?$AAb?$AAg?$AA?$AA@ 100503a8     libcpmt:winapinls.obj
 0002:000023b0       ??_C@_15EDMHLDMO@?$AAc?$AAa?$AA?$AA@ 100503b0     libcpmt:winapinls.obj
 0002:000023b8       ??_C@_1O@BPEAJADD@?$AAz?$AAh?$AA?9?$AAC?$AAH?$AAS?$AA?$AA@ 100503b8     libcpmt:winapinls.obj
 0002:000023c8       ??_C@_15LJNHCMNK@?$AAc?$AAs?$AA?$AA@ 100503c8     libcpmt:winapinls.obj
 0002:000023d0       ??_C@_15FOMCIDHG@?$AAd?$AAa?$AA?$AA@ 100503d0     libcpmt:winapinls.obj
 0002:000023d8       ??_C@_15NBKABECB@?$AAd?$AAe?$AA?$AA@ 100503d8     libcpmt:winapinls.obj
 0002:000023e0       ??_C@_15GHPEIIAO@?$AAe?$AAl?$AA?$AA@ 100503e0     libcpmt:winapinls.obj
 0002:000023e8       ??_C@_15MNPNEAIF@?$AAe?$AAn?$AA?$AA@ 100503e8     libcpmt:winapinls.obj
 0002:000023f0       ??_C@_15GPIOMPMH@?$AAe?$AAs?$AA?$AA@ 100503f0     libcpmt:winapinls.obj
 0002:000023f8       ??_C@_15NGLOAKJC@?$AAf?$AAi?$AA?$AA@ 100503f8     libcpmt:winapinls.obj
 0002:00002400       ??_C@_15FBKGNKAM@?$AAf?$AAr?$AA?$AA@ 10050400     libcpmt:winapinls.obj
 0002:00002408       ??_C@_15KGGCNEFK@?$AAh?$AAe?$AA?$AA@ 10050408     libcpmt:winapinls.obj
 0002:00002410       ??_C@_15PGHLIDMF@?$AAh?$AAu?$AA?$AA@ 10050410     libcpmt:winapinls.obj
 0002:00002418       ??_C@_15BIEMAPLM@?$AAi?$AAs?$AA?$AA@ 10050418     libcpmt:winapinls.obj
 0002:00002420       ??_C@_15IFJLDHAF@?$AAi?$AAt?$AA?$AA@ 10050420     libcpmt:winapinls.obj
 0002:00002428       ??_C@_15GEMIOCAG@?$AAj?$AAa?$AA?$AA@ 10050428     libcpmt:winapinls.obj
 0002:00002430       ??_C@_15EPELEGJA@?$AAk?$AAo?$AA?$AA@ 10050430     libcpmt:winapinls.obj
 0002:00002438       ??_C@_15NDDHIMN@?$AAn?$AAl?$AA?$AA@ 10050438     libcpmt:winapinls.obj
 0002:00002440       ??_C@_15BPIGNHCD@?$AAn?$AAo?$AA?$AA@ 10050440     libcpmt:winapinls.obj
 0002:00002448       ??_C@_15DEOPBLCG@?$AAp?$AAl?$AA?$AA@ 10050448     libcpmt:winapinls.obj
 0002:00002450       ??_C@_15KBECGEFG@?$AAp?$AAt?$AA?$AA@ 10050450     libcpmt:winapinls.obj
 0002:00002458       ??_C@_15GLJCBFMD@?$AAr?$AAo?$AA?$AA@ 10050458     libcpmt:winapinls.obj
 0002:00002460       ??_C@_15FEDGKCDI@?$AAr?$AAu?$AA?$AA@ 10050460     libcpmt:winapinls.obj
 0002:00002468       ??_C@_15GLKMLLHM@?$AAh?$AAr?$AA?$AA@ 10050468     libcpmt:winapinls.obj
 0002:00002470       ??_C@_15CPKMFBDB@?$AAs?$AAk?$AA?$AA@ 10050470     libcpmt:winapinls.obj
 0002:00002478       ??_C@_15BAAIOGMK@?$AAs?$AAq?$AA?$AA@ 10050478     libcpmt:winapinls.obj
 0002:00002480       ??_C@_15INNPNOHD@?$AAs?$AAv?$AA?$AA@ 10050480     libcpmt:winapinls.obj
 0002:00002488       ??_C@_15CABMMOGH@?$AAt?$AAh?$AA?$AA@ 10050488     libcpmt:winapinls.obj
 0002:00002490       ??_C@_15BPLIHJJM@?$AAt?$AAr?$AA?$AA@ 10050490     libcpmt:winapinls.obj
 0002:00002498       ??_C@_15NEOEKKDJ@?$AAu?$AAr?$AA?$AA@ 10050498     libcpmt:winapinls.obj
 0002:000024a0       ??_C@_15NFICGAJK@?$AAi?$AAd?$AA?$AA@ 100504a0     libcpmt:winapinls.obj
 0002:000024a8       ??_C@_15PJPFLCCM@?$AAu?$AAk?$AA?$AA@ 100504a8     libcpmt:winapinls.obj
 0002:000024b0       ??_C@_15HPJPHDM@?$AAb?$AAe?$AA?$AA@ 100504b0     libcpmt:winapinls.obj
 0002:000024b8       ??_C@_15LCHLGJII@?$AAs?$AAl?$AA?$AA@ 100504b8     libcpmt:winapinls.obj
 0002:000024c0       ??_C@_15PCFJPHHO@?$AAe?$AAt?$AA?$AA@ 100504c0     libcpmt:winapinls.obj
 0002:000024c8       ??_C@_15HPFPGODN@?$AAl?$AAv?$AA?$AA@ 100504c8     libcpmt:winapinls.obj
 0002:000024d0       ??_C@_15NFFGKGLG@?$AAl?$AAt?$AA?$AA@ 100504d0     libcpmt:winapinls.obj
 0002:000024d8       ??_C@_15BDAKCCHN@?$AAf?$AAa?$AA?$AA@ 100504d8     libcpmt:winapinls.obj
 0002:000024e0       ??_C@_15NFGIAIAJ@?$AAv?$AAi?$AA?$AA@ 100504e0     libcpmt:winapinls.obj
 0002:000024e8       ??_C@_15LMKNDMHN@?$AAh?$AAy?$AA?$AA@ 100504e8     libcpmt:winapinls.obj
 0002:000024f0       ??_C@_15IJBHMCFL@?$AAa?$AAz?$AA?$AA@ 100504f0     libcpmt:winapinls.obj
 0002:000024f8       ??_C@_15EKOFJABL@?$AAe?$AAu?$AA?$AA@ 100504f8     libcpmt:winapinls.obj
 0002:00002500       ??_C@_15BGHADCNK@?$AAm?$AAk?$AA?$AA@ 10050500     libcpmt:winapinls.obj
 0002:00002508       ??_C@_15JDNICKHM@?$AAa?$AAf?$AA?$AA@ 10050508     libcpmt:winapinls.obj
 0002:00002510       ??_C@_15KPJEDBKD@?$AAk?$AAa?$AA?$AA@ 10050510     libcpmt:winapinls.obj
 0002:00002518       ??_C@_15PDNFFFEO@?$AAf?$AAo?$AA?$AA@ 10050518     libcpmt:winapinls.obj
 0002:00002520       ??_C@_15OMLEGLOC@?$AAh?$AAi?$AA?$AA@ 10050520     libcpmt:winapinls.obj
 0002:00002528       ??_C@_15IDNNENKK@?$AAm?$AAs?$AA?$AA@ 10050528     libcpmt:winapinls.obj
 0002:00002530       ??_C@_15MACJNBMH@?$AAk?$AAk?$AA?$AA@ 10050530     libcpmt:winapinls.obj
 0002:00002538       ??_C@_15DKDJEOND@?$AAk?$AAy?$AA?$AA@ 10050538     libcpmt:winapinls.obj
 0002:00002540       ??_C@_15DFGDLJBG@?$AAs?$AAw?$AA?$AA@ 10050540     libcpmt:winapinls.obj
 0002:00002548       ??_C@_15BBFAICNG@?$AAu?$AAz?$AA?$AA@ 10050548     libcpmt:winapinls.obj
 0002:00002550       ??_C@_15DKNDCGEA@?$AAt?$AAt?$AA?$AA@ 10050550     libcpmt:winapinls.obj
 0002:00002558       ??_C@_15MGIFMDPL@?$AAp?$AAa?$AA?$AA@ 10050558     libcpmt:winapinls.obj
 0002:00002560       ??_C@_15HCNDBBA@?$AAg?$AAu?$AA?$AA@ 10050560     libcpmt:winapinls.obj
 0002:00002568       ??_C@_15FNBEIBON@?$AAt?$AAa?$AA?$AA@ 10050568     libcpmt:winapinls.obj
 0002:00002570       ??_C@_15NCHGBGLK@?$AAt?$AAe?$AA?$AA@ 10050570     libcpmt:winapinls.obj
 0002:00002578       ??_C@_15PHPHCBPF@?$AAk?$AAn?$AA?$AA@ 10050578     libcpmt:winapinls.obj
 0002:00002580       ??_C@_15DLGBCKMP@?$AAm?$AAr?$AA?$AA@ 10050580     libcpmt:winapinls.obj
 0002:00002588       ??_C@_15EABBLBFF@?$AAs?$AAa?$AA?$AA@ 10050588     libcpmt:winapinls.obj
 0002:00002590       ??_C@_15CBKOMCOI@?$AAm?$AAn?$AA?$AA@ 10050590     libcpmt:winapinls.obj
 0002:00002598       ??_C@_15CKDMCJAF@?$AAg?$AAl?$AA?$AA@ 10050598     libcpmt:winapinls.obj
 0002:000025a0       ??_C@_17CNJFBPG@?$AAk?$AAo?$AAk?$AA?$AA@ 100505a0     libcpmt:winapinls.obj
 0002:000025a8       ??_C@_17FFBJICPL@?$AAs?$AAy?$AAr?$AA?$AA@ 100505a8     libcpmt:winapinls.obj
 0002:000025b0       ??_C@_17KPNDCPAF@?$AAd?$AAi?$AAv?$AA?$AA@ 100505b0     libcpmt:winapinls.obj
 0002:000025b8       ??_C@_1M@OKAHONE@?$AAa?$AAr?$AA?9?$AAS?$AAA?$AA?$AA@ 100505b8     libcpmt:winapinls.obj
 0002:000025c4       ??_C@_1M@FFFIGIGK@?$AAb?$AAg?$AA?9?$AAB?$AAG?$AA?$AA@ 100505c4     libcpmt:winapinls.obj
 0002:000025d0       ??_C@_1M@BJNKEDC@?$AAc?$AAa?$AA?9?$AAE?$AAS?$AA?$AA@ 100505d0     libcpmt:winapinls.obj
 0002:000025dc       ??_C@_1M@CLNBBOPM@?$AAz?$AAh?$AA?9?$AAT?$AAW?$AA?$AA@ 100505dc     libcpmt:winapinls.obj
 0002:000025e8       ??_C@_1M@IJJHFJHA@?$AAc?$AAs?$AA?9?$AAC?$AAZ?$AA?$AA@ 100505e8     libcpmt:winapinls.obj
 0002:000025f4       ??_C@_1M@CLPEOBGI@?$AAd?$AAa?$AA?9?$AAD?$AAK?$AA?$AA@ 100505f4     libcpmt:winapinls.obj
 0002:00002600       ??_C@_1M@MCMADGCB@?$AAd?$AAe?$AA?9?$AAD?$AAE?$AA?$AA@ 10050600     libcpmt:winapinls.obj
 0002:0000260c       ??_C@_1M@OOCKEMAM@?$AAe?$AAl?$AA?9?$AAG?$AAR?$AA?$AA@ 1005060c     libcpmt:winapinls.obj
 0002:00002618       ??_C@_1M@BMHNFIME@?$AAe?$AAn?$AA?9?$AAU?$AAS?$AA?$AA@ 10050618     libcpmt:winapinls.obj
 0002:00002624       ??_C@_1M@DDNJFGID@?$AAf?$AAi?$AA?9?$AAF?$AAI?$AA?$AA@ 10050624     libcpmt:winapinls.obj
 0002:00002630       ??_C@_1M@GLIPPMAC@?$AAf?$AAr?$AA?9?$AAF?$AAR?$AA?$AA@ 10050630     libcpmt:winapinls.obj
 0002:0000263c       ??_C@_1M@GFMCHPE@?$AAh?$AAe?$AA?9?$AAI?$AAL?$AA?$AA@ 1005063c     libcpmt:winapinls.obj
 0002:00002648       ??_C@_1M@MHLPGNKM@?$AAh?$AAu?$AA?9?$AAH?$AAU?$AA?$AA@ 10050648     libcpmt:winapinls.obj
 0002:00002654       ??_C@_1M@LPDDNNPN@?$AAi?$AAs?$AA?9?$AAI?$AAS?$AA?$AA@ 10050654     libcpmt:winapinls.obj
 0002:00002660       ??_C@_1M@MADIPODN@?$AAi?$AAt?$AA?9?$AAI?$AAT?$AA?$AA@ 10050660     libcpmt:winapinls.obj
 0002:0000266c       ??_C@_1M@HPNHIDJI@?$AAj?$AAa?$AA?9?$AAJ?$AAP?$AA?$AA@ 1005066c     libcpmt:winapinls.obj
 0002:00002678       ??_C@_1M@JLOOOEGK@?$AAk?$AAo?$AA?9?$AAK?$AAR?$AA?$AA@ 10050678     libcpmt:winapinls.obj
 0002:00002684       ??_C@_1M@IHBJJGG@?$AAn?$AAl?$AA?9?$AAN?$AAL?$AA?$AA@ 10050684     libcpmt:winapinls.obj
 0002:00002690       ??_C@_1M@EANAGDL@?$AAn?$AAb?$AA?9?$AAN?$AAO?$AA?$AA@ 10050690     libcpmt:winapinls.obj
 0002:0000269c       ??_C@_1M@NEIEMEGP@?$AAp?$AAl?$AA?9?$AAP?$AAL?$AA?$AA@ 1005069c     libcpmt:winapinls.obj
 0002:000026a8       ??_C@_1M@BOCFIGEP@?$AAp?$AAt?$AA?9?$AAB?$AAR?$AA?$AA@ 100506a8     libcpmt:winapinls.obj
 0002:000026b4       ??_C@_1M@IMPFOPBG@?$AAr?$AAo?$AA?9?$AAR?$AAO?$AA?$AA@ 100506b4     libcpmt:winapinls.obj
 0002:000026c0       ??_C@_1M@IDNNEJMM@?$AAr?$AAu?$AA?9?$AAR?$AAU?$AA?$AA@ 100506c0     libcpmt:winapinls.obj
 0002:000026cc       ??_C@_1M@LILEEOGM@?$AAh?$AAr?$AA?9?$AAH?$AAR?$AA?$AA@ 100506cc     libcpmt:winapinls.obj
 0002:000026d8       ??_C@_1M@FKIFEHPB@?$AAs?$AAk?$AA?9?$AAS?$AAK?$AA?$AA@ 100506d8     libcpmt:winapinls.obj
 0002:000026e4       ??_C@_1M@LJMAMNPJ@?$AAs?$AAq?$AA?9?$AAA?$AAL?$AA?$AA@ 100506e4     libcpmt:winapinls.obj
 0002:000026f0       ??_C@_1M@GIAKDKJK@?$AAs?$AAv?$AA?9?$AAS?$AAE?$AA?$AA@ 100506f0     libcpmt:winapinls.obj
 0002:000026fc       ??_C@_1M@MKJKIKCL@?$AAt?$AAh?$AA?9?$AAT?$AAH?$AA?$AA@ 100506fc     libcpmt:winapinls.obj
 0002:00002708       ??_C@_1M@MFLCCMPB@?$AAt?$AAr?$AA?9?$AAT?$AAR?$AA?$AA@ 10050708     libcpmt:winapinls.obj
 0002:00002714       ??_C@_1M@OIJHDKJN@?$AAu?$AAr?$AA?9?$AAP?$AAK?$AA?$AA@ 10050714     libcpmt:winapinls.obj
 0002:00002720       ??_C@_1M@LHIPCIEK@?$AAi?$AAd?$AA?9?$AAI?$AAD?$AA?$AA@ 10050720     libcpmt:winapinls.obj
 0002:0000272c       ??_C@_1M@MFMOBGI@?$AAu?$AAk?$AA?9?$AAU?$AAA?$AA?$AA@ 1005072c     libcpmt:winapinls.obj
 0002:00002738       ??_C@_1M@OBGLJIPL@?$AAb?$AAe?$AA?9?$AAB?$AAY?$AA?$AA@ 10050738     libcpmt:winapinls.obj
 0002:00002744       ??_C@_1M@BCFAJEAD@?$AAs?$AAl?$AA?9?$AAS?$AAI?$AA?$AA@ 10050744     libcpmt:winapinls.obj
 0002:00002750       ??_C@_1M@FKFFEDDN@?$AAe?$AAt?$AA?9?$AAE?$AAE?$AA?$AA@ 10050750     libcpmt:winapinls.obj
 0002:0000275c       ??_C@_1M@KGKKAACI@?$AAl?$AAv?$AA?9?$AAL?$AAV?$AA?$AA@ 1005075c     libcpmt:winapinls.obj
 0002:00002768       ??_C@_1M@IFGBIJO@?$AAl?$AAt?$AA?9?$AAL?$AAT?$AA?$AA@ 10050768     libcpmt:winapinls.obj
 0002:00002774       ??_C@_1M@FGEAHEDM@?$AAf?$AAa?$AA?9?$AAI?$AAR?$AA?$AA@ 10050774     libcpmt:winapinls.obj
 0002:00002780       ??_C@_1M@KBMAIBFN@?$AAv?$AAi?$AA?9?$AAV?$AAN?$AA?$AA@ 10050780     libcpmt:winapinls.obj
 0002:0000278c       ??_C@_1M@GPCBKDJK@?$AAh?$AAy?$AA?9?$AAA?$AAM?$AA?$AA@ 1005078c     libcpmt:winapinls.obj
 0002:00002798       ??_C@_1BG@BECMDDJB@?$AAa?$AAz?$AA?9?$AAA?$AAZ?$AA?9?$AAL?$AAa?$AAt?$AAn?$AA?$AA@ 10050798     libcpmt:winapinls.obj
 0002:000027b0       ??_C@_1M@MAOFCAEA@?$AAe?$AAu?$AA?9?$AAE?$AAS?$AA?$AA@ 100507b0     libcpmt:winapinls.obj
 0002:000027bc       ??_C@_1M@IGHABKPI@?$AAm?$AAk?$AA?9?$AAM?$AAK?$AA?$AA@ 100507bc     libcpmt:winapinls.obj
 0002:000027c8       ??_C@_1M@IAIGNEJG@?$AAt?$AAn?$AA?9?$AAZ?$AAA?$AA?$AA@ 100507c8     libcpmt:winapinls.obj
 0002:000027d4       ??_C@_1M@IIJCOJFA@?$AAx?$AAh?$AA?9?$AAZ?$AAA?$AA?$AA@ 100507d4     libcpmt:winapinls.obj
 0002:000027e0       ??_C@_1M@LGPJHNJH@?$AAz?$AAu?$AA?9?$AAZ?$AAA?$AA?$AA@ 100507e0     libcpmt:winapinls.obj
 0002:000027ec       ??_C@_1M@HOKAOIO@?$AAa?$AAf?$AA?9?$AAZ?$AAA?$AA?$AA@ 100507ec     libcpmt:winapinls.obj
 0002:000027f8       ??_C@_1M@DPCLHLIE@?$AAk?$AAa?$AA?9?$AAG?$AAE?$AA?$AA@ 100507f8     libcpmt:winapinls.obj
 0002:00002804       ??_C@_1M@BLKMHJBI@?$AAf?$AAo?$AA?9?$AAF?$AAO?$AA?$AA@ 10050804     libcpmt:winapinls.obj
 0002:00002810       ??_C@_1M@LGGJAPPB@?$AAh?$AAi?$AA?9?$AAI?$AAN?$AA?$AA@ 10050810     libcpmt:winapinls.obj
 0002:0000281c       ??_C@_1M@FIKPIHFE@?$AAm?$AAt?$AA?9?$AAM?$AAT?$AA?$AA@ 1005081c     libcpmt:winapinls.obj
 0002:00002828       ??_C@_1M@HEGGPBFA@?$AAs?$AAe?$AA?9?$AAN?$AAO?$AA?$AA@ 10050828     libcpmt:winapinls.obj
 0002:00002834       ??_C@_1M@EIBJEEPA@?$AAm?$AAs?$AA?9?$AAM?$AAY?$AA?$AA@ 10050834     libcpmt:winapinls.obj
 0002:00002840       ??_C@_1M@FHLBGMPP@?$AAk?$AAk?$AA?9?$AAK?$AAZ?$AA?$AA@ 10050840     libcpmt:winapinls.obj
 0002:0000284c       ??_C@_1M@NGJJLCGI@?$AAk?$AAy?$AA?9?$AAK?$AAG?$AA?$AA@ 1005084c     libcpmt:winapinls.obj
 0002:00002858       ??_C@_1M@GIENNBFC@?$AAs?$AAw?$AA?9?$AAK?$AAE?$AA?$AA@ 10050858     libcpmt:winapinls.obj
 0002:00002864       ??_C@_1BG@NDGMJIMJ@?$AAu?$AAz?$AA?9?$AAU?$AAZ?$AA?9?$AAL?$AAa?$AAt?$AAn?$AA?$AA@ 10050864     libcpmt:winapinls.obj
 0002:0000287c       ??_C@_1M@IDCCIHBC@?$AAt?$AAt?$AA?9?$AAR?$AAU?$AA?$AA@ 1005087c     libcpmt:winapinls.obj
 0002:00002888       ??_C@_1M@LOICPMOJ@?$AAb?$AAn?$AA?9?$AAI?$AAN?$AA?$AA@ 10050888     libcpmt:winapinls.obj
 0002:00002894       ??_C@_1M@KPKKNEAH@?$AAp?$AAa?$AA?9?$AAI?$AAN?$AA?$AA@ 10050894     libcpmt:winapinls.obj
 0002:000028a0       ??_C@_1M@PJGPPBOG@?$AAg?$AAu?$AA?9?$AAI?$AAN?$AA?$AA@ 100508a0     libcpmt:winapinls.obj
 0002:000028ac       ??_C@_1M@KMKMOPHI@?$AAt?$AAa?$AA?9?$AAI?$AAN?$AA?$AA@ 100508ac     libcpmt:winapinls.obj
 0002:000028b8       ??_C@_1M@KFEHEPAC@?$AAt?$AAe?$AA?9?$AAI?$AAN?$AA?$AA@ 100508b8     libcpmt:winapinls.obj
 0002:000028c4       ??_C@_1M@CDCLMGHI@?$AAk?$AAn?$AA?9?$AAI?$AAN?$AA?$AA@ 100508c4     libcpmt:winapinls.obj
 0002:000028d0       ??_C@_1M@MIODLDKF@?$AAm?$AAl?$AA?9?$AAI?$AAN?$AA?$AA@ 100508d0     libcpmt:winapinls.obj
 0002:000028dc       ??_C@_1M@PBIEACPO@?$AAm?$AAr?$AA?9?$AAI?$AAN?$AA?$AA@ 100508dc     libcpmt:winapinls.obj
 0002:000028e8       ??_C@_1M@NIDEAGPH@?$AAs?$AAa?$AA?9?$AAI?$AAN?$AA?$AA@ 100508e8     libcpmt:winapinls.obj
 0002:000028f4       ??_C@_1M@FHIHCBIO@?$AAm?$AAn?$AA?9?$AAM?$AAN?$AA?$AA@ 100508f4     libcpmt:winapinls.obj
 0002:00002900       ??_C@_1M@JAIJPENP@?$AAc?$AAy?$AA?9?$AAG?$AAB?$AA?$AA@ 10050900     libcpmt:winapinls.obj
 0002:0000290c       ??_C@_1M@PHGFBEPN@?$AAg?$AAl?$AA?9?$AAE?$AAS?$AA?$AA@ 1005090c     libcpmt:winapinls.obj
 0002:00002918       ??_C@_1O@KPIPDNCP@?$AAk?$AAo?$AAk?$AA?9?$AAI?$AAN?$AA?$AA@ 10050918     libcpmt:winapinls.obj
 0002:00002928       ??_C@_1O@KNHJLDJA@?$AAs?$AAy?$AAr?$AA?9?$AAS?$AAY?$AA?$AA@ 10050928     libcpmt:winapinls.obj
 0002:00002938       ??_C@_1O@MKEKBLAH@?$AAd?$AAi?$AAv?$AA?9?$AAM?$AAV?$AA?$AA@ 10050938     libcpmt:winapinls.obj
 0002:00002948       ??_C@_1O@OHDCKDDF@?$AAq?$AAu?$AAz?$AA?9?$AAB?$AAO?$AA?$AA@ 10050948     libcpmt:winapinls.obj
 0002:00002958       ??_C@_1M@LEPJNLFD@?$AAn?$AAs?$AA?9?$AAZ?$AAA?$AA?$AA@ 10050958     libcpmt:winapinls.obj
 0002:00002964       ??_C@_1M@OMLEIIJB@?$AAm?$AAi?$AA?9?$AAN?$AAZ?$AA?$AA@ 10050964     libcpmt:winapinls.obj
 0002:00002970       ??_C@_1M@PMPEAILG@?$AAa?$AAr?$AA?9?$AAI?$AAQ?$AA?$AA@ 10050970     libcpmt:winapinls.obj
 0002:0000297c       ??_C@_1M@BIBDDEMK@?$AAz?$AAh?$AA?9?$AAC?$AAN?$AA?$AA@ 1005097c     libcpmt:winapinls.obj
 0002:00002988       ??_C@_1M@CNKPNOEE@?$AAd?$AAe?$AA?9?$AAC?$AAH?$AA?$AA@ 10050988     libcpmt:winapinls.obj
 0002:00002994       ??_C@_1M@LKMGMLKO@?$AAe?$AAn?$AA?9?$AAG?$AAB?$AA?$AA@ 10050994     libcpmt:winapinls.obj
 0002:000029a0       ??_C@_1M@PGKJFFGL@?$AAe?$AAs?$AA?9?$AAM?$AAX?$AA?$AA@ 100509a0     libcpmt:winapinls.obj
 0002:000029ac       ??_C@_1M@DNNANBDC@?$AAf?$AAr?$AA?9?$AAB?$AAE?$AA?$AA@ 100509ac     libcpmt:winapinls.obj
 0002:000029b8       ??_C@_1M@HLGMDFHM@?$AAi?$AAt?$AA?9?$AAC?$AAH?$AA?$AA@ 100509b8     libcpmt:winapinls.obj
 0002:000029c4       ??_C@_1M@CLLBGJH@?$AAn?$AAl?$AA?9?$AAB?$AAE?$AA?$AA@ 100509c4     libcpmt:winapinls.obj
 0002:000029d0       ??_C@_1M@BODBOGLF@?$AAn?$AAn?$AA?9?$AAN?$AAO?$AA?$AA@ 100509d0     libcpmt:winapinls.obj
 0002:000029dc       ??_C@_1M@HFFAHKAD@?$AAp?$AAt?$AA?9?$AAP?$AAT?$AA?$AA@ 100509dc     libcpmt:winapinls.obj
 0002:000029e8       ??_C@_1BG@LNOAKHIE@?$AAs?$AAr?$AA?9?$AAS?$AAP?$AA?9?$AAL?$AAa?$AAt?$AAn?$AA?$AA@ 100509e8     libcpmt:winapinls.obj
 0002:00002a00       ??_C@_1M@HBMHBGAK@?$AAs?$AAv?$AA?9?$AAF?$AAI?$AA?$AA@ 10050a00     libcpmt:winapinls.obj
 0002:00002a0c       ??_C@_1BG@DGCJGJBE@?$AAa?$AAz?$AA?9?$AAA?$AAZ?$AA?9?$AAC?$AAy?$AAr?$AAl?$AA?$AA@ 10050a0c     libcpmt:winapinls.obj
 0002:00002a24       ??_C@_1M@KEJDAAHB@?$AAs?$AAe?$AA?9?$AAS?$AAE?$AA?$AA@ 10050a24     libcpmt:winapinls.obj
 0002:00002a30       ??_C@_1M@HEIBJJAD@?$AAm?$AAs?$AA?9?$AAB?$AAN?$AA?$AA@ 10050a30     libcpmt:winapinls.obj
 0002:00002a3c       ??_C@_1BG@PBGJMCEM@?$AAu?$AAz?$AA?9?$AAU?$AAZ?$AA?9?$AAC?$AAy?$AAr?$AAl?$AA?$AA@ 10050a3c     libcpmt:winapinls.obj
 0002:00002a54       ??_C@_1O@LAOBCMDF@?$AAq?$AAu?$AAz?$AA?9?$AAE?$AAC?$AA?$AA@ 10050a54     libcpmt:winapinls.obj
 0002:00002a64       ??_C@_1M@POEEMAIO@?$AAa?$AAr?$AA?9?$AAE?$AAG?$AA?$AA@ 10050a64     libcpmt:winapinls.obj
 0002:00002a70       ??_C@_1M@EFAKDEDL@?$AAz?$AAh?$AA?9?$AAH?$AAK?$AA?$AA@ 10050a70     libcpmt:winapinls.obj
 0002:00002a7c       ??_C@_1M@HKKIJHGI@?$AAd?$AAe?$AA?9?$AAA?$AAT?$AA?$AA@ 10050a7c     libcpmt:winapinls.obj
 0002:00002a88       ??_C@_1M@KBFBEHJF@?$AAe?$AAn?$AA?9?$AAA?$AAU?$AA?$AA@ 10050a88     libcpmt:winapinls.obj
 0002:00002a94       ??_C@_1M@MNPLFAAH@?$AAe?$AAs?$AA?9?$AAE?$AAS?$AA?$AA@ 10050a94     libcpmt:winapinls.obj
 0002:00002aa0       ??_C@_1M@HJOOJFMA@?$AAf?$AAr?$AA?9?$AAC?$AAA?$AA?$AA@ 10050aa0     libcpmt:winapinls.obj
 0002:00002aac       ??_C@_1BG@JPOFPNAB@?$AAs?$AAr?$AA?9?$AAS?$AAP?$AA?9?$AAC?$AAy?$AAr?$AAl?$AA?$AA@ 10050aac     libcpmt:winapinls.obj
 0002:00002ac4       ??_C@_1M@LNFOCMOB@?$AAs?$AAe?$AA?9?$AAF?$AAI?$AA?$AA@ 10050ac4     libcpmt:winapinls.obj
 0002:00002ad0       ??_C@_1O@MGJBOAMB@?$AAq?$AAu?$AAz?$AA?9?$AAP?$AAE?$AA?$AA@ 10050ad0     libcpmt:winapinls.obj
 0002:00002ae0       ??_C@_1M@GJINLBOK@?$AAa?$AAr?$AA?9?$AAL?$AAY?$AA?$AA@ 10050ae0     libcpmt:winapinls.obj
 0002:00002aec       ??_C@_1M@GGMNHJNL@?$AAz?$AAh?$AA?9?$AAS?$AAG?$AA?$AA@ 10050aec     libcpmt:winapinls.obj
 0002:00002af8       ??_C@_1M@HOIKODND@?$AAd?$AAe?$AA?9?$AAL?$AAU?$AA?$AA@ 10050af8     libcpmt:winapinls.obj
 0002:00002b04       ??_C@_1M@DDOCCGFG@?$AAe?$AAn?$AA?9?$AAC?$AAA?$AA?$AA@ 10050b04     libcpmt:winapinls.obj
 0002:00002b10       ??_C@_1M@BNOEMJLF@?$AAe?$AAs?$AA?9?$AAG?$AAT?$AA?$AA@ 10050b10     libcpmt:winapinls.obj
 0002:00002b1c       ??_C@_1M@EOGNKEK@?$AAf?$AAr?$AA?9?$AAC?$AAH?$AA?$AA@ 10050b1c     libcpmt:winapinls.obj
 0002:00002b28       ??_C@_1M@FLIDJFHL@?$AAh?$AAr?$AA?9?$AAB?$AAA?$AA?$AA@ 10050b28     libcpmt:winapinls.obj
 0002:00002b34       ??_C@_1O@FMCELNAJ@?$AAs?$AAm?$AAj?$AA?9?$AAN?$AAO?$AA?$AA@ 10050b34     libcpmt:winapinls.obj
 0002:00002b44       ??_C@_1M@JHGLJMGJ@?$AAa?$AAr?$AA?9?$AAD?$AAZ?$AA?$AA@ 10050b44     libcpmt:winapinls.obj
 0002:00002b50       ??_C@_1M@JKKFDCNP@?$AAz?$AAh?$AA?9?$AAM?$AAO?$AA?$AA@ 10050b50     libcpmt:winapinls.obj
 0002:00002b5c       ??_C@_1M@GEEFALPE@?$AAd?$AAe?$AA?9?$AAL?$AAI?$AA?$AA@ 10050b5c     libcpmt:winapinls.obj
 0002:00002b68       ??_C@_1M@IGEOFBG@?$AAe?$AAn?$AA?9?$AAN?$AAZ?$AA?$AA@ 10050b68     libcpmt:winapinls.obj
 0002:00002b74       ??_C@_1M@KDBONEHP@?$AAe?$AAs?$AA?9?$AAC?$AAR?$AA?$AA@ 10050b74     libcpmt:winapinls.obj
 0002:00002b80       ??_C@_1M@FHMDOHNN@?$AAf?$AAr?$AA?9?$AAL?$AAU?$AA?$AA@ 10050b80     libcpmt:winapinls.obj
 0002:00002b8c       ??_C@_1BG@NFKKMAFG@?$AAb?$AAs?$AA?9?$AAB?$AAA?$AA?9?$AAL?$AAa?$AAt?$AAn?$AA?$AA@ 10050b8c     libcpmt:winapinls.obj
 0002:00002ba4       ??_C@_1O@IMNBEMCI@?$AAs?$AAm?$AAj?$AA?9?$AAS?$AAE?$AA?$AA@ 10050ba4     libcpmt:winapinls.obj
 0002:00002bb4       ??_C@_1M@DHHMBNDP@?$AAa?$AAr?$AA?9?$AAM?$AAA?$AA?$AA@ 10050bb4     libcpmt:winapinls.obj
 0002:00002bc0       ??_C@_1M@BNBLJCGH@?$AAe?$AAn?$AA?9?$AAI?$AAE?$AA?$AA@ 10050bc0     libcpmt:winapinls.obj
 0002:00002bcc       ??_C@_1M@GEPAFMDL@?$AAe?$AAs?$AA?9?$AAP?$AAA?$AA?$AA@ 10050bcc     libcpmt:winapinls.obj
 0002:00002bd8       ??_C@_1M@OJONDMDL@?$AAf?$AAr?$AA?9?$AAM?$AAC?$AA?$AA@ 10050bd8     libcpmt:winapinls.obj
 0002:00002be4       ??_C@_1BG@OBCNFJB@?$AAs?$AAr?$AA?9?$AAB?$AAA?$AA?9?$AAL?$AAa?$AAt?$AAn?$AA?$AA@ 10050be4     libcpmt:winapinls.obj
 0002:00002bfc       ??_C@_1O@KEMEEGPO@?$AAs?$AAm?$AAa?$AA?9?$AAN?$AAO?$AA?$AA@ 10050bfc     libcpmt:winapinls.obj
 0002:00002c0c       ??_C@_1M@ELMGFODK@?$AAa?$AAr?$AA?9?$AAT?$AAN?$AA?$AA@ 10050c0c     libcpmt:winapinls.obj
 0002:00002c18       ??_C@_1M@BHDLHFAF@?$AAe?$AAn?$AA?9?$AAZ?$AAA?$AA?$AA@ 10050c18     libcpmt:winapinls.obj
 0002:00002c24       ??_C@_1M@BMGIGLIF@?$AAe?$AAs?$AA?9?$AAD?$AAO?$AA?$AA@ 10050c24     libcpmt:winapinls.obj
 0002:00002c30       ??_C@_1BG@CMBHIPBE@?$AAs?$AAr?$AA?9?$AAB?$AAA?$AA?9?$AAC?$AAy?$AAr?$AAl?$AA?$AA@ 10050c30     libcpmt:winapinls.obj
 0002:00002c48       ??_C@_1O@HEDBLHNP@?$AAs?$AAm?$AAa?$AA?9?$AAS?$AAE?$AA?$AA@ 10050c48     libcpmt:winapinls.obj
 0002:00002c58       ??_C@_1M@DAGCADIM@?$AAa?$AAr?$AA?9?$AAO?$AAM?$AA?$AA@ 10050c58     libcpmt:winapinls.obj
 0002:00002c64       ??_C@_1M@FODLMICG@?$AAe?$AAn?$AA?9?$AAJ?$AAM?$AA?$AA@ 10050c64     libcpmt:winapinls.obj
 0002:00002c70       ??_C@_1M@DNMLCIHB@?$AAe?$AAs?$AA?9?$AAV?$AAE?$AA?$AA@ 10050c70     libcpmt:winapinls.obj
 0002:00002c7c       ??_C@_1O@EOKHMKJK@?$AAs?$AAm?$AAs?$AA?9?$AAF?$AAI?$AA?$AA@ 10050c7c     libcpmt:winapinls.obj
 0002:00002c8c       ??_C@_1M@CAFJMKOF@?$AAa?$AAr?$AA?9?$AAY?$AAE?$AA?$AA@ 10050c8c     libcpmt:winapinls.obj
 0002:00002c98       ??_C@_1M@CBFHIJLI@?$AAe?$AAn?$AA?9?$AAC?$AAB?$AA?$AA@ 10050c98     libcpmt:winapinls.obj
 0002:00002ca4       ??_C@_1M@BGNFLDN@?$AAe?$AAs?$AA?9?$AAC?$AAO?$AA?$AA@ 10050ca4     libcpmt:winapinls.obj
 0002:00002cb0       ??_C@_1O@JMPHMAMC@?$AAs?$AAm?$AAn?$AA?9?$AAF?$AAI?$AA?$AA@ 10050cb0     libcpmt:winapinls.obj
 0002:00002cc0       ??_C@_1M@JLANABKE@?$AAa?$AAr?$AA?9?$AAS?$AAY?$AA?$AA@ 10050cc0     libcpmt:winapinls.obj
 0002:00002ccc       ??_C@_1M@HPKGCFGN@?$AAe?$AAn?$AA?9?$AAB?$AAZ?$AA?$AA@ 10050ccc     libcpmt:winapinls.obj
 0002:00002cd8       ??_C@_1M@OLJCMLGM@?$AAe?$AAs?$AA?9?$AAP?$AAE?$AA?$AA@ 10050cd8     libcpmt:winapinls.obj
 0002:00002ce4       ??_C@_1M@MKKGFKLE@?$AAa?$AAr?$AA?9?$AAJ?$AAO?$AA?$AA@ 10050ce4     libcpmt:winapinls.obj
 0002:00002cf0       ??_C@_1M@EKPGLDNI@?$AAe?$AAn?$AA?9?$AAT?$AAT?$AA?$AA@ 10050cf0     libcpmt:winapinls.obj
 0002:00002cfc       ??_C@_1M@OONGHFHE@?$AAe?$AAs?$AA?9?$AAA?$AAR?$AA?$AA@ 10050cfc     libcpmt:winapinls.obj
 0002:00002d08       ??_C@_1M@OOJFGBHE@?$AAa?$AAr?$AA?9?$AAL?$AAB?$AA?$AA@ 10050d08     libcpmt:winapinls.obj
 0002:00002d14       ??_C@_1M@GCEJHNEG@?$AAe?$AAn?$AA?9?$AAZ?$AAW?$AA?$AA@ 10050d14     libcpmt:winapinls.obj
 0002:00002d20       ??_C@_1M@JNOCAHJI@?$AAe?$AAs?$AA?9?$AAE?$AAC?$AA?$AA@ 10050d20     libcpmt:winapinls.obj
 0002:00002d2c       ??_C@_1M@JEFHPGGB@?$AAa?$AAr?$AA?9?$AAK?$AAW?$AA?$AA@ 10050d2c     libcpmt:winapinls.obj
 0002:00002d38       ??_C@_1M@MLKIBJOJ@?$AAe?$AAn?$AA?9?$AAP?$AAH?$AA?$AA@ 10050d38     libcpmt:winapinls.obj
 0002:00002d44       ??_C@_1M@BDNIPEND@?$AAe?$AAs?$AA?9?$AAC?$AAL?$AA?$AA@ 10050d44     libcpmt:winapinls.obj
 0002:00002d50       ??_C@_1M@MPNMEKBD@?$AAa?$AAr?$AA?9?$AAA?$AAE?$AA?$AA@ 10050d50     libcpmt:winapinls.obj
 0002:00002d5c       ??_C@_1M@KBJALCPI@?$AAe?$AAs?$AA?9?$AAU?$AAY?$AA?$AA@ 10050d5c     libcpmt:winapinls.obj
 0002:00002d68       ??_C@_1M@LLCCOAGA@?$AAa?$AAr?$AA?9?$AAB?$AAH?$AA?$AA@ 10050d68     libcpmt:winapinls.obj
 0002:00002d74       ??_C@_1M@PBFNCDEL@?$AAe?$AAs?$AA?9?$AAP?$AAY?$AA?$AA@ 10050d74     libcpmt:winapinls.obj
 0002:00002d80       ??_C@_1M@EDGINPNP@?$AAa?$AAr?$AA?9?$AAQ?$AAA?$AA?$AA@ 10050d80     libcpmt:winapinls.obj
 0002:00002d8c       ??_C@_1M@MKDBIIJI@?$AAe?$AAs?$AA?9?$AAB?$AAO?$AA?$AA@ 10050d8c     libcpmt:winapinls.obj
 0002:00002d98       ??_C@_1M@CPKKEBLD@?$AAe?$AAs?$AA?9?$AAS?$AAV?$AA?$AA@ 10050d98     libcpmt:winapinls.obj
 0002:00002da4       ??_C@_1M@NDBGMMJL@?$AAe?$AAs?$AA?9?$AAH?$AAN?$AA?$AA@ 10050da4     libcpmt:winapinls.obj
 0002:00002db0       ??_C@_1M@JIJIBHDP@?$AAe?$AAs?$AA?9?$AAN?$AAI?$AA?$AA@ 10050db0     libcpmt:winapinls.obj
 0002:00002dbc       ??_C@_1M@CGFMKEEK@?$AAe?$AAs?$AA?9?$AAP?$AAR?$AA?$AA@ 10050dbc     libcpmt:winapinls.obj
 0002:00002dc8       ??_C@_1O@ICJHKIIK@?$AAz?$AAh?$AA?9?$AAC?$AAH?$AAT?$AA?$AA@ 10050dc8     libcpmt:winapinls.obj
 0002:00002dd8       ??_C@_15CLNEJCE@?$AAs?$AAr?$AA?$AA@ 10050dd8     libcpmt:winapinls.obj
 0002:00002de0       ??_C@_1M@KAHEKEIG@?$AAa?$AAf?$AA?9?$AAz?$AAa?$AA?$AA@ 10050de0     libcpmt:winapinls.obj
 0002:00002dec       ??_C@_1M@GIECOABL@?$AAa?$AAr?$AA?9?$AAa?$AAe?$AA?$AA@ 10050dec     libcpmt:winapinls.obj
 0002:00002df8       ??_C@_1M@BMLMEKGI@?$AAa?$AAr?$AA?9?$AAb?$AAh?$AA?$AA@ 10050df8     libcpmt:winapinls.obj
 0002:00002e04       ??_C@_1M@DAPFDGGB@?$AAa?$AAr?$AA?9?$AAd?$AAz?$AA?$AA@ 10050e04     libcpmt:winapinls.obj
 0002:00002e10       ??_C@_1M@FJNKGKIG@?$AAa?$AAr?$AA?9?$AAe?$AAg?$AA?$AA@ 10050e10     libcpmt:winapinls.obj
 0002:00002e1c       ??_C@_1M@FLGKKCLO@?$AAa?$AAr?$AA?9?$AAi?$AAq?$AA?$AA@ 10050e1c     libcpmt:winapinls.obj
 0002:00002e28       ??_C@_1M@GNDIPALM@?$AAa?$AAr?$AA?9?$AAj?$AAo?$AA?$AA@ 10050e28     libcpmt:winapinls.obj
 0002:00002e34       ??_C@_1M@DDMJFMGJ@?$AAa?$AAr?$AA?9?$AAk?$AAw?$AA?$AA@ 10050e34     libcpmt:winapinls.obj
 0002:00002e40       ??_C@_1M@EJALMLHM@?$AAa?$AAr?$AA?9?$AAl?$AAb?$AA?$AA@ 10050e40     libcpmt:winapinls.obj
 0002:00002e4c       ??_C@_1M@MOBDBLOC@?$AAa?$AAr?$AA?9?$AAl?$AAy?$AA?$AA@ 10050e4c     libcpmt:winapinls.obj
 0002:00002e58       ??_C@_1M@JAOCLHDH@?$AAa?$AAr?$AA?9?$AAm?$AAa?$AA?$AA@ 10050e58     libcpmt:winapinls.obj
 0002:00002e64       ??_C@_1M@JHPMKJIE@?$AAa?$AAr?$AA?9?$AAo?$AAm?$AA?$AA@ 10050e64     libcpmt:winapinls.obj
 0002:00002e70       ??_C@_1M@OEPGHFNH@?$AAa?$AAr?$AA?9?$AAq?$AAa?$AA?$AA@ 10050e70     libcpmt:winapinls.obj
 0002:00002e7c       ??_C@_1M@KJDONENM@?$AAa?$AAr?$AA?9?$AAs?$AAa?$AA?$AA@ 10050e7c     libcpmt:winapinls.obj
 0002:00002e88       ??_C@_1M@DMJDKLKM@?$AAa?$AAr?$AA?9?$AAs?$AAy?$AA?$AA@ 10050e88     libcpmt:winapinls.obj
 0002:00002e94       ??_C@_1M@OMFIPEDC@?$AAa?$AAr?$AA?9?$AAt?$AAn?$AA?$AA@ 10050e94     libcpmt:winapinls.obj
 0002:00002ea0       ??_C@_1M@IHMHGAON@?$AAa?$AAr?$AA?9?$AAy?$AAe?$AA?$AA@ 10050ea0     libcpmt:winapinls.obj
 0002:00002eac       ??_C@_1BG@KDCPGJGB@?$AAa?$AAz?$AA?9?$AAa?$AAz?$AA?9?$AAc?$AAy?$AAr?$AAl?$AA?$AA@ 10050eac     libcpmt:winapinls.obj
 0002:00002ec4       ??_C@_1BG@IBCKDDOE@?$AAa?$AAz?$AA?9?$AAa?$AAz?$AA?9?$AAl?$AAa?$AAt?$AAn?$AA?$AA@ 10050ec4     libcpmt:winapinls.obj
 0002:00002edc       ??_C@_1M@EGPFDCPD@?$AAb?$AAe?$AA?9?$AAb?$AAy?$AA?$AA@ 10050edc     libcpmt:winapinls.obj
 0002:00002ee8       ??_C@_1M@PCMGMCGC@?$AAb?$AAg?$AA?9?$AAb?$AAg?$AA?$AA@ 10050ee8     libcpmt:winapinls.obj
 0002:00002ef4       ??_C@_1M@BJBMFGOB@?$AAb?$AAn?$AA?9?$AAi?$AAn?$AA?$AA@ 10050ef4     libcpmt:winapinls.obj
 0002:00002f00       ??_C@_1BG@EAKMMACD@?$AAb?$AAs?$AA?9?$AAb?$AAa?$AA?9?$AAl?$AAa?$AAt?$AAn?$AA?$AA@ 10050f00     libcpmt:winapinls.obj
 0002:00002f18       ??_C@_1M@KGADAODK@?$AAc?$AAa?$AA?9?$AAe?$AAs?$AA?$AA@ 10050f18     libcpmt:winapinls.obj
 0002:00002f24       ??_C@_1M@COAJPDHI@?$AAc?$AAs?$AA?9?$AAc?$AAz?$AA?$AA@ 10050f24     libcpmt:winapinls.obj
 0002:00002f30       ??_C@_1M@DHBHFONH@?$AAc?$AAy?$AA?9?$AAg?$AAb?$AA?$AA@ 10050f30     libcpmt:winapinls.obj
 0002:00002f3c       ??_C@_1M@IMGKELGA@?$AAd?$AAa?$AA?9?$AAd?$AAk?$AA?$AA@ 10050f3c     libcpmt:winapinls.obj
 0002:00002f48       ??_C@_1M@NNDGDNGA@?$AAd?$AAe?$AA?9?$AAa?$AAt?$AA?$AA@ 10050f48     libcpmt:winapinls.obj
 0002:00002f54       ??_C@_1M@IKDBHEEM@?$AAd?$AAe?$AA?9?$AAc?$AAh?$AA?$AA@ 10050f54     libcpmt:winapinls.obj
 0002:00002f60       ??_C@_1M@GFFOJMCJ@?$AAd?$AAe?$AA?9?$AAd?$AAe?$AA?$AA@ 10050f60     libcpmt:winapinls.obj
 0002:00002f6c       ??_C@_1M@MDNLKBPM@?$AAd?$AAe?$AA?9?$AAl?$AAi?$AA?$AA@ 10050f6c     libcpmt:winapinls.obj
 0002:00002f78       ??_C@_1M@NJBEEJNL@?$AAd?$AAe?$AA?9?$AAl?$AAu?$AA?$AA@ 10050f78     libcpmt:winapinls.obj
 0002:00002f84       ??_C@_1O@GNNELBAP@?$AAd?$AAi?$AAv?$AA?9?$AAm?$AAv?$AA?$AA@ 10050f84     libcpmt:winapinls.obj
 0002:00002f94       ??_C@_1M@EJLEOGAE@?$AAe?$AAl?$AA?9?$AAg?$AAr?$AA?$AA@ 10050f94     libcpmt:winapinls.obj
 0002:00002fa0       ??_C@_1M@GMPONJN@?$AAe?$AAn?$AA?9?$AAa?$AAu?$AA?$AA@ 10050fa0     libcpmt:winapinls.obj
 0002:00002fac       ??_C@_1M@NIDIIPGF@?$AAe?$AAn?$AA?9?$AAb?$AAz?$AA?$AA@ 10050fac     libcpmt:winapinls.obj
 0002:00002fb8       ??_C@_1M@JEHMIMFO@?$AAe?$AAn?$AA?9?$AAc?$AAa?$AA?$AA@ 10050fb8     libcpmt:winapinls.obj
 0002:00002fc4       ??_C@_1M@IGMJCDLA@?$AAe?$AAn?$AA?9?$AAc?$AAb?$AA?$AA@ 10050fc4     libcpmt:winapinls.obj
 0002:00002fd0       ??_C@_1M@BNFIGBKG@?$AAe?$AAn?$AA?9?$AAg?$AAb?$AA?$AA@ 10050fd0     libcpmt:winapinls.obj
 0002:00002fdc       ??_C@_1M@LKIFDIGP@?$AAe?$AAn?$AA?9?$AAi?$AAe?$AA?$AA@ 10050fdc     libcpmt:winapinls.obj
 0002:00002fe8       ??_C@_1M@PJKFGCCO@?$AAe?$AAn?$AA?9?$AAj?$AAm?$AA?$AA@ 10050fe8     libcpmt:winapinls.obj
 0002:00002ff4       ??_C@_1M@KPPKEPBO@?$AAe?$AAn?$AA?9?$AAn?$AAz?$AA?$AA@ 10050ff4     libcpmt:winapinls.obj
 0002:00003000       ??_C@_1M@GMDGLDOB@?$AAe?$AAn?$AA?9?$AAp?$AAh?$AA?$AA@ 10051000     libcpmt:winapinls.obj
 0002:0000300c       ??_C@_1M@ONGIBJNA@?$AAe?$AAn?$AA?9?$AAt?$AAt?$AA?$AA@ 1005100c     libcpmt:winapinls.obj
 0002:00003018       ??_C@_1M@LLODPCMM@?$AAe?$AAn?$AA?9?$AAu?$AAs?$AA?$AA@ 10051018     libcpmt:winapinls.obj
 0002:00003024       ??_C@_1M@LAKFNPAN@?$AAe?$AAn?$AA?9?$AAz?$AAa?$AA?$AA@ 10051024     libcpmt:winapinls.obj
 0002:00003030       ??_C@_1M@MFNHNHEO@?$AAe?$AAn?$AA?9?$AAz?$AAw?$AA?$AA@ 10051030     libcpmt:winapinls.obj
 0002:0000303c       ??_C@_1M@EJEINPHM@?$AAe?$AAs?$AA?9?$AAa?$AAr?$AA?$AA@ 1005103c     libcpmt:winapinls.obj
 0002:00003048       ??_C@_1M@GNKPCCJA@?$AAe?$AAs?$AA?9?$AAb?$AAo?$AA?$AA@ 10051048     libcpmt:winapinls.obj
 0002:00003054       ??_C@_1M@LEEGFONL@?$AAe?$AAs?$AA?9?$AAc?$AAl?$AA?$AA@ 10051054     libcpmt:winapinls.obj
 0002:00003060       ??_C@_1M@KGPDPBDF@?$AAe?$AAs?$AA?9?$AAc?$AAo?$AA?$AA@ 10051060     libcpmt:winapinls.obj
 0002:0000306c       ??_C@_1M@EIAHOHH@?$AAe?$AAs?$AA?9?$AAc?$AAr?$AA?$AA@ 1005106c     libcpmt:winapinls.obj
 0002:00003078       ??_C@_1M@LLPGMBIN@?$AAe?$AAs?$AA?9?$AAd?$AAo?$AA?$AA@ 10051078     libcpmt:winapinls.obj
 0002:00003084       ??_C@_1M@DKHMKNJA@?$AAe?$AAs?$AA?9?$AAe?$AAc?$AA?$AA@ 10051084     libcpmt:winapinls.obj
 0002:00003090       ??_C@_1M@GKGFPKAP@?$AAe?$AAs?$AA?9?$AAe?$AAs?$AA?$AA@ 10051090     libcpmt:winapinls.obj
 0002:0000309c       ??_C@_1M@LKHKGDLN@?$AAe?$AAs?$AA?9?$AAg?$AAt?$AA?$AA@ 1005109c     libcpmt:winapinls.obj
 0002:000030a8       ??_C@_1M@HEIIGGJD@?$AAe?$AAs?$AA?9?$AAh?$AAn?$AA?$AA@ 100510a8     libcpmt:winapinls.obj
 0002:000030b4       ??_C@_1M@FBDHPPGD@?$AAe?$AAs?$AA?9?$AAm?$AAx?$AA?$AA@ 100510b4     libcpmt:winapinls.obj
 0002:000030c0       ??_C@_1M@DPAGLNDH@?$AAe?$AAs?$AA?9?$AAn?$AAi?$AA?$AA@ 100510c0     libcpmt:winapinls.obj
 0002:000030cc       ??_C@_1M@MDGOPGDD@?$AAe?$AAs?$AA?9?$AAp?$AAa?$AA?$AA@ 100510cc     libcpmt:winapinls.obj
 0002:000030d8       ??_C@_1M@EMAMGBGE@?$AAe?$AAs?$AA?9?$AAp?$AAe?$AA?$AA@ 100510d8     libcpmt:winapinls.obj
 0002:000030e4       ??_C@_1M@IBMCAOEC@?$AAe?$AAs?$AA?9?$AAp?$AAr?$AA?$AA@ 100510e4     libcpmt:winapinls.obj
 0002:000030f0       ??_C@_1M@FGMDIJED@?$AAe?$AAs?$AA?9?$AAp?$AAy?$AA?$AA@ 100510f0     libcpmt:winapinls.obj
 0002:000030fc       ??_C@_1M@IIDEOLLL@?$AAe?$AAs?$AA?9?$AAs?$AAv?$AA?$AA@ 100510fc     libcpmt:winapinls.obj
 0002:00003108       ??_C@_1M@GAOBIPA@?$AAe?$AAs?$AA?9?$AAu?$AAy?$AA?$AA@ 10051108     libcpmt:winapinls.obj
 0002:00003114       ??_C@_1M@JKFFICHJ@?$AAe?$AAs?$AA?9?$AAv?$AAe?$AA?$AA@ 10051114     libcpmt:winapinls.obj
 0002:00003120       ??_C@_1M@PNMLOJDF@?$AAe?$AAt?$AA?9?$AAe?$AAe?$AA?$AA@ 10051120     libcpmt:winapinls.obj
 0002:0000312c       ??_C@_1M@GHHLIKEI@?$AAe?$AAu?$AA?9?$AAe?$AAs?$AA?$AA@ 1005112c     libcpmt:winapinls.obj
 0002:00003138       ??_C@_1M@PBNONODE@?$AAf?$AAa?$AA?9?$AAi?$AAr?$AA?$AA@ 10051138     libcpmt:winapinls.obj
 0002:00003144       ??_C@_1M@JEEHPMIL@?$AAf?$AAi?$AA?9?$AAf?$AAi?$AA?$AA@ 10051144     libcpmt:winapinls.obj
 0002:00003150       ??_C@_1M@LMDCNDBA@?$AAf?$AAo?$AA?9?$AAf?$AAo?$AA?$AA@ 10051150     libcpmt:winapinls.obj
 0002:0000315c       ??_C@_1M@JKEOHLDK@?$AAf?$AAr?$AA?9?$AAb?$AAe?$AA?$AA@ 1005115c     libcpmt:winapinls.obj
 0002:00003168       ??_C@_1M@NOHADPMI@?$AAf?$AAr?$AA?9?$AAc?$AAa?$AA?$AA@ 10051168     libcpmt:winapinls.obj
 0002:00003174       ??_C@_1M@KDHIHAEC@?$AAf?$AAr?$AA?9?$AAc?$AAh?$AA?$AA@ 10051174     libcpmt:winapinls.obj
 0002:00003180       ??_C@_1M@MMBBFGAK@?$AAf?$AAr?$AA?9?$AAf?$AAr?$AA?$AA@ 10051180     libcpmt:winapinls.obj
 0002:0000318c       ??_C@_1M@PAFNENNF@?$AAf?$AAr?$AA?9?$AAl?$AAu?$AA?$AA@ 1005118c     libcpmt:winapinls.obj
 0002:00003198       ??_C@_1M@EOHDJGDD@?$AAf?$AAr?$AA?9?$AAm?$AAc?$AA?$AA@ 10051198     libcpmt:winapinls.obj
 0002:000031a4       ??_C@_1M@FAPLLOPF@?$AAg?$AAl?$AA?9?$AAe?$AAs?$AA?$AA@ 100511a4     libcpmt:winapinls.obj
 0002:000031b0       ??_C@_1M@FOPBFLOO@?$AAg?$AAu?$AA?9?$AAi?$AAn?$AA?$AA@ 100511b0     libcpmt:winapinls.obj
 0002:000031bc       ??_C@_1M@KBMCINPM@?$AAh?$AAe?$AA?9?$AAi?$AAl?$AA?$AA@ 100511bc     libcpmt:winapinls.obj
 0002:000031c8       ??_C@_1M@BBPHKFPJ@?$AAh?$AAi?$AA?9?$AAi?$AAn?$AA?$AA@ 100511c8     libcpmt:winapinls.obj
 0002:000031d4       ??_C@_1M@PMBNDPHD@?$AAh?$AAr?$AA?9?$AAb?$AAa?$AA?$AA@ 100511d4     libcpmt:winapinls.obj
 0002:000031e0       ??_C@_1M@BPCKOEGE@?$AAh?$AAr?$AA?9?$AAh?$AAr?$AA?$AA@ 100511e0     libcpmt:winapinls.obj
 0002:000031ec       ??_C@_1M@GACBMHKE@?$AAh?$AAu?$AA?9?$AAh?$AAu?$AA?$AA@ 100511ec     libcpmt:winapinls.obj
 0002:000031f8       ??_C@_1M@MILPAJJC@?$AAh?$AAy?$AA?9?$AAa?$AAm?$AA?$AA@ 100511f8     libcpmt:winapinls.obj
 0002:00003204       ??_C@_1M@BABBICEC@?$AAi?$AAd?$AA?9?$AAi?$AAd?$AA?$AA@ 10051204     libcpmt:winapinls.obj
 0002:00003210       ??_C@_1M@BIKNHHPF@?$AAi?$AAs?$AA?9?$AAi?$AAs?$AA?$AA@ 10051210     libcpmt:winapinls.obj
 0002:0000321c       ??_C@_1M@NMPCJPHE@?$AAi?$AAt?$AA?9?$AAc?$AAh?$AA?$AA@ 1005121c     libcpmt:winapinls.obj
 0002:00003228       ??_C@_1M@GHKGFEDF@?$AAi?$AAt?$AA?9?$AAi?$AAt?$AA?$AA@ 10051228     libcpmt:winapinls.obj
 0002:00003234       ??_C@_1M@NIEJCJJA@?$AAj?$AAa?$AA?9?$AAj?$AAp?$AA?$AA@ 10051234     libcpmt:winapinls.obj
 0002:00003240       ??_C@_1M@JILFNBIM@?$AAk?$AAa?$AA?9?$AAg?$AAe?$AA?$AA@ 10051240     libcpmt:winapinls.obj
 0002:0000324c       ??_C@_1M@PACPMGPH@?$AAk?$AAk?$AA?9?$AAk?$AAz?$AA?$AA@ 1005124c     libcpmt:winapinls.obj
 0002:00003258       ??_C@_1M@IELFGMHA@?$AAk?$AAn?$AA?9?$AAi?$AAn?$AA?$AA@ 10051258     libcpmt:winapinls.obj
 0002:00003264       ??_C@_1M@DMHAEOGC@?$AAk?$AAo?$AA?9?$AAk?$AAr?$AA?$AA@ 10051264     libcpmt:winapinls.obj
 0002:00003270       ??_C@_1O@IBBJHCH@?$AAk?$AAo?$AAk?$AA?9?$AAi?$AAn?$AA?$AA@ 10051270     libcpmt:winapinls.obj
 0002:00003280       ??_C@_1M@HBAHBIGA@?$AAk?$AAy?$AA?9?$AAk?$AAg?$AA?$AA@ 10051280     libcpmt:winapinls.obj
 0002:0000328c       ??_C@_1M@KPMILCJG@?$AAl?$AAt?$AA?9?$AAl?$AAt?$AA?$AA@ 1005128c     libcpmt:winapinls.obj
 0002:00003298       ??_C@_1M@BDEKKCA@?$AAl?$AAv?$AA?9?$AAl?$AAv?$AA?$AA@ 10051298     libcpmt:winapinls.obj
 0002:000032a4       ??_C@_1M@ELCKCCJJ@?$AAm?$AAi?$AA?9?$AAn?$AAz?$AA?$AA@ 100512a4     libcpmt:winapinls.obj
 0002:000032b0       ??_C@_1M@CBOOLAPA@?$AAm?$AAk?$AA?9?$AAm?$AAk?$AA?$AA@ 100512b0     libcpmt:winapinls.obj
 0002:000032bc       ??_C@_1M@GPHNBJKN@?$AAm?$AAl?$AA?9?$AAi?$AAn?$AA?$AA@ 100512bc     libcpmt:winapinls.obj
 0002:000032c8       ??_C@_1M@PABJILIG@?$AAm?$AAn?$AA?9?$AAm?$AAn?$AA?$AA@ 100512c8     libcpmt:winapinls.obj
 0002:000032d4       ??_C@_1M@FGBKKIPG@?$AAm?$AAr?$AA?9?$AAi?$AAn?$AA?$AA@ 100512d4     libcpmt:winapinls.obj
 0002:000032e0       ??_C@_1M@NDBPDDAL@?$AAm?$AAs?$AA?9?$AAb?$AAn?$AA?$AA@ 100512e0     libcpmt:winapinls.obj
 0002:000032ec       ??_C@_1M@OPIHOOPI@?$AAm?$AAs?$AA?9?$AAm?$AAy?$AA?$AA@ 100512ec     libcpmt:winapinls.obj
 0002:000032f8       ??_C@_1M@PPDBCNFM@?$AAm?$AAt?$AA?9?$AAm?$AAt?$AA?$AA@ 100512f8     libcpmt:winapinls.obj
 0002:00003304       ??_C@_1M@KDJDKMDD@?$AAn?$AAb?$AA?9?$AAn?$AAo?$AA?$AA@ 10051304     libcpmt:winapinls.obj
 0002:00003310       ??_C@_1M@KFCFLMJP@?$AAn?$AAl?$AA?9?$AAb?$AAe?$AA?$AA@ 10051310     libcpmt:winapinls.obj
 0002:0000331c       ??_C@_1M@KPOPDDGO@?$AAn?$AAl?$AA?9?$AAn?$AAl?$AA?$AA@ 1005131c     libcpmt:winapinls.obj
 0002:00003328       ??_C@_1M@LJKPEMLN@?$AAn?$AAn?$AA?9?$AAn?$AAo?$AA?$AA@ 10051328     libcpmt:winapinls.obj
 0002:00003334       ??_C@_1M@BDGHHBFL@?$AAn?$AAs?$AA?9?$AAz?$AAa?$AA?$AA@ 10051334     libcpmt:winapinls.obj
 0002:00003340       ??_C@_1M@IDEHOAP@?$AAp?$AAa?$AA?9?$AAi?$AAn?$AA?$AA@ 10051340     libcpmt:winapinls.obj
 0002:0000334c       ??_C@_1M@HDBKGOGH@?$AAp?$AAl?$AA?9?$AAp?$AAl?$AA?$AA@ 1005134c     libcpmt:winapinls.obj
 0002:00003358       ??_C@_1M@LJLLCMEH@?$AAp?$AAt?$AA?9?$AAb?$AAr?$AA?$AA@ 10051358     libcpmt:winapinls.obj
 0002:00003364       ??_C@_1M@NCMONAAL@?$AAp?$AAt?$AA?9?$AAp?$AAt?$AA?$AA@ 10051364     libcpmt:winapinls.obj
 0002:00003370       ??_C@_1O@EAKMAJDN@?$AAq?$AAu?$AAz?$AA?9?$AAb?$AAo?$AA?$AA@ 10051370     libcpmt:winapinls.obj
 0002:00003380       ??_C@_1O@BHHPIGDN@?$AAq?$AAu?$AAz?$AA?9?$AAe?$AAc?$AA?$AA@ 10051380     libcpmt:winapinls.obj
 0002:00003390       ??_C@_1O@GBAPEKMJ@?$AAq?$AAu?$AAz?$AA?9?$AAp?$AAe?$AA?$AA@ 10051390     libcpmt:winapinls.obj
 0002:000033a0       ??_C@_1M@CLGLEFBO@?$AAr?$AAo?$AA?9?$AAr?$AAo?$AA?$AA@ 100513a0     libcpmt:winapinls.obj
 0002:000033ac       ??_C@_1M@CEEDODME@?$AAr?$AAu?$AA?9?$AAr?$AAu?$AA?$AA@ 100513ac     libcpmt:winapinls.obj
 0002:000033b8       ??_C@_1M@HPKKKMPP@?$AAs?$AAa?$AA?9?$AAi?$AAn?$AA?$AA@ 100513b8     libcpmt:winapinls.obj
 0002:000033c4       ??_C@_1M@BKMAIGOJ@?$AAs?$AAe?$AA?9?$AAf?$AAi?$AA?$AA@ 100513c4     libcpmt:winapinls.obj
 0002:000033d0       ??_C@_1M@NDPIFLFI@?$AAs?$AAe?$AA?9?$AAn?$AAo?$AA?$AA@ 100513d0     libcpmt:winapinls.obj
 0002:000033dc       ??_C@_1M@DANKKHJ@?$AAs?$AAe?$AA?9?$AAs?$AAe?$AA?$AA@ 100513dc     libcpmt:winapinls.obj
 0002:000033e8       ??_C@_1M@PNBLONPJ@?$AAs?$AAk?$AA?9?$AAs?$AAk?$AA?$AA@ 100513e8     libcpmt:winapinls.obj
 0002:000033f4       ??_C@_1M@LFMODOAL@?$AAs?$AAl?$AA?9?$AAs?$AAi?$AA?$AA@ 100513f4     libcpmt:winapinls.obj
 0002:00003400       ??_C@_1O@DFKOMPG@?$AAs?$AAm?$AAa?$AA?9?$AAn?$AAo?$AA?$AA@ 10051400     libcpmt:winapinls.obj
 0002:00003410       ??_C@_1O@NDKPBNNH@?$AAs?$AAm?$AAa?$AA?9?$AAs?$AAe?$AA?$AA@ 10051410     libcpmt:winapinls.obj
 0002:00003420       ??_C@_1O@PLLKBHAB@?$AAs?$AAm?$AAj?$AA?9?$AAn?$AAo?$AA?$AA@ 10051420     libcpmt:winapinls.obj
 0002:00003430       ??_C@_1O@CLEPOGCA@?$AAs?$AAm?$AAj?$AA?9?$AAs?$AAe?$AA?$AA@ 10051430     libcpmt:winapinls.obj
 0002:00003440       ??_C@_1O@DLGJGKMK@?$AAs?$AAm?$AAn?$AA?9?$AAf?$AAi?$AA?$AA@ 10051440     libcpmt:winapinls.obj
 0002:00003450       ??_C@_1O@OJDJGAJC@?$AAs?$AAm?$AAs?$AA?9?$AAf?$AAi?$AA?$AA@ 10051450     libcpmt:winapinls.obj
 0002:00003460       ??_C@_1M@BOFOGHPB@?$AAs?$AAq?$AA?9?$AAa?$AAl?$AA?$AA@ 10051460     libcpmt:winapinls.obj
 0002:0000346c       ??_C@_1BG@LJBBIPGB@?$AAs?$AAr?$AA?9?$AAb?$AAa?$AA?9?$AAc?$AAy?$AAr?$AAl?$AA?$AA@ 1005146c     libcpmt:winapinls.obj
 0002:00003484       ??_C@_1BG@JLBENFOE@?$AAs?$AAr?$AA?9?$AAb?$AAa?$AA?9?$AAl?$AAa?$AAt?$AAn?$AA?$AA@ 10051484     libcpmt:winapinls.obj
 0002:0000349c       ??_C@_1BG@KODPNHE@?$AAs?$AAr?$AA?9?$AAs?$AAp?$AA?9?$AAc?$AAy?$AAr?$AAl?$AA?$AA@ 1005149c     libcpmt:winapinls.obj
 0002:000034b4       ??_C@_1BG@CIOGKHPB@?$AAs?$AAr?$AA?9?$AAs?$AAp?$AA?9?$AAl?$AAa?$AAt?$AAn?$AA?$AA@ 100514b4     libcpmt:winapinls.obj
 0002:000034cc       ??_C@_1M@NGFJLMAC@?$AAs?$AAv?$AA?9?$AAf?$AAi?$AA?$AA@ 100514cc     libcpmt:winapinls.obj
 0002:000034d8       ??_C@_1M@MPJEJAJC@?$AAs?$AAv?$AA?9?$AAs?$AAe?$AA?$AA@ 100514d8     libcpmt:winapinls.obj
 0002:000034e4       ??_C@_1M@MPNDHLFK@?$AAs?$AAw?$AA?9?$AAk?$AAe?$AA?$AA@ 100514e4     libcpmt:winapinls.obj
 0002:000034f0       ??_C@_1O@KOHBJJI@?$AAs?$AAy?$AAr?$AA?9?$AAs?$AAy?$AA?$AA@ 100514f0     libcpmt:winapinls.obj
 0002:00003500       ??_C@_1M@LDCEFHA@?$AAt?$AAa?$AA?9?$AAi?$AAn?$AA?$AA@ 10051500     libcpmt:winapinls.obj
 0002:0000350c       ??_C@_1M@CNJOFAK@?$AAt?$AAe?$AA?9?$AAi?$AAn?$AA?$AA@ 1005150c     libcpmt:winapinls.obj
 0002:00003518       ??_C@_1M@GNAECACD@?$AAt?$AAh?$AA?9?$AAt?$AAh?$AA?$AA@ 10051518     libcpmt:winapinls.obj
 0002:00003524       ??_C@_1M@CHBIHOJO@?$AAt?$AAn?$AA?9?$AAz?$AAa?$AA?$AA@ 10051524     libcpmt:winapinls.obj
 0002:00003530       ??_C@_1M@GCCMIGPJ@?$AAt?$AAr?$AA?9?$AAt?$AAr?$AA?$AA@ 10051530     libcpmt:winapinls.obj
 0002:0000353c       ??_C@_1M@CELMCNBK@?$AAt?$AAt?$AA?9?$AAr?$AAu?$AA?$AA@ 1005153c     libcpmt:winapinls.obj
 0002:00003548       ??_C@_1M@KLMCELGA@?$AAu?$AAk?$AA?9?$AAu?$AAa?$AA?$AA@ 10051548     libcpmt:winapinls.obj
 0002:00003554       ??_C@_1M@EPAJJAJF@?$AAu?$AAr?$AA?9?$AAp?$AAk?$AA?$AA@ 10051554     libcpmt:winapinls.obj
 0002:00003560       ??_C@_1BG@GEGPMCDJ@?$AAu?$AAz?$AA?9?$AAu?$AAz?$AA?9?$AAc?$AAy?$AAr?$AAl?$AA?$AA@ 10051560     libcpmt:winapinls.obj
 0002:00003578       ??_C@_1BG@EGGKJILM@?$AAu?$AAz?$AA?9?$AAu?$AAz?$AA?9?$AAl?$AAa?$AAt?$AAn?$AA?$AA@ 10051578     libcpmt:winapinls.obj
 0002:00003590       ??_C@_1M@GFOCLFF@?$AAv?$AAi?$AA?9?$AAv?$AAn?$AA?$AA@ 10051590     libcpmt:winapinls.obj
 0002:0000359c       ??_C@_1M@CPAMEDFI@?$AAx?$AAh?$AA?9?$AAz?$AAa?$AA?$AA@ 1005159c     libcpmt:winapinls.obj
 0002:000035a8       ??_C@_1O@EBKIFIGN@?$AAz?$AAh?$AA?9?$AAc?$AAh?$AAs?$AA?$AA@ 100515a8     libcpmt:winapinls.obj
 0002:000035b8       ??_C@_1O@NMHPGANE@?$AAz?$AAh?$AA?9?$AAc?$AAh?$AAt?$AA?$AA@ 100515b8     libcpmt:winapinls.obj
 0002:000035c8       ??_C@_1M@LPINJOMC@?$AAz?$AAh?$AA?9?$AAc?$AAn?$AA?$AA@ 100515c8     libcpmt:winapinls.obj
 0002:000035d4       ??_C@_1M@OCJEJODD@?$AAz?$AAh?$AA?9?$AAh?$AAk?$AA?$AA@ 100515d4     libcpmt:winapinls.obj
 0002:000035e0       ??_C@_1M@DNDLJINH@?$AAz?$AAh?$AA?9?$AAm?$AAo?$AA?$AA@ 100515e0     libcpmt:winapinls.obj
 0002:000035ec       ??_C@_1M@MBFDNDND@?$AAz?$AAh?$AA?9?$AAs?$AAg?$AA?$AA@ 100515ec     libcpmt:winapinls.obj
 0002:000035f8       ??_C@_1M@IMEPLEPE@?$AAz?$AAh?$AA?9?$AAt?$AAw?$AA?$AA@ 100515f8     libcpmt:winapinls.obj
 0002:00003604       ??_C@_1M@BBGHNHJP@?$AAz?$AAu?$AA?9?$AAz?$AAa?$AA?$AA@ 10051604     libcpmt:winapinls.obj
 0002:00003614       ??_7type_info@@6B@         10051614     LIBCMT:std_type_info_static.obj
 0002:00003618       __pRawDllMain              10051618     LIBCMT:dll_dllmain.obj
 0002:00003618       __pDefaultRawDllMain       10051618     LIBCMT:dll_dllmain.obj
 0002:00003628       ??_7bad_array_new_length@std@@6B@ 10051628     LIBCMT:throw_bad_alloc.obj
 0002:00003630       ??_C@_0BF@KINCDENJ@bad?5array?5new?5length?$AA@ 10051630     LIBCMT:throw_bad_alloc.obj
 0002:0000364c       ??_7improper_lock@Concurrency@@6B@ 1005164c     libconcrt:rtlocks.obj
 0002:00003654       ??_C@_0BD@BAGHDICJ@Lock?5already?5taken?$AA@ 10051654     libconcrt:rtlocks.obj
 0002:0000366c       ??_7scheduler_resource_allocation_error@Concurrency@@6B@ 1005166c     libconcrt:Platform.obj
 0002:00003674       ??_C@_0BH@CJPDKMEB@SetThreadGroupAffinity?$AA@ 10051674     libconcrt:Platform.obj
 0002:0000368c       ??_C@_0BH@CINNILJO@GetThreadGroupAffinity?$AA@ 1005168c     libconcrt:Platform.obj
 0002:000036a4       ??_C@_0BM@JLHMEGJA@GetCurrentProcessorNumberEx?$AA@ 100516a4     libconcrt:Platform.obj
 0002:000036c0       ??_C@_0CB@HOJBBPPI@GetLogicalProcessorInformationEx@ 100516c0     libconcrt:Platform.obj
 0002:000036e8       ??_7scheduler_worker_creation_error@Concurrency@@6B@ 100516e8     libconcrt:Exceptions.obj
 0002:000036f4       ??_7unsupported_os@Concurrency@@6B@ 100516f4     libconcrt:Exceptions.obj
 0002:00003700       ??_7improper_scheduler_attach@Concurrency@@6B@ 10051700     libconcrt:Exceptions.obj
 0002:0000370c       ??_7improper_scheduler_reference@Concurrency@@6B@ 1005170c     libconcrt:Exceptions.obj
 0002:00003718       ??_7context_unblock_unbalanced@Concurrency@@6B@ 10051718     libconcrt:Exceptions.obj
 0002:00003724       ??_7context_self_unblock@Concurrency@@6B@ 10051724     libconcrt:Exceptions.obj
 0002:00003730       ??_7missing_wait@Concurrency@@6B@ 10051730     libconcrt:Exceptions.obj
 0002:0000373c       ??_7invalid_scheduler_policy_key@Concurrency@@6B@ 1005173c     libconcrt:Exceptions.obj
 0002:00003748       ??_7invalid_scheduler_policy_value@Concurrency@@6B@ 10051748     libconcrt:Exceptions.obj
 0002:00003754       ??_7invalid_scheduler_policy_thread_specification@Concurrency@@6B@ 10051754     libconcrt:Exceptions.obj
 0002:00003760       ??_7nested_scheduler_missing_detach@Concurrency@@6B@ 10051760     libconcrt:Exceptions.obj
 0002:0000376c       ??_7invalid_oversubscribe_operation@Concurrency@@6B@ 1005176c     libconcrt:Exceptions.obj
 0002:00003778       ??_7invalid_operation@Concurrency@@6B@ 10051778     libconcrt:ResourceManager.obj
 0002:00003784       ??_7TopologyObject@GlobalCore@details@Concurrency@@6B@ 10051784     libconcrt:ResourceManager.obj
 0002:00003790       ??_7TopologyObject@GlobalNode@details@Concurrency@@6B@ 10051790     libconcrt:ResourceManager.obj
 0002:000037a8       ??_7ResourceManager@details@Concurrency@@6B@ 100517a8     libconcrt:ResourceManager.obj
 0002:000037c0       ??_C@_05IOMEMJEC@count?$AA@ 100517c0     libconcrt:ResourceManager.obj
 0002:000037c8       ??_C@_0L@HKFDMHB@pScheduler?$AA@ 100517c8     libconcrt:ResourceManager.obj
 0002:000037d4       ??_C@_07CPCPJPKL@version?$AA@ 100517d4     libconcrt:ResourceManager.obj
 0002:000037e0       __real@3e7ad7f29abcaf48    100517e0     libconcrt:ResourceManager.obj
 0002:000037e8       __real@3ff0000000000000    100517e8     libconcrt:ResourceManager.obj
 0002:000037f0       __real@41f0000000000000    100517f0     libconcrt:ResourceManager.obj
 0002:000037f8       ?s_maxExternalAllocators@SchedulerBase@details@Concurrency@@0HB 100517f8     libconcrt:SchedulerBase.obj
 0002:000037fc       ?s_allocatorFreePoolLimit@SchedulerBase@details@Concurrency@@0HB 100517fc     libconcrt:SchedulerBase.obj
 0002:00003804       ??_7ScheduleGroup@Concurrency@@6B@ 10051804     libconcrt:SchedulerBase.obj
 0002:0000381c       ??_7Scheduler@Concurrency@@6B@ 1005181c     libconcrt:SchedulerBase.obj
 0002:00003854       ??_7_Chore@details@Concurrency@@6B@ 10051854     libconcrt:SchedulerBase.obj
 0002:0000385c       ??_7RealizedChore@details@Concurrency@@6B@ 1005185c     libconcrt:SchedulerBase.obj
 0002:00003864       ??_7SchedulerBase@details@Concurrency@@6B@ 10051864     libconcrt:SchedulerBase.obj
 0002:000038c8       ??_7CacheLocalScheduleGroupSegment@details@Concurrency@@6B@ 100518c8     libconcrt:SchedulerBase.obj
 0002:000038dc       ??_7CacheLocalScheduleGroup@details@Concurrency@@6B@ 100518dc     libconcrt:SchedulerBase.obj
 0002:00003908       ??_7FairScheduleGroupSegment@details@Concurrency@@6B@ 10051908     libconcrt:SchedulerBase.obj
 0002:0000391c       ??_7FairScheduleGroup@details@Concurrency@@6B@ 1005191c     libconcrt:SchedulerBase.obj
 0002:00003944       ??_C@_0M@IAPOLKMH@eventObject?$AA@ 10051944     libconcrt:SchedulerBase.obj
 0002:00003950       ??_C@_0BI@PMOAFEOC@ppVirtualProcessorRoots?$AA@ 10051950     libconcrt:SchedulerBase.obj
 0002:0000396c       ??_7WaitBlock@details@Concurrency@@6B@ 1005196c     libconcrt:event.obj
 0002:00003984       ??_7SingleWaitBlock@details@Concurrency@@6B@ 10051984     libconcrt:event.obj
 0002:0000399c       ??_7MultiWaitBlock@details@Concurrency@@6B@ 1005199c     libconcrt:event.obj
 0002:000039b8       ??_7WaitAllBlock@details@Concurrency@@6B@ 100519b8     libconcrt:event.obj
 0002:000039d4       ??_7WaitAnyBlock@details@Concurrency@@6B@ 100519d4     libconcrt:event.obj
 0002:000039f0       ??_7TimedSingleWaitBlock@details@Concurrency@@6B@ 100519f0     libconcrt:event.obj
 0002:00003a08       ??_7?$_MallocaArrayHolder@PAVContext@Concurrency@@@details@Concurrency@@6B@ 10051a08     libconcrt:event.obj
 0002:00003a0c       ??_C@_07CAAEJHLA@pEvents?$AA@ 10051a0c     libconcrt:event.obj
 0002:00003a18       ??_7Context@Concurrency@@6B@ 10051a18     libconcrt:ContextBase.obj
 0002:00003a34       ??_7ContextBase@details@Concurrency@@6B@ 10051a34     libconcrt:ContextBase.obj
 0002:00003a80       ?_Upper@?1??_Memory_order_upper_bound@std@@YA?AW4memory_order@2@W432@0@Z@4QAY05$$CBW432@A 10051a80     libconcrt:TaskCollection.obj
 0002:00003b14       ??_7_Interruption_exception@details@Concurrency@@6B@ 10051b14     libconcrt:TaskCollection.obj
 0002:00003b20       ??_7_RefCounter@details@Concurrency@@6B@ 10051b20     libconcrt:TaskCollection.obj
 0002:00003b2c       ??_7_CancellationTokenRegistration@details@Concurrency@@6B@ 10051b2c     libconcrt:TaskCollection.obj
 0002:00003b3c       ??_7CancellationTokenRegistration_TaskProc@details@Concurrency@@6B@ 10051b3c     libconcrt:TaskCollection.obj
 0002:00003b4c       ??_7?$_MallocaArrayHolder@PAVevent@Concurrency@@@details@Concurrency@@6B@ 10051b4c     libconcrt:TaskCollection.obj
 0002:00003b50       ??_C@_0O@JJAHDPNG@SchedulerKind?$AA@ 10051b50     libconcrt:SchedulerPolicyBase.obj
 0002:00003b60       ??_C@_0P@CGAHIHHE@MaxConcurrency?$AA@ 10051b60     libconcrt:SchedulerPolicyBase.obj
 0002:00003b70       ??_C@_0P@BLMOAEF@MinConcurrency?$AA@ 10051b70     libconcrt:SchedulerPolicyBase.obj
 0002:00003b80       ??_C@_0BN@GKPFKNNF@TargetOversubscriptionFactor?$AA@ 10051b80     libconcrt:SchedulerPolicyBase.obj
 0002:00003ba0       ??_C@_0BG@PCMPEOIE@LocalContextCacheSize?$AA@ 10051ba0     libconcrt:SchedulerPolicyBase.obj
 0002:00003bb8       ??_C@_0BB@OPLJNNNB@ContextStackSize?$AA@ 10051bb8     libconcrt:SchedulerPolicyBase.obj
 0002:00003bcc       ??_C@_0BA@CHGPFLBM@ContextPriority?$AA@ 10051bcc     libconcrt:SchedulerPolicyBase.obj
 0002:00003bdc       ??_C@_0BD@HMLGOEAM@SchedulingProtocol?$AA@ 10051bdc     libconcrt:SchedulerPolicyBase.obj
 0002:00003bf0       ??_C@_0BI@PEDMDBKL@DynamicProgressFeedback?$AA@ 10051bf0     libconcrt:SchedulerPolicyBase.obj
 0002:00003c08       ??_C@_0BE@EBKJEJDK@WinRTInitialization?$AA@ 10051c08     libconcrt:SchedulerPolicyBase.obj
 0002:00003c1c       ??_C@_0BE@OJPKBKLL@MaxPolicyElementKey?$AA@ 10051c1c     libconcrt:SchedulerPolicyBase.obj
 0002:00003c34       ??_7ExecutionResource@details@Concurrency@@6B@ 10051c34     libconcrt:ExecutionResource.obj
 0002:00003c48       __real@3f1a36e2eb1c432d    10051c48     libconcrt:HillClimbing.obj
 0002:00003c50       __real@3f70624dd2f1a9fc    10051c50     libconcrt:HillClimbing.obj
 0002:00003c58       __real@3fc3333333333333    10051c58     libconcrt:HillClimbing.obj
 0002:00003c60       __real@bff0000000000000    10051c60     libconcrt:HillClimbing.obj
 0002:00003c6c       ??_7SchedulerProxy@details@Concurrency@@6B@ 10051c6c     libconcrt:SchedulerProxy.obj
 0002:00003c94       ??_C@_08BAFMHLII@pContext?$AA@ 10051c94     libconcrt:SchedulerProxy.obj
 0002:00003ca0       ??_C@_0BD@HOFLOOHM@pExecutionResource?$AA@ 10051ca0     libconcrt:SchedulerProxy.obj
 0002:00003cb4       ??_C@_1BI@IDAOOPDH@?$AAc?$AAo?$AAm?$AAb?$AAa?$AAs?$AAe?$AA?4?$AAd?$AAl?$AAl?$AA?$AA@ 10051cb4     libconcrt:WinRTWrapper.obj
 0002:00003ccc       ??_C@_0N@PPOMPGGK@RoInitialize?$AA@ 10051ccc     libconcrt:WinRTWrapper.obj
 0002:00003cdc       ??_C@_0P@LLFHBIJD@RoUninitialize?$AA@ 10051cdc     libconcrt:WinRTWrapper.obj
 0002:00003cf0       ??_7FreeThreadProxy@details@Concurrency@@6B@ 10051cf0     libconcrt:ThreadProxyFactoryManager.obj
 0002:00003d0c       ??_7IThreadProxyFactory@details@Concurrency@@6B@ 10051d0c     libconcrt:ThreadProxyFactoryManager.obj
 0002:00003d24       ?s_proxyStackSize@?$ThreadProxyFactory@VFreeThreadProxy@details@Concurrency@@@details@Concurrency@@1QBIB 10051d24     libconcrt:ThreadProxyFactoryManager.obj
 0002:00003d38       ??_7?$ThreadProxyFactory@VFreeThreadProxy@details@Concurrency@@@details@Concurrency@@6B@ 10051d38     libconcrt:ThreadProxyFactoryManager.obj
 0002:00003d64       ??_7FreeThreadProxyFactory@details@Concurrency@@6B@ 10051d64     libconcrt:ThreadProxyFactoryManager.obj
 0002:00003d8c       ?ConcRT_ProviderGuid@Concurrency@@3U_GUID@@B 10051d8c     libconcrt:Trace.obj
 0002:00003d9c       ?ConcRTEventGuid@Concurrency@@3U_GUID@@B 10051d9c     libconcrt:Trace.obj
 0002:00003dac       ?SchedulerEventGuid@Concurrency@@3U_GUID@@B 10051dac     libconcrt:Trace.obj
 0002:00003dbc       ?ScheduleGroupEventGuid@Concurrency@@3U_GUID@@B 10051dbc     libconcrt:Trace.obj
 0002:00003dcc       ?ContextEventGuid@Concurrency@@3U_GUID@@B 10051dcc     libconcrt:Trace.obj
 0002:00003ddc       ?ChoreEventGuid@Concurrency@@3U_GUID@@B 10051ddc     libconcrt:Trace.obj
 0002:00003dec       ?VirtualProcessorEventGuid@Concurrency@@3U_GUID@@B 10051dec     libconcrt:Trace.obj
 0002:00003dfc       ?LockEventGuid@Concurrency@@3U_GUID@@B 10051dfc     libconcrt:Trace.obj
 0002:00003e0c       ?ResourceManagerEventGuid@Concurrency@@3U_GUID@@B 10051e0c     libconcrt:Trace.obj
 0002:00003e1c       ?PPLParallelInvokeEventGuid@Concurrency@@3U_GUID@@B 10051e1c     libconcrt:Trace.obj
 0002:00003e2c       ?PPLParallelForEventGuid@Concurrency@@3U_GUID@@B 10051e2c     libconcrt:Trace.obj
 0002:00003e3c       ?PPLParallelForeachEventGuid@Concurrency@@3U_GUID@@B 10051e3c     libconcrt:Trace.obj
 0002:00003e4c       ?AgentEventGuid@Concurrency@@3U_GUID@@B 10051e4c     libconcrt:Trace.obj
 0002:00003e5c       ??_C@_1BK@JHLNAEJL@?$AAa?$AAd?$AAv?$AAa?$AAp?$AAi?$AA3?$AA2?$AA?4?$AAd?$AAl?$AAl?$AA?$AA@ 10051e5c     libconcrt:Trace.obj
 0002:00003e78       ??_C@_0BE@FKJMGMF@RegisterTraceGuidsW?$AA@ 10051e78     libconcrt:Trace.obj
 0002:00003e8c       ??_C@_0BF@OFMMALCC@UnregisterTraceGuids?$AA@ 10051e8c     libconcrt:Trace.obj
 0002:00003ea4       ??_C@_0L@EOLEDHLE@TraceEvent?$AA@ 10051ea4     libconcrt:Trace.obj
 0002:00003eb0       ??_C@_0BF@OFCGPMKL@GetTraceLoggerHandle?$AA@ 10051eb0     libconcrt:Trace.obj
 0002:00003ec8       ??_C@_0BE@JCHMKLLJ@GetTraceEnableLevel?$AA@ 10051ec8     libconcrt:Trace.obj
 0002:00003edc       ??_C@_0BE@DNOHFPHI@GetTraceEnableFlags?$AA@ 10051edc     libconcrt:Trace.obj
 0002:00003ef4       ??_7VirtualProcessor@details@Concurrency@@6B@ 10051ef4     libconcrt:VirtualProcessor.obj
 0002:00003f18       ?s_bucketSizes@SubAllocator@details@Concurrency@@0QBHB 10051f18     libconcrt:SubAllocator.obj
 0002:00004098       ?GranularityShift@SubAllocator@details@Concurrency@@0HB 10052098     libconcrt:SubAllocator.obj
 0002:0000409c       ?MaxAllocationSize@SubAllocator@details@Concurrency@@0HB 1005209c     libconcrt:SubAllocator.obj
 0002:000040a4       ??_7IExecutionContext@Concurrency@@6B@ 100520a4     libconcrt:InternalContextBase.obj
 0002:000040bc       ??_7InternalContextBase@details@Concurrency@@6BIExecutionContext@2@@ 100520bc     libconcrt:InternalContextBase.obj
 0002:000040e4       ??_7InternalContextBase@details@Concurrency@@6BContextBase@12@@ 100520e4     libconcrt:InternalContextBase.obj
 0002:0000412c       ??_C@_0N@FACDCNDA@pThreadProxy?$AA@ 1005212c     libconcrt:InternalContextBase.obj
 0002:00004140       ??_7ScheduleGroupSegmentBase@details@Concurrency@@6B@ 10052140     libconcrt:ScheduleGroupBase.obj
 0002:00004154       ??_7ScheduleGroupBase@details@Concurrency@@6B@ 10052154     libconcrt:ScheduleGroupBase.obj
 0002:0000417c       ??_C@_04MGCDEED@proc?$AA@  1005217c     libconcrt:ScheduleGroupBase.obj
 0002:00004188       ??_7ExternalContextBase@details@Concurrency@@6B@ 10052188     libconcrt:ExternalContextBase.obj
 0002:000041d4       ??_7IScheduler@Concurrency@@6B@ 100521d4     libconcrt:ThreadScheduler.obj
 0002:000041f4       ??_7ThreadInternalContext@details@Concurrency@@6BIExecutionContext@2@@ 100521f4     libconcrt:ThreadScheduler.obj
 0002:0000421c       ??_7ThreadInternalContext@details@Concurrency@@6BContextBase@12@@ 1005221c     libconcrt:ThreadScheduler.obj
 0002:00004268       ??_7ThreadScheduler@details@Concurrency@@6BIScheduler@2@@ 10052268     libconcrt:ThreadScheduler.obj
 0002:00004288       ??_7ThreadScheduler@details@Concurrency@@6BSchedulerBase@12@@ 10052288     libconcrt:ThreadScheduler.obj
 0002:000042ec       ??_7VirtualProcessorRoot@details@Concurrency@@6B@ 100522ec     libconcrt:VirtualProcessorRoot.obj
 0002:00004318       ??_7FreeVirtualProcessorRoot@details@Concurrency@@6B@ 10052318     libconcrt:FreeVirtualProcessorRoot.obj
 0002:00004340       ??_C@_0M@CIMHMGAD@switchState?$AA@ 10052340     libconcrt:FreeThreadProxy.obj
 0002:00004350       ??_7ThreadProxy@details@Concurrency@@6B@ 10052350     libconcrt:ThreadProxy.obj
 0002:0000436c       ??_7ThreadVirtualProcessor@details@Concurrency@@6B@ 1005236c     libconcrt:ThreadVirtualProcessor.obj
 0002:000043b0       __pDestructExceptionObject 100523b0     libvcruntime:frame.obj
 0002:000043b8       ??_7bad_exception@std@@6B@ 100523b8     libvcruntime:frame.obj
 0002:000043c0       ??_C@_0O@DPKOEFFH@bad?5exception?$AA@ 100523c0     libvcruntime:frame.obj
 0002:000043e0       ??_C@_1BC@DNHGCMLG@?$AAa?$AAd?$AAv?$AAa?$AAp?$AAi?$AA3?$AA2?$AA?$AA@ 100523e0     libvcruntime:winapi_downlevel.obj
 0002:000043f4       ??_C@_1DM@KHCHBNEB@?$AAa?$AAp?$AAi?$AA?9?$AAm?$AAs?$AA?9?$AAw?$AAi?$AAn?$AA?9?$AAc?$AAo?$AAr?$AAe?$AA?9?$AAf?$AAi?$AAb?$AAe?$AAr?$AAs?$AA?9?$AAl?$AA1?$AA?9?$AA1?$AA?9?$AA1?$AA?$AA@ 100523f4     libvcruntime:winapi_downlevel.obj
 0002:00004430       ??_C@_1DK@LPPGFMPP@?$AAa?$AAp?$AAi?$AA?9?$AAm?$AAs?$AA?9?$AAw?$AAi?$AAn?$AA?9?$AAc?$AAo?$AAr?$AAe?$AA?9?$AAs?$AAy?$AAn?$AAc?$AAh?$AA?9?$AAl?$AA1?$AA?9?$AA2?$AA?9?$AA0?$AA?$AA@ 10052430     libvcruntime:winapi_downlevel.obj
 0002:0000446c       ??_C@_1BC@GDMECMAK@?$AAk?$AAe?$AAr?$AAn?$AAe?$AAl?$AA3?$AA2?$AA?$AA@ 1005246c     libvcruntime:winapi_downlevel.obj
 0002:000044ac       ??_7bad_typeid@std@@6B@    100524ac     libvcruntime:rtti.obj
 0002:000044b8       ??_7__non_rtti_object@std@@6B@ 100524b8     libvcruntime:rtti.obj
 0002:000044c0       ??_C@_0CB@CGKGGDFI@Access?5violation?5?9?5no?5RTTI?5data?$CB@ 100524c0     libvcruntime:rtti.obj
 0002:000044e4       ??_C@_0BC@JNJNLHBP@Bad?5dynamic_cast?$CB?$AA@ 100524e4     libvcruntime:rtti.obj
 0002:00004688       ??_C@_08EHJDFFNH@__based?$CI?$AA@ 10052688     libvcruntime:undname.obj
 0002:00004694       ??_C@_07KOLFKCDI@__cdecl?$AA@ 10052694     libvcruntime:undname.obj
 0002:0000469c       ??_C@_08GHMPAG@__pascal?$AA@ 1005269c     libvcruntime:undname.obj
 0002:000046a8       ??_C@_09IFJBGAPI@__stdcall?$AA@ 100526a8     libvcruntime:undname.obj
 0002:000046b4       ??_C@_0L@NPHFGOKO@__thiscall?$AA@ 100526b4     libvcruntime:undname.obj
 0002:000046c0       ??_C@_0L@JMKHOMEK@__fastcall?$AA@ 100526c0     libvcruntime:undname.obj
 0002:000046cc       ??_C@_0N@BCKKPABJ@__vectorcall?$AA@ 100526cc     libvcruntime:undname.obj
 0002:000046dc       ??_C@_09HIJEGCPM@__clrcall?$AA@ 100526dc     libvcruntime:undname.obj
 0002:000046e8       ??_C@_06GHPCKEAG@__eabi?$AA@ 100526e8     libvcruntime:undname.obj
 0002:000046f0       ??_C@_07JOMMBBKO@__ptr64?$AA@ 100526f0     libvcruntime:undname.obj
 0002:000046f8       ??_C@_0L@PILCLIHE@__restrict?$AA@ 100526f8     libvcruntime:undname.obj
 0002:00004704       ??_C@_0M@GFIIJFMG@__unaligned?$AA@ 10052704     libvcruntime:undname.obj
 0002:00004710       ??_C@_09DHDLOLLB@restrict?$CI?$AA@ 10052710     libvcruntime:undname.obj
 0002:0000471c       ??_C@_04NIHEBCM@?5new?$AA@ 1005271c     libvcruntime:undname.obj
 0002:00004724       ??_C@_07FPCDHGMM@?5delete?$AA@ 10052724     libvcruntime:undname.obj
 0002:0000472c       ??_C@_01NEMOKFLO@?$DN?$AA@ 1005272c     libvcruntime:undname.obj
 0002:00004730       ??_C@_02GPIOPFAK@?$DO?$DO?$AA@ 10052730     libvcruntime:undname.obj
 0002:00004734       ??_C@_02FODMEDOG@?$DM?$DM?$AA@ 10052734     libvcruntime:undname.obj
 0002:00004738       ??_C@_01DCLJPIOD@?$CB?$AA@ 10052738     libvcruntime:undname.obj
 0002:0000473c       ??_C@_02EGOFBIJA@?$DN?$DN?$AA@ 1005273c     libvcruntime:undname.obj
 0002:00004740       ??_C@_02FDNJECIE@?$CB?$DN?$AA@ 10052740     libvcruntime:undname.obj
 0002:00004744       ??_C@_02GPECMEKF@?$FL?$FN?$AA@ 10052744     libvcruntime:undname.obj
 0002:00004748       ??_C@_08LHJFAFGD@operator?$AA@ 10052748     libvcruntime:undname.obj
 0002:00004754       ??_C@_02HBOOOICD@?9?$DO?$AA@ 10052754     libvcruntime:undname.obj
 0002:00004758       ??_C@_02ECNGHCIF@?$CL?$CL?$AA@ 10052758     libvcruntime:undname.obj
 0002:0000475c       ??_C@_02BAABKJLB@?9?9?$AA@ 1005275c     libvcruntime:undname.obj
 0002:00004760       ??_C@_01MIFGBAGJ@?$CL?$AA@ 10052760     libvcruntime:undname.obj
 0002:00004764       ??_C@_01HNPIGOCE@?$CG?$AA@ 10052764     libvcruntime:undname.obj
 0002:00004768       ??_C@_03MNHNFDLC@?9?$DO?$CK?$AA@ 10052768     libvcruntime:undname.obj
 0002:0000476c       ??_C@_01FGNFDNOH@?$CF?$AA@ 1005276c     libvcruntime:undname.obj
 0002:00004770       ??_C@_01MNNFJEPP@?$DM?$AA@ 10052770     libvcruntime:undname.obj
 0002:00004774       ??_C@_02EHCHHCKH@?$DM?$DN?$AA@ 10052774     libvcruntime:undname.obj
 0002:00004778       ??_C@_01PPODPGHN@?$DO?$AA@ 10052778     libvcruntime:undname.obj
 0002:0000477c       ??_C@_02EEKDKGMJ@?$DO?$DN?$AA@ 1005277c     libvcruntime:undname.obj
 0002:00004780       ??_C@_01IHBHIGKO@?0?$AA@   10052780     libvcruntime:undname.obj
 0002:00004784       ??_C@_02HCKGKOFO@?$CI?$CJ?$AA@ 10052784     libvcruntime:undname.obj
 0002:00004788       ??_C@_01PJKLJHI@?$HO?$AA@  10052788     libvcruntime:undname.obj
 0002:0000478c       ??_C@_01JKBOJNNK@?$FO?$AA@ 1005278c     libvcruntime:undname.obj
 0002:00004790       ??_C@_01DNKMNLPK@?$HM?$AA@ 10052790     libvcruntime:undname.obj
 0002:00004794       ??_C@_02PPKAJPJL@?$CG?$CG?$AA@ 10052794     libvcruntime:undname.obj
 0002:00004798       ??_C@_02NONPIBCD@?$HM?$HM?$AA@ 10052798     libvcruntime:undname.obj
 0002:0000479c       ??_C@_02FPIMKNGF@?$CK?$DN?$AA@ 1005279c     libvcruntime:undname.obj
 0002:000047a0       ??_C@_02FOEOMHFC@?$CL?$DN?$AA@ 100527a0     libvcruntime:undname.obj
 0002:000047a4       ??_C@_02FKMDLLOA@?9?$DN?$AA@ 100527a4     libvcruntime:undname.obj
 0002:000047a8       ??_C@_02FJEHGPIO@?1?$DN?$AA@ 100527a8     libvcruntime:undname.obj
 0002:000047ac       ??_C@_02FENAOKFI@?$CF?$DN?$AA@ 100527ac     libvcruntime:undname.obj
 0002:000047b0       ??_C@_03IKFCCPFF@?$DO?$DO?$DN?$AA@ 100527b0     libvcruntime:undname.obj
 0002:000047b4       ??_C@_03CDNPDDLA@?$DM?$DM?$DN?$AA@ 100527b4     libvcruntime:undname.obj
 0002:000047b8       ??_C@_02FGJGFEAB@?$CG?$DN?$AA@ 100527b8     libvcruntime:undname.obj
 0002:000047bc       ??_C@_02DHLNPPGH@?$HM?$DN?$AA@ 100527bc     libvcruntime:undname.obj
 0002:000047c0       ??_C@_02MHEGNOJ@?$FO?$DN?$AA@ 100527c0     libvcruntime:undname.obj
 0002:000047c4       ??_C@_09IFPLHPGF@?$GAvftable?8?$AA@ 100527c4     libvcruntime:undname.obj
 0002:000047d0       ??_C@_09BLBHBJP@?$GAvbtable?8?$AA@ 100527d0     libvcruntime:undname.obj
 0002:000047dc       ??_C@_07FEEIOKP@?$GAvcall?8?$AA@ 100527dc     libvcruntime:undname.obj
 0002:000047e4       ??_C@_08LLFFHHDJ@?$GAtypeof?8?$AA@ 100527e4     libvcruntime:undname.obj
 0002:000047f0       ??_C@_0BF@KDPPACIK@?$GAlocal?5static?5guard?8?$AA@ 100527f0     libvcruntime:undname.obj
 0002:00004808       ??_C@_08OBABFOLI@?$GAstring?8?$AA@ 10052808     libvcruntime:undname.obj
 0002:00004814       ??_C@_0BD@JDLKDPAB@?$GAvbase?5destructor?8?$AA@ 10052814     libvcruntime:undname.obj
 0002:00004828       ??_C@_0BN@DEGPLNFK@?$GAvector?5deleting?5destructor?8?$AA@ 10052828     libvcruntime:undname.obj
 0002:00004848       ??_C@_0BO@OBMKPJIG@?$GAdefault?5constructor?5closure?8?$AA@ 10052848     libvcruntime:undname.obj
 0002:00004868       ??_C@_0BN@IMDCHIKM@?$GAscalar?5deleting?5destructor?8?$AA@ 10052868     libvcruntime:undname.obj
 0002:00004888       ??_C@_0BO@PFGOCPJJ@?$GAvector?5constructor?5iterator?8?$AA@ 10052888     libvcruntime:undname.obj
 0002:000048a8       ??_C@_0BN@LFPFMEDL@?$GAvector?5destructor?5iterator?8?$AA@ 100528a8     libvcruntime:undname.obj
 0002:000048c8       ??_C@_0CE@IKBNEHA@?$GAvector?5vbase?5constructor?5iterat@ 100528c8     libvcruntime:undname.obj
 0002:000048ec       ??_C@_0BL@NILFHHPC@?$GAvirtual?5displacement?5map?8?$AA@ 100528ec     libvcruntime:undname.obj
 0002:00004908       ??_C@_0CB@JONCMFFK@?$GAeh?5vector?5constructor?5iterator?8@ 10052908     libvcruntime:undname.obj
 0002:0000492c       ??_C@_0CA@GCEOPDGL@?$GAeh?5vector?5destructor?5iterator?8?$AA@ 1005292c     libvcruntime:undname.obj
 0002:0000494c       ??_C@_0CH@OOJPLCPH@?$GAeh?5vector?5vbase?5constructor?5ite@ 1005294c     libvcruntime:undname.obj
 0002:00004974       ??_C@_0BL@LLKPOHJI@?$GAcopy?5constructor?5closure?8?$AA@ 10052974     libvcruntime:undname.obj
 0002:00004990       ??_C@_0BA@KBCDOMBN@?$GAudt?5returning?8?$AA@ 10052990     libvcruntime:undname.obj
 0002:000049a0       ??_C@_03KLGMFNMG@?$GAEH?$AA@ 100529a0     libvcruntime:undname.obj
 0002:000049a4       ??_C@_05KHLCHHI@?$GARTTI?$AA@ 100529a4     libvcruntime:undname.obj
 0002:000049ac       ??_C@_0BA@KKLDJDLB@?$GAlocal?5vftable?8?$AA@ 100529ac     libvcruntime:undname.obj
 0002:000049bc       ??_C@_0CE@IIHCMGGL@?$GAlocal?5vftable?5constructor?5closu@ 100529bc     libvcruntime:undname.obj
 0002:000049e0       ??_C@_06FHBGPFGH@?5new?$FL?$FN?$AA@ 100529e0     libvcruntime:undname.obj
 0002:000049e8       ??_C@_09LBNFPBCA@?5delete?$FL?$FN?$AA@ 100529e8     libvcruntime:undname.obj
 0002:000049f4       ??_C@_0P@HJKNJFNN@?$GAomni?5callsig?8?$AA@ 100529f4     libvcruntime:undname.obj
 0002:00004a04       ??_C@_0BL@CNOONJFP@?$GAplacement?5delete?5closure?8?$AA@ 10052a04     libvcruntime:undname.obj
 0002:00004a20       ??_C@_0BN@CKNJLHMB@?$GAplacement?5delete?$FL?$FN?5closure?8?$AA@ 10052a20     libvcruntime:undname.obj
 0002:00004a40       ??_C@_0CG@CFDHKGGD@?$GAmanaged?5vector?5constructor?5iter@ 10052a40     libvcruntime:undname.obj
 0002:00004a68       ??_C@_0CF@IMGKMJNO@?$GAmanaged?5vector?5destructor?5itera@ 10052a68     libvcruntime:undname.obj
 0002:00004a90       ??_C@_0CG@HLDDJMAG@?$GAeh?5vector?5copy?5constructor?5iter@ 10052a90     libvcruntime:undname.obj
 0002:00004ab8       ??_C@_0CM@FCBBDIGB@?$GAeh?5vector?5vbase?5copy?5constructo@ 10052ab8     libvcruntime:undname.obj
 0002:00004ae4       ??_C@_0BL@CLIPGLGB@?$GAdynamic?5initializer?5for?5?8?$AA@ 10052ae4     libvcruntime:undname.obj
 0002:00004b00       ??_C@_0CB@PDBIFEP@?$GAdynamic?5atexit?5destructor?5for?5?8@ 10052b00     libvcruntime:undname.obj
 0002:00004b24       ??_C@_0CD@CGAJBKEJ@?$GAvector?5copy?5constructor?5iterato@ 10052b24     libvcruntime:undname.obj
 0002:00004b48       ??_C@_0CJ@GJELGAMM@?$GAvector?5vbase?5copy?5constructor?5i@ 10052b48     libvcruntime:undname.obj
 0002:00004b74       ??_C@_0CL@FGIJHLCE@?$GAmanaged?5vector?5copy?5constructor@ 10052b74     libvcruntime:undname.obj
 0002:00004ba0       ??_C@_0BM@PMGGMLDN@?$GAlocal?5static?5thread?5guard?8?$AA@ 10052ba0     libvcruntime:undname.obj
 0002:00004bbc       ??_C@_0N@BDNMDMOL@operator?5?$CC?$CC?5?$AA@ 10052bbc     libvcruntime:undname.obj
 0002:00004bcc       ??_C@_0BC@DAFEJGAK@?5Type?5Descriptor?8?$AA@ 10052bcc     libvcruntime:undname.obj
 0002:00004be0       ??_C@_0BM@LDKODKLH@?5Base?5Class?5Descriptor?5at?5?$CI?$AA@ 10052be0     libvcruntime:undname.obj
 0002:00004bfc       ??_C@_0BD@LGICGFMM@?5Base?5Class?5Array?8?$AA@ 10052bfc     libvcruntime:undname.obj
 0002:00004c10       ??_C@_0BN@MECKDCOJ@?5Class?5Hierarchy?5Descriptor?8?$AA@ 10052c10     libvcruntime:undname.obj
 0002:00004c30       ??_C@_0BK@CFCOFLF@?5Complete?5Object?5Locator?8?$AA@ 10052c30     libvcruntime:undname.obj
 0002:00004db8       _standard_lookup_table     10052db8     libucrt:output.obj
 0002:00004e18       _format_validation_lookup_table 10052e18     libucrt:output.obj
 0002:00004e74       ??_C@_06OJHGLDPL@?$CInull?$CJ?$AA@ 10052e74     libucrt:output.obj
 0002:00004e7c       ??_C@_1O@CEDCILHN@?$AA?$CI?$AAn?$AAu?$AAl?$AAl?$AA?$CJ?$AA?$AA@ 10052e7c     libucrt:output.obj
 0002:00004e90       __real@8000000000000000    10052e90     libucrt:frexp.obj
 0002:00004e98       __wctype                   10052e98     libucrt:ctype.obj
 0002:000050a0       ___newctype                100530a0     libucrt:ctype.obj
 0002:000053a0       ___newclmap                100533a0     libucrt:ctype.obj
 0002:00005520       ___newcumap                10053520     libucrt:ctype.obj
 0002:000056a0       ?large_power_data@?1??multiply_by_power_of_ten@__crt_strtox@@YA_NAAUbig_integer@2@I@Z@4QBIB 100536a0     libucrt:strtod.obj
 0002:00005fa8       ?large_power_indices@?1??multiply_by_power_of_ten@__crt_strtox@@YA_NAAUbig_integer@2@I@Z@4QBUunpack_index@?1??12@YA_N0I@Z@B 10053fa8     libucrt:strtod.obj
 0002:00006040       ?small_powers_of_ten@?6??multiply_by_power_of_ten@__crt_strtox@@YA_NAAUbig_integer@2@I@Z@4QBIB 10054040     libucrt:strtod.obj
 0002:00006074       __half                     10054074     libucrt:pow.obj
 0002:00006080       ___acrt_exception_action_table 10054080     libucrt:exception_filter.obj
 0002:00006110       ___acrt_signal_action_table_count 10054110     libucrt:exception_filter.obj
 0002:00006114       ___acrt_signal_action_first_fpe_index 10054114     libucrt:exception_filter.obj
 0002:00006118       ___acrt_signal_action_fpe_count 10054118     libucrt:exception_filter.obj
 0002:0000611c       ??_C@_1BI@BGOHAHKC@?$AAm?$AAs?$AAc?$AAo?$AAr?$AAe?$AAe?$AA?4?$AAd?$AAl?$AAl?$AA?$AA@ 1005411c     libucrt:exit.obj
 0002:00006134       ??_C@_0P@MIGLKIOC@CorExitProcess?$AA@ 10054134     libucrt:exit.obj
 0002:000061c8       ___lc_category             100541c8     libucrt:wsetlocale.obj
 0002:00006210       ??_C@_1O@GIFLHMA@?$AAL?$AAC?$AA_?$AAA?$AAL?$AAL?$AA?$AA@ 10054210     libucrt:wsetlocale.obj
 0002:00006220       ??_C@_1BG@PPOMIBNJ@?$AAL?$AAC?$AA_?$AAC?$AAO?$AAL?$AAL?$AAA?$AAT?$AAE?$AA?$AA@ 10054220     libucrt:wsetlocale.obj
 0002:00006238       ??_C@_1BC@FFJGAPJM@?$AAL?$AAC?$AA_?$AAC?$AAT?$AAY?$AAP?$AAE?$AA?$AA@ 10054238     libucrt:wsetlocale.obj
 0002:0000624c       ??_C@_1BI@PCKFNJFB@?$AAL?$AAC?$AA_?$AAM?$AAO?$AAN?$AAE?$AAT?$AAA?$AAR?$AAY?$AA?$AA@ 1005424c     libucrt:wsetlocale.obj
 0002:00006264       ??_C@_1BG@ENIEDKID@?$AAL?$AAC?$AA_?$AAN?$AAU?$AAM?$AAE?$AAR?$AAI?$AAC?$AA?$AA@ 10054264     libucrt:wsetlocale.obj
 0002:0000627c       ??_C@_1BA@HAAOMIIG@?$AAL?$AAC?$AA_?$AAT?$AAI?$AAM?$AAE?$AA?$AA@ 1005427c     libucrt:wsetlocale.obj
 0002:00006310       ??_C@_15NBPDDFIP@?$AA?$DN?$AA?$DL?$AA?$AA@ 10054310     libucrt:wsetlocale.obj
 0002:00006318       ??_C@_13PJJBFPED@?$AA?$DL?$AA?$AA@ 10054318     libucrt:wsetlocale.obj
 0002:0000631c       ??_C@_13NMPKAAJP@?$AA?$DN?$AA?$AA@ 1005431c     libucrt:wsetlocale.obj
 0002:00006320       ??_C@_13FHBKNHDA@?$AAC?$AA?$AA@ 10054320     libucrt:wsetlocale.obj
 0002:00006324       ??_C@_17MBJJLFDM@?$AA_?$AA?4?$AA?0?$AA?$AA@ 10054324     libucrt:wsetlocale.obj
 0002:0000632c       ??_C@_13ENNFDPBH@?$AA_?$AA?$AA@ 1005432c     libucrt:wsetlocale.obj
 0002:00006330       ??_C@_13JOFGPIOO@?$AA?4?$AA?$AA@ 10054330     libucrt:wsetlocale.obj
 0002:00006334       ??_C@_03KOEHGMDN@Sun?$AA@  10054334     libucrt:nlsdata.obj
 0002:00006338       ??_C@_03PDAGKDH@Mon?$AA@   10054338     libucrt:nlsdata.obj
 0002:0000633c       ??_C@_03NAGEINEP@Tue?$AA@  1005433c     libucrt:nlsdata.obj
 0002:00006340       ??_C@_03MHOMLAJA@Wed?$AA@  10054340     libucrt:nlsdata.obj
 0002:00006344       ??_C@_03IOFIKPDN@Thu?$AA@  10054344     libucrt:nlsdata.obj
 0002:00006348       ??_C@_03IDIOELNC@Fri?$AA@  10054348     libucrt:nlsdata.obj
 0002:0000634c       ??_C@_03FEFJNEK@Sat?$AA@   1005434c     libucrt:nlsdata.obj
 0002:00006350       ??_C@_06OOPIFAJ@Sunday?$AA@ 10054350     libucrt:nlsdata.obj
 0002:00006358       ??_C@_06JLEDEDGH@Monday?$AA@ 10054358     libucrt:nlsdata.obj
 0002:00006360       ??_C@_07BAAGCFCM@Tuesday?$AA@ 10054360     libucrt:nlsdata.obj
 0002:00006368       ??_C@_09DLIGFAKA@Wednesday?$AA@ 10054368     libucrt:nlsdata.obj
 0002:00006374       ??_C@_08HACCIKIA@Thursday?$AA@ 10054374     libucrt:nlsdata.obj
 0002:00006380       ??_C@_06JECMNKMI@Friday?$AA@ 10054380     libucrt:nlsdata.obj
 0002:00006388       ??_C@_08INBOOONO@Saturday?$AA@ 10054388     libucrt:nlsdata.obj
 0002:00006394       ??_C@_03JIHJHPIE@Jan?$AA@  10054394     libucrt:nlsdata.obj
 0002:00006398       ??_C@_03HJBDCHOM@Feb?$AA@  10054398     libucrt:nlsdata.obj
 0002:0000639c       ??_C@_03ODNJBKGA@Mar?$AA@  1005439c     libucrt:nlsdata.obj
 0002:000063a0       ??_C@_03LEOLGMJP@Apr?$AA@  100543a0     libucrt:nlsdata.obj
 0002:000063a4       ??_C@_03CNMDKL@May?$AA@    100543a4     libucrt:nlsdata.obj
 0002:000063a8       ??_C@_03IDFGHECI@Jun?$AA@  100543a8     libucrt:nlsdata.obj
 0002:000063ac       ??_C@_03LBGABGKK@Jul?$AA@  100543ac     libucrt:nlsdata.obj
 0002:000063b0       ??_C@_03IFJFEIGA@Aug?$AA@  100543b0     libucrt:nlsdata.obj
 0002:000063b4       ??_C@_03GGCAPAJC@Sep?$AA@  100543b4     libucrt:nlsdata.obj
 0002:000063b8       ??_C@_03BMAOKBAD@Oct?$AA@  100543b8     libucrt:nlsdata.obj
 0002:000063bc       ??_C@_03JPJOFNIA@Nov?$AA@  100543bc     libucrt:nlsdata.obj
 0002:000063c0       ??_C@_03MKABNOCG@Dec?$AA@  100543c0     libucrt:nlsdata.obj
 0002:000063c4       ??_C@_07CGJPFGJA@January?$AA@ 100543c4     libucrt:nlsdata.obj
 0002:000063cc       ??_C@_08GNJGEPFN@February?$AA@ 100543cc     libucrt:nlsdata.obj
 0002:000063d8       ??_C@_05HPCKOFNC@March?$AA@ 100543d8     libucrt:nlsdata.obj
 0002:000063e0       ??_C@_05DMJDNLEJ@April?$AA@ 100543e0     libucrt:nlsdata.obj
 0002:000063e8       ??_C@_04CNLMGBGM@June?$AA@ 100543e8     libucrt:nlsdata.obj
 0002:000063f0       ??_C@_04MIEPOIFP@July?$AA@ 100543f0     libucrt:nlsdata.obj
 0002:000063f8       ??_C@_06LBBHFDDG@August?$AA@ 100543f8     libucrt:nlsdata.obj
 0002:00006400       ??_C@_09BHHEALKD@September?$AA@ 10054400     libucrt:nlsdata.obj
 0002:0000640c       ??_C@_07JJNFCEND@October?$AA@ 1005440c     libucrt:nlsdata.obj
 0002:00006414       ??_C@_08HCHEGEOA@November?$AA@ 10054414     libucrt:nlsdata.obj
 0002:00006420       ??_C@_08EDHMEBNP@December?$AA@ 10054420     libucrt:nlsdata.obj
 0002:0000642c       ??_C@_02DEDBPAFC@AM?$AA@   1005442c     libucrt:nlsdata.obj
 0002:00006430       ??_C@_02CJNFDJBF@PM?$AA@   10054430     libucrt:nlsdata.obj
 0002:00006434       ??_C@_08BPBNCDIB@MM?1dd?1yy?$AA@ 10054434     libucrt:nlsdata.obj
 0002:00006440       ??_C@_0BE@CKGJFCPC@dddd?0?5MMMM?5dd?0?5yyyy?$AA@ 10054440     libucrt:nlsdata.obj
 0002:00006454       ??_C@_08JCCMCCIL@HH?3mm?3ss?$AA@ 10054454     libucrt:nlsdata.obj
 0002:00006460       ??_C@_17MBGCMIPB@?$AAS?$AAu?$AAn?$AA?$AA@ 10054460     libucrt:nlsdata.obj
 0002:00006468       ??_C@_17KBOMKBF@?$AAM?$AAo?$AAn?$AA?$AA@ 10054468     libucrt:nlsdata.obj
 0002:00006470       ??_C@_17BMKGEGOJ@?$AAT?$AAu?$AAe?$AA?$AA@ 10054470     libucrt:nlsdata.obj
 0002:00006478       ??_C@_17CJEDCEPE@?$AAW?$AAe?$AAd?$AA?$AA@ 10054478     libucrt:nlsdata.obj
 0002:00006480       ??_C@_17PDPHAADD@?$AAT?$AAh?$AAu?$AA?$AA@ 10054480     libucrt:nlsdata.obj
 0002:00006488       ??_C@_17HFOLPPLP@?$AAF?$AAr?$AAi?$AA?$AA@ 10054488     libucrt:nlsdata.obj
 0002:00006490       ??_C@_17GGIBDPIH@?$AAS?$AAa?$AAt?$AA?$AA@ 10054490     libucrt:nlsdata.obj
 0002:00006498       ??_C@_1O@IHNHDHPB@?$AAS?$AAu?$AAn?$AAd?$AAa?$AAy?$AA?$AA@ 10054498     libucrt:nlsdata.obj
 0002:000064a8       ??_C@_1O@MMNBFLIA@?$AAM?$AAo?$AAn?$AAd?$AAa?$AAy?$AA?$AA@ 100544a8     libucrt:nlsdata.obj
 0002:000064b8       ??_C@_1BA@ENFBFFEK@?$AAT?$AAu?$AAe?$AAs?$AAd?$AAa?$AAy?$AA?$AA@ 100544b8     libucrt:nlsdata.obj
 0002:000064c8       ??_C@_1BE@EBOGMDOH@?$AAW?$AAe?$AAd?$AAn?$AAe?$AAs?$AAd?$AAa?$AAy?$AA?$AA@ 100544c8     libucrt:nlsdata.obj
 0002:000064dc       ??_C@_1BC@HHMNLIHE@?$AAT?$AAh?$AAu?$AAr?$AAs?$AAd?$AAa?$AAy?$AA?$AA@ 100544dc     libucrt:nlsdata.obj
 0002:000064f0       ??_C@_1O@PDICJHAG@?$AAF?$AAr?$AAi?$AAd?$AAa?$AAy?$AA?$AA@ 100544f0     libucrt:nlsdata.obj
 0002:00006500       ??_C@_1BC@ENMNNPAJ@?$AAS?$AAa?$AAt?$AAu?$AAr?$AAd?$AAa?$AAy?$AA?$AA@ 10054500     libucrt:nlsdata.obj
 0002:00006514       ??_C@_17DKNBKCHM@?$AAJ?$AAa?$AAn?$AA?$AA@ 10054514     libucrt:nlsdata.obj
 0002:0000651c       ??_C@_17LMDJEKJN@?$AAF?$AAe?$AAb?$AA?$AA@ 1005451c     libucrt:nlsdata.obj
 0002:00006524       ??_C@_17CKNLEDEC@?$AAM?$AAa?$AAr?$AA?$AA@ 10054524     libucrt:nlsdata.obj
 0002:0000652c       ??_C@_17LFPOIHDD@?$AAA?$AAp?$AAr?$AA?$AA@ 1005452c     libucrt:nlsdata.obj
 0002:00006534       ??_C@_17PNNKMEED@?$AAM?$AAa?$AAy?$AA?$AA@ 10054534     libucrt:nlsdata.obj
 0002:0000653c       ??_C@_17KCJGOCPB@?$AAJ?$AAu?$AAn?$AA?$AA@ 1005453c     libucrt:nlsdata.obj
 0002:00006544       ??_C@_17IJPCKHK@?$AAJ?$AAu?$AAl?$AA?$AA@ 10054544     libucrt:nlsdata.obj
 0002:0000654c       ??_C@_17ICPELBCN@?$AAA?$AAu?$AAg?$AA?$AA@ 1005454c     libucrt:nlsdata.obj
 0002:00006554       ??_C@_17HCHCOKMG@?$AAS?$AAe?$AAp?$AA?$AA@ 10054554     libucrt:nlsdata.obj
 0002:0000655c       ??_C@_17FNLKOI@?$AAO?$AAc?$AAt?$AA?$AA@ 1005455c     libucrt:nlsdata.obj
 0002:00006564       ??_C@_17BBDMLCIG@?$AAN?$AAo?$AAv?$AA?$AA@ 10054564     libucrt:nlsdata.obj
 0002:0000656c       ??_C@_17EGKACKIF@?$AAD?$AAe?$AAc?$AA?$AA@ 1005456c     libucrt:nlsdata.obj
 0002:00006574       ??_C@_1BA@EFMEIEBA@?$AAJ?$AAa?$AAn?$AAu?$AAa?$AAr?$AAy?$AA?$AA@ 10054574     libucrt:nlsdata.obj
 0002:00006584       ??_C@_1BC@JGDDFFAM@?$AAF?$AAe?$AAb?$AAr?$AAu?$AAa?$AAr?$AAy?$AA?$AA@ 10054584     libucrt:nlsdata.obj
 0002:00006598       ??_C@_1M@IKEENEDF@?$AAM?$AAa?$AAr?$AAc?$AAh?$AA?$AA@ 10054598     libucrt:nlsdata.obj
 0002:000065a4       ??_C@_1M@GJNLMHFD@?$AAA?$AAp?$AAr?$AAi?$AAl?$AA?$AA@ 100545a4     libucrt:nlsdata.obj
 0002:000065b0       ??_C@_19EPFLPGAP@?$AAJ?$AAu?$AAn?$AAe?$AA?$AA@ 100545b0     libucrt:nlsdata.obj
 0002:000065bc       ??_C@_19BIFMLPCD@?$AAJ?$AAu?$AAl?$AAy?$AA?$AA@ 100545bc     libucrt:nlsdata.obj
 0002:000065c8       ??_C@_1O@PAHLKOAC@?$AAA?$AAu?$AAg?$AAu?$AAs?$AAt?$AA?$AA@ 100545c8     libucrt:nlsdata.obj
 0002:000065d8       ??_C@_1BE@DKAAMBJL@?$AAS?$AAe?$AAp?$AAt?$AAe?$AAm?$AAb?$AAe?$AAr?$AA?$AA@ 100545d8     libucrt:nlsdata.obj
 0002:000065ec       ??_C@_1BA@EPANDLNG@?$AAO?$AAc?$AAt?$AAo?$AAb?$AAe?$AAr?$AA?$AA@ 100545ec     libucrt:nlsdata.obj
 0002:000065fc       ??_C@_1BC@BGLIFPF@?$AAN?$AAo?$AAv?$AAe?$AAm?$AAb?$AAe?$AAr?$AA?$AA@ 100545fc     libucrt:nlsdata.obj
 0002:00006610       ??_C@_1BC@FEMKIFH@?$AAD?$AAe?$AAc?$AAe?$AAm?$AAb?$AAe?$AAr?$AA?$AA@ 10054610     libucrt:nlsdata.obj
 0002:00006624       ??_C@_15ODEHAHHF@?$AAA?$AAM?$AA?$AA@ 10054624     libucrt:nlsdata.obj
 0002:0000662c       ??_C@_15CLMNNGEL@?$AAP?$AAM?$AA?$AA@ 1005462c     libucrt:nlsdata.obj
 0002:00006634       ??_C@_1BC@IEBCMHCM@?$AAM?$AAM?$AA?1?$AAd?$AAd?$AA?1?$AAy?$AAy?$AA?$AA@ 10054634     libucrt:nlsdata.obj
 0002:00006648       ??_C@_1CI@KNAKOEBC@?$AAd?$AAd?$AAd?$AAd?$AA?0?$AA?5?$AAM?$AAM?$AAM?$AAM?$AA?5?$AAd?$AAd?$AA?0?$AA?5?$AAy?$AAy?$AAy?$AAy?$AA?$AA@ 10054648     libucrt:nlsdata.obj
 0002:00006670       ??_C@_1BC@GDGBMEMK@?$AAH?$AAH?$AA?3?$AAm?$AAm?$AA?3?$AAs?$AAs?$AA?$AA@ 10054670     libucrt:nlsdata.obj
 0002:00006688       ___lc_time_c               10054688     libucrt:nlsdata.obj
 0002:000067ec       ??_C@_03OEIAHPBN@INF?$AA@  100547ec     libucrt:cvt.obj
 0002:000067f0       ??_C@_03OJHLLCGB@inf?$AA@  100547f0     libucrt:cvt.obj
 0002:000067f4       ??_C@_03LKNCIKJB@NAN?$AA@  100547f4     libucrt:cvt.obj
 0002:000067f8       ??_C@_03LHCJEHON@nan?$AA@  100547f8     libucrt:cvt.obj
 0002:000067fc       ??_C@_09OFJJIMPC@NAN?$CISNAN?$CJ?$AA@ 100547fc     libucrt:cvt.obj
 0002:00006808       ??_C@_09IPFBKMDL@nan?$CIsnan?$CJ?$AA@ 10054808     libucrt:cvt.obj
 0002:00006814       ??_C@_08IKHNHAJ@NAN?$CIIND?$CJ?$AA@ 10054814     libucrt:cvt.obj
 0002:00006820       ??_C@_08OFCDMILK@nan?$CIind?$CJ?$AA@ 10054820     libucrt:cvt.obj
 0002:0000682c       ??_C@_05KLBDPFGC@e?$CL000?$AA@ 1005482c     libucrt:cvt.obj
 0002:00006834       ??_C@_04FJHINJAO@tanh?$AA@ 10054834     libucrt:fpexcept.obj
 0002:0000683c       ??_C@_04FIHNOPOL@asin?$AA@ 1005483c     libucrt:fpexcept.obj
 0002:00006844       ??_C@_04PDIFKINK@acos?$AA@ 10054844     libucrt:fpexcept.obj
 0002:0000684c       ??_C@_04MLLJIGOK@atan?$AA@ 1005484c     libucrt:fpexcept.obj
 0002:00006854       ??_C@_05KNGEOGJB@atan2?$AA@ 10054854     libucrt:fpexcept.obj
 0002:0000685c       ??_C@_04EIAKFFMI@sqrt?$AA@ 1005485c     libucrt:fpexcept.obj
 0002:00006864       ??_C@_03BLEJJJBH@sin?$AA@  10054864     libucrt:fpexcept.obj
 0002:00006868       ??_C@_03LALBNOCG@cos?$AA@  10054868     libucrt:fpexcept.obj
 0002:0000686c       ??_C@_03IIINPABG@tan?$AA@  1005486c     libucrt:fpexcept.obj
 0002:00006870       ??_C@_04GFPJNGEK@ceil?$AA@ 10054870     libucrt:fpexcept.obj
 0002:00006878       ??_C@_05PBJFFIGL@floor?$AA@ 10054878     libucrt:fpexcept.obj
 0002:00006880       ??_C@_04ODHECPBC@fabs?$AA@ 10054880     libucrt:fpexcept.obj
 0002:00006888       ??_C@_04EHEDPDJG@modf?$AA@ 10054888     libucrt:fpexcept.obj
 0002:00006890       ??_C@_05CEJMAHNP@ldexp?$AA@ 10054890     libucrt:fpexcept.obj
 0002:00006898       ??_C@_05KBKMEMPO@_cabs?$AA@ 10054898     libucrt:fpexcept.obj
 0002:000068a0       ??_C@_06MEIMCGCF@_hypot?$AA@ 100548a0     libucrt:fpexcept.obj
 0002:000068a8       ??_C@_04KEPJIHGP@fmod?$AA@ 100548a8     libucrt:fpexcept.obj
 0002:000068b0       ??_C@_05GKKHEGJL@frexp?$AA@ 100548b0     libucrt:fpexcept.obj
 0002:000068b8       ??_C@_03MJLDFKDL@_y0?$AA@  100548b8     libucrt:fpexcept.obj
 0002:000068bc       ??_C@_03NAKIGLHK@_y1?$AA@  100548bc     libucrt:fpexcept.obj
 0002:000068c0       ??_C@_03ONILCKOB@_yn?$AA@  100548c0     libucrt:fpexcept.obj
 0002:000068c4       ??_C@_05JGDBENOH@_logb?$AA@ 100548c4     libucrt:fpexcept.obj
 0002:000068cc       ??_C@_0L@KDOEJCKC@_nextafter?$AA@ 100548cc     libucrt:fpexcept.obj
 0002:000069c0       ??_C@_03KHJOGHMM@exp?$AA@  100549c0     libucrt:fpexcept.obj
 0002:000069c4       ??_C@_03JGHBODFD@pow?$AA@  100549c4     libucrt:fpexcept.obj
 0002:000069c8       ??_C@_03MGHMBJCF@log?$AA@  100549c8     libucrt:fpexcept.obj
 0002:000069cc       ??_C@_05HGHHAHAP@log10?$AA@ 100549cc     libucrt:fpexcept.obj
 0002:000069d4       ??_C@_04COOMCNPB@sinh?$AA@ 100549d4     libucrt:fpexcept.obj
 0002:000069dc       ??_C@_04HPJJNFIM@cosh?$AA@ 100549dc     libucrt:fpexcept.obj
 0002:000069e8       __d_inf                    100549e8     libucrt:util.obj
 0002:000069f0       __d_max                    100549f0     libucrt:util.obj
 0002:000069f8       __d_mzero                  100549f8     libucrt:util.obj
 0002:00006a68       ??_C@_1EG@CNNIPFIM@?$AAa?$AAp?$AAi?$AA?9?$AAm?$AAs?$AA?9?$AAw?$AAi?$AAn?$AA?9?$AAa?$AAp?$AAp?$AAm?$AAo?$AAd?$AAe?$AAl?$AA?9?$AAr?$AAu?$AAn?$AAt?$AAi?$AAm?$AAe?$AA?9?$AAl?$AA1?$AA?9?$AA1@ 10054a68     libucrt:winapi_thunks.obj
 0002:00006ab0       ??_C@_1EA@JGEFHKEI@?$AAa?$AAp?$AAi?$AA?9?$AAm?$AAs?$AA?9?$AAw?$AAi?$AAn?$AA?9?$AAc?$AAo?$AAr?$AAe?$AA?9?$AAd?$AAa?$AAt?$AAe?$AAt?$AAi?$AAm?$AAe?$AA?9?$AAl?$AA1?$AA?9?$AA1?$AA?9?$AA1?$AA?$AA@ 10054ab0     libucrt:winapi_thunks.obj
 0002:00006af0       ??_C@_1DI@GCIAAENM@?$AAa?$AAp?$AAi?$AA?9?$AAm?$AAs?$AA?9?$AAw?$AAi?$AAn?$AA?9?$AAc?$AAo?$AAr?$AAe?$AA?9?$AAf?$AAi?$AAl?$AAe?$AA?9?$AAl?$AA2?$AA?9?$AA1?$AA?9?$AA1?$AA?$AA@ 10054af0     libucrt:winapi_thunks.obj
 0002:00006b28       ??_C@_1EI@MPIAOHOC@?$AAa?$AAp?$AAi?$AA?9?$AAm?$AAs?$AA?9?$AAw?$AAi?$AAn?$AA?9?$AAc?$AAo?$AAr?$AAe?$AA?9?$AAl?$AAo?$AAc?$AAa?$AAl?$AAi?$AAz?$AAa?$AAt?$AAi?$AAo?$AAn?$AA?9?$AAl?$AA1?$AA?9@ 10054b28     libucrt:winapi_thunks.obj
 0002:00006b70       ??_C@_1FK@FPHCKFIE@?$AAa?$AAp?$AAi?$AA?9?$AAm?$AAs?$AA?9?$AAw?$AAi?$AAn?$AA?9?$AAc?$AAo?$AAr?$AAe?$AA?9?$AAl?$AAo?$AAc?$AAa?$AAl?$AAi?$AAz?$AAa?$AAt?$AAi?$AAo?$AAn?$AA?9?$AAo?$AAb?$AAs@ 10054b70     libucrt:winapi_thunks.obj
 0002:00006bd0       ??_C@_1EM@DILCGIIO@?$AAa?$AAp?$AAi?$AA?9?$AAm?$AAs?$AA?9?$AAw?$AAi?$AAn?$AA?9?$AAc?$AAo?$AAr?$AAe?$AA?9?$AAp?$AAr?$AAo?$AAc?$AAe?$AAs?$AAs?$AAt?$AAh?$AAr?$AAe?$AAa?$AAd?$AAs?$AA?9?$AAl@ 10054bd0     libucrt:winapi_thunks.obj
 0002:00006c1c       ??_C@_1DM@LNCGDDPN@?$AAa?$AAp?$AAi?$AA?9?$AAm?$AAs?$AA?9?$AAw?$AAi?$AAn?$AA?9?$AAc?$AAo?$AAr?$AAe?$AA?9?$AAs?$AAt?$AAr?$AAi?$AAn?$AAg?$AA?9?$AAl?$AA1?$AA?9?$AA1?$AA?9?$AA0?$AA?$AA@ 10054c1c     libucrt:winapi_thunks.obj
 0002:00006c58       ??_C@_1DO@FPAPJEMD@?$AAa?$AAp?$AAi?$AA?9?$AAm?$AAs?$AA?9?$AAw?$AAi?$AAn?$AA?9?$AAc?$AAo?$AAr?$AAe?$AA?9?$AAs?$AAy?$AAs?$AAi?$AAn?$AAf?$AAo?$AA?9?$AAl?$AA1?$AA?9?$AA2?$AA?9?$AA1?$AA?$AA@ 10054c58     libucrt:winapi_thunks.obj
 0002:00006c98       ??_C@_1DK@NDHNAHIO@?$AAa?$AAp?$AAi?$AA?9?$AAm?$AAs?$AA?9?$AAw?$AAi?$AAn?$AA?9?$AAc?$AAo?$AAr?$AAe?$AA?9?$AAw?$AAi?$AAn?$AAr?$AAt?$AA?9?$AAl?$AA1?$AA?9?$AA1?$AA?9?$AA0?$AA?$AA@ 10054c98     libucrt:winapi_thunks.obj
 0002:00006cd4       ??_C@_1DM@KGHDGBCM@?$AAa?$AAp?$AAi?$AA?9?$AAm?$AAs?$AA?9?$AAw?$AAi?$AAn?$AA?9?$AAc?$AAo?$AAr?$AAe?$AA?9?$AAx?$AAs?$AAt?$AAa?$AAt?$AAe?$AA?9?$AAl?$AA2?$AA?9?$AA1?$AA?9?$AA0?$AA?$AA@ 10054cd4     libucrt:winapi_thunks.obj
 0002:00006d10       ??_C@_1EO@IJIOEFOH@?$AAa?$AAp?$AAi?$AA?9?$AAm?$AAs?$AA?9?$AAw?$AAi?$AAn?$AA?9?$AAr?$AAt?$AAc?$AAo?$AAr?$AAe?$AA?9?$AAn?$AAt?$AAu?$AAs?$AAe?$AAr?$AA?9?$AAw?$AAi?$AAn?$AAd?$AAo?$AAw?$AA?9@ 10054d10     libucrt:winapi_thunks.obj
 0002:00006d60       ??_C@_1FG@HHGEKANL@?$AAa?$AAp?$AAi?$AA?9?$AAm?$AAs?$AA?9?$AAw?$AAi?$AAn?$AA?9?$AAs?$AAe?$AAc?$AAu?$AAr?$AAi?$AAt?$AAy?$AA?9?$AAs?$AAy?$AAs?$AAt?$AAe?$AAm?$AAf?$AAu?$AAn?$AAc?$AAt?$AAi@ 10054d60     libucrt:winapi_thunks.obj
 0002:00006db8       ??_C@_1FG@NCKKOLKO@?$AAe?$AAx?$AAt?$AA?9?$AAm?$AAs?$AA?9?$AAw?$AAi?$AAn?$AA?9?$AAk?$AAe?$AAr?$AAn?$AAe?$AAl?$AA3?$AA2?$AA?9?$AAp?$AAa?$AAc?$AAk?$AAa?$AAg?$AAe?$AA?9?$AAc?$AAu?$AAr?$AAr@ 10054db8     libucrt:winapi_thunks.obj
 0002:00006e10       ??_C@_1EG@DBIOJECG@?$AAe?$AAx?$AAt?$AA?9?$AAm?$AAs?$AA?9?$AAw?$AAi?$AAn?$AA?9?$AAn?$AAt?$AAu?$AAs?$AAe?$AAr?$AA?9?$AAd?$AAi?$AAa?$AAl?$AAo?$AAg?$AAb?$AAo?$AAx?$AA?9?$AAl?$AA1?$AA?9?$AA1@ 10054e10     libucrt:winapi_thunks.obj
 0002:00006e58       ??_C@_1EO@FIHMJCLF@?$AAe?$AAx?$AAt?$AA?9?$AAm?$AAs?$AA?9?$AAw?$AAi?$AAn?$AA?9?$AAn?$AAt?$AAu?$AAs?$AAe?$AAr?$AA?9?$AAw?$AAi?$AAn?$AAd?$AAo?$AAw?$AAs?$AAt?$AAa?$AAt?$AAi?$AAo?$AAn?$AA?9@ 10054e58     libucrt:winapi_thunks.obj
 0002:00006ea8       ??_C@_1O@BCCLBEOE@?$AAu?$AAs?$AAe?$AAr?$AA3?$AA2?$AA?$AA@ 10054ea8     libucrt:winapi_thunks.obj
 0002:00006ec8       ??_C@_0BE@LJANKFHF@EnumSystemLocalesEx?$AA@ 10054ec8     libucrt:winapi_thunks.obj
 0002:00006f14       ??_C@_0BJ@PBCCBIPI@GetUserDefaultLocaleName?$AA@ 10054f14     libucrt:winapi_thunks.obj
 0002:00006f40       ??_C@_0BC@CELBKLLA@IsValidLocaleName?$AA@ 10054f40     libucrt:winapi_thunks.obj
 0002:00006f64       ??_C@_0BB@CDHDDLLP@LCIDToLocaleName?$AA@ 10054f64     libucrt:winapi_thunks.obj
 0002:00006f80       ??_C@_0BB@HBDEELFH@LocaleNameToLCID?$AA@ 10054f80     libucrt:winapi_thunks.obj
 0002:00007060       __infinity                 10055060     libucrt:87tran.obj
 0002:0000706a       __minfinity                1005506a     libucrt:87tran.obj
 0002:00007074       __logemax                  10055074     libucrt:87tran.obj
 0002:0000709a       __OP_EXPjmptab             1005509a     libucrt:87tran.obj
 0002:000070c0       __indefinite               100550c0     libucrt:87disp.obj
 0002:000070ca       __piby2                    100550ca     libucrt:87disp.obj
 0002:000070d4       __piby4                    100550d4     libucrt:87disp.obj
 0002:00007108       __DEFAULT_CW_in_mem        10055108     libucrt:common.obj
 0002:0000710a       __pi_by_2_to_61            1005510a     libucrt:common.obj
 0002:00007148       __real@3fe0000000000000    10055148     libucrt:powhlp.obj
 0002:00007290       ??_C@_1BC@LLOKLNP@?$AAa?$AAm?$AAe?$AAr?$AAi?$AAc?$AAa?$AAn?$AA?$AA@ 10055290     libucrt:get_qualified_locale.obj
 0002:000072a4       ??_C@_1CC@HEIGCDGG@?$AAa?$AAm?$AAe?$AAr?$AAi?$AAc?$AAa?$AAn?$AA?5?$AAe?$AAn?$AAg?$AAl?$AAi?$AAs?$AAh?$AA?$AA@ 100552a4     libucrt:get_qualified_locale.obj
 0002:000072c8       ??_C@_1CC@IHCNOMIN@?$AAa?$AAm?$AAe?$AAr?$AAi?$AAc?$AAa?$AAn?$AA?9?$AAe?$AAn?$AAg?$AAl?$AAi?$AAs?$AAh?$AA?$AA@ 100552c8     libucrt:get_qualified_locale.obj
 0002:000072ec       ??_C@_1BG@GKAGPCGG@?$AAa?$AAu?$AAs?$AAt?$AAr?$AAa?$AAl?$AAi?$AAa?$AAn?$AA?$AA@ 100552ec     libucrt:get_qualified_locale.obj
 0002:00007304       ??_C@_1BA@GMENCENF@?$AAb?$AAe?$AAl?$AAg?$AAi?$AAa?$AAn?$AA?$AA@ 10055304     libucrt:get_qualified_locale.obj
 0002:00007314       ??_C@_1BC@PJMIIAAN@?$AAc?$AAa?$AAn?$AAa?$AAd?$AAi?$AAa?$AAn?$AA?$AA@ 10055314     libucrt:get_qualified_locale.obj
 0002:00007328       ??_C@_17NOIMNFBF@?$AAc?$AAh?$AAh?$AA?$AA@ 10055328     libucrt:get_qualified_locale.obj
 0002:00007330       ??_C@_17GGDALCHA@?$AAc?$AAh?$AAi?$AA?$AA@ 10055330     libucrt:get_qualified_locale.obj
 0002:00007338       ??_C@_1BA@NPNJKIBL@?$AAc?$AAh?$AAi?$AAn?$AAe?$AAs?$AAe?$AA?$AA@ 10055338     libucrt:get_qualified_locale.obj
 0002:00007348       ??_C@_1CC@DINBAMMJ@?$AAc?$AAh?$AAi?$AAn?$AAe?$AAs?$AAe?$AA?9?$AAh?$AAo?$AAn?$AAg?$AAk?$AAo?$AAn?$AAg?$AA?$AA@ 10055348     libucrt:get_qualified_locale.obj
 0002:0000736c       ??_C@_1CG@IOBJPACO@?$AAc?$AAh?$AAi?$AAn?$AAe?$AAs?$AAe?$AA?9?$AAs?$AAi?$AAm?$AAp?$AAl?$AAi?$AAf?$AAi?$AAe?$AAd?$AA?$AA@ 1005536c     libucrt:get_qualified_locale.obj
 0002:00007394       ??_C@_1CE@GAJNDCKG@?$AAc?$AAh?$AAi?$AAn?$AAe?$AAs?$AAe?$AA?9?$AAs?$AAi?$AAn?$AAg?$AAa?$AAp?$AAo?$AAr?$AAe?$AA?$AA@ 10055394     libucrt:get_qualified_locale.obj
 0002:000073b8       ??_C@_1CI@PAJPIOOD@?$AAc?$AAh?$AAi?$AAn?$AAe?$AAs?$AAe?$AA?9?$AAt?$AAr?$AAa?$AAd?$AAi?$AAt?$AAi?$AAo?$AAn?$AAa?$AAl?$AA?$AA@ 100553b8     libucrt:get_qualified_locale.obj
 0002:000073e0       ??_C@_1BM@NILJBMMD@?$AAd?$AAu?$AAt?$AAc?$AAh?$AA?9?$AAb?$AAe?$AAl?$AAg?$AAi?$AAa?$AAn?$AA?$AA@ 100553e0     libucrt:get_qualified_locale.obj
 0002:000073fc       ??_C@_1CC@OOJPJNEJ@?$AAe?$AAn?$AAg?$AAl?$AAi?$AAs?$AAh?$AA?9?$AAa?$AAm?$AAe?$AAr?$AAi?$AAc?$AAa?$AAn?$AA?$AA@ 100553fc     libucrt:get_qualified_locale.obj
 0002:00007420       ??_C@_1BI@IOLFEEM@?$AAe?$AAn?$AAg?$AAl?$AAi?$AAs?$AAh?$AA?9?$AAa?$AAu?$AAs?$AA?$AA@ 10055420     libucrt:get_qualified_locale.obj
 0002:00007438       ??_C@_1BO@HFFNLENJ@?$AAe?$AAn?$AAg?$AAl?$AAi?$AAs?$AAh?$AA?9?$AAb?$AAe?$AAl?$AAi?$AAz?$AAe?$AA?$AA@ 10055438     libucrt:get_qualified_locale.obj
 0002:00007458       ??_C@_1BI@HAPKJMPO@?$AAe?$AAn?$AAg?$AAl?$AAi?$AAs?$AAh?$AA?9?$AAc?$AAa?$AAn?$AA?$AA@ 10055458     libucrt:get_qualified_locale.obj
 0002:00007470       ??_C@_1CE@HLNDMIOJ@?$AAe?$AAn?$AAg?$AAl?$AAi?$AAs?$AAh?$AA?9?$AAc?$AAa?$AAr?$AAi?$AAb?$AAb?$AAe?$AAa?$AAn?$AA?$AA@ 10055470     libucrt:get_qualified_locale.obj
 0002:00007494       ??_C@_1BI@LDHJHHAC@?$AAe?$AAn?$AAg?$AAl?$AAi?$AAs?$AAh?$AA?9?$AAi?$AAr?$AAe?$AA?$AA@ 10055494     libucrt:get_qualified_locale.obj
 0002:000074ac       ??_C@_1CA@NJMMCFOC@?$AAe?$AAn?$AAg?$AAl?$AAi?$AAs?$AAh?$AA?9?$AAj?$AAa?$AAm?$AAa?$AAi?$AAc?$AAa?$AA?$AA@ 100554ac     libucrt:get_qualified_locale.obj
 0002:000074cc       ??_C@_1BG@BHJEBBGG@?$AAe?$AAn?$AAg?$AAl?$AAi?$AAs?$AAh?$AA?9?$AAn?$AAz?$AA?$AA@ 100554cc     libucrt:get_qualified_locale.obj
 0002:000074e4       ??_C@_1CK@FGOEJJCO@?$AAe?$AAn?$AAg?$AAl?$AAi?$AAs?$AAh?$AA?9?$AAs?$AAo?$AAu?$AAt?$AAh?$AA?5?$AAa?$AAf?$AAr?$AAi?$AAc?$AAa?$AA?$AA@ 100554e4     libucrt:get_qualified_locale.obj
 0002:00007510       ??_C@_1DE@PDBJPCJ@?$AAe?$AAn?$AAg?$AAl?$AAi?$AAs?$AAh?$AA?9?$AAt?$AAr?$AAi?$AAn?$AAi?$AAd?$AAa?$AAd?$AA?5?$AAy?$AA?5?$AAt?$AAo?$AAb?$AAa?$AAg?$AAo?$AA?$AA@ 10055510     libucrt:get_qualified_locale.obj
 0002:00007544       ??_C@_1BG@JGCANDME@?$AAe?$AAn?$AAg?$AAl?$AAi?$AAs?$AAh?$AA?9?$AAu?$AAk?$AA?$AA@ 10055544     libucrt:get_qualified_locale.obj
 0002:0000755c       ??_C@_1BG@DINKMLE@?$AAe?$AAn?$AAg?$AAl?$AAi?$AAs?$AAh?$AA?9?$AAu?$AAs?$AA?$AA@ 1005555c     libucrt:get_qualified_locale.obj
 0002:00007574       ??_C@_1BI@NMFDBHJE@?$AAe?$AAn?$AAg?$AAl?$AAi?$AAs?$AAh?$AA?9?$AAu?$AAs?$AAa?$AA?$AA@ 10055574     libucrt:get_qualified_locale.obj
 0002:0000758c       ??_C@_1BO@OIHKJKII@?$AAf?$AAr?$AAe?$AAn?$AAc?$AAh?$AA?9?$AAb?$AAe?$AAl?$AAg?$AAi?$AAa?$AAn?$AA?$AA@ 1005558c     libucrt:get_qualified_locale.obj
 0002:000075ac       ??_C@_1CA@NKAELJKI@?$AAf?$AAr?$AAe?$AAn?$AAc?$AAh?$AA?9?$AAc?$AAa?$AAn?$AAa?$AAd?$AAi?$AAa?$AAn?$AA?$AA@ 100555ac     libucrt:get_qualified_locale.obj
 0002:000075cc       ??_C@_1CE@MGKCNLGN@?$AAf?$AAr?$AAe?$AAn?$AAc?$AAh?$AA?9?$AAl?$AAu?$AAx?$AAe?$AAm?$AAb?$AAo?$AAu?$AAr?$AAg?$AA?$AA@ 100555cc     libucrt:get_qualified_locale.obj
 0002:000075f0       ??_C@_1BK@CEGEAILM@?$AAf?$AAr?$AAe?$AAn?$AAc?$AAh?$AA?9?$AAs?$AAw?$AAi?$AAs?$AAs?$AA?$AA@ 100555f0     libucrt:get_qualified_locale.obj
 0002:0000760c       ??_C@_1CA@PAFKEOCC@?$AAg?$AAe?$AAr?$AAm?$AAa?$AAn?$AA?9?$AAa?$AAu?$AAs?$AAt?$AAr?$AAi?$AAa?$AAn?$AA?$AA@ 1005560c     libucrt:get_qualified_locale.obj
 0002:0000762c       ??_C@_1CI@HCFHGOFD@?$AAg?$AAe?$AAr?$AAm?$AAa?$AAn?$AA?9?$AAl?$AAi?$AAc?$AAh?$AAt?$AAe?$AAn?$AAs?$AAt?$AAe?$AAi?$AAn?$AA?$AA@ 1005562c     libucrt:get_qualified_locale.obj
 0002:00007654       ??_C@_1CE@FEDDNPDG@?$AAg?$AAe?$AAr?$AAm?$AAa?$AAn?$AA?9?$AAl?$AAu?$AAx?$AAe?$AAm?$AAb?$AAo?$AAu?$AAr?$AAg?$AA?$AA@ 10055654     libucrt:get_qualified_locale.obj
 0002:00007678       ??_C@_1BK@LIMINNMN@?$AAg?$AAe?$AAr?$AAm?$AAa?$AAn?$AA?9?$AAs?$AAw?$AAi?$AAs?$AAs?$AA?$AA@ 10055678     libucrt:get_qualified_locale.obj
 0002:00007694       ??_C@_1BM@LGMDBEPD@?$AAi?$AAr?$AAi?$AAs?$AAh?$AA?9?$AAe?$AAn?$AAg?$AAl?$AAi?$AAs?$AAh?$AA?$AA@ 10055694     libucrt:get_qualified_locale.obj
 0002:000076b0       ??_C@_1BM@NNCFBAEE@?$AAi?$AAt?$AAa?$AAl?$AAi?$AAa?$AAn?$AA?9?$AAs?$AAw?$AAi?$AAs?$AAs?$AA?$AA@ 100556b0     libucrt:get_qualified_locale.obj
 0002:000076cc       ??_C@_1BE@FEDJNPIB@?$AAn?$AAo?$AAr?$AAw?$AAe?$AAg?$AAi?$AAa?$AAn?$AA?$AA@ 100556cc     libucrt:get_qualified_locale.obj
 0002:000076e0       ??_C@_1CC@CILKDEIE@?$AAn?$AAo?$AAr?$AAw?$AAe?$AAg?$AAi?$AAa?$AAn?$AA?9?$AAb?$AAo?$AAk?$AAm?$AAa?$AAl?$AA?$AA@ 100556e0     libucrt:get_qualified_locale.obj
 0002:00007704       ??_C@_1CE@DHMMHEPL@?$AAn?$AAo?$AAr?$AAw?$AAe?$AAg?$AAi?$AAa?$AAn?$AA?9?$AAn?$AAy?$AAn?$AAo?$AAr?$AAs?$AAk?$AA?$AA@ 10055704     libucrt:get_qualified_locale.obj
 0002:00007728       ??_C@_1CK@OPNMHECD@?$AAp?$AAo?$AAr?$AAt?$AAu?$AAg?$AAu?$AAe?$AAs?$AAe?$AA?9?$AAb?$AAr?$AAa?$AAz?$AAi?$AAl?$AAi?$AAa?$AAn?$AA?$AA@ 10055728     libucrt:get_qualified_locale.obj
 0002:00007754       ??_C@_1CE@KEEHCDB@?$AAs?$AAp?$AAa?$AAn?$AAi?$AAs?$AAh?$AA?9?$AAa?$AAr?$AAg?$AAe?$AAn?$AAt?$AAi?$AAn?$AAa?$AA?$AA@ 10055754     libucrt:get_qualified_locale.obj
 0002:00007778       ??_C@_1CA@GIAOLHJD@?$AAs?$AAp?$AAa?$AAn?$AAi?$AAs?$AAh?$AA?9?$AAb?$AAo?$AAl?$AAi?$AAv?$AAi?$AAa?$AA?$AA@ 10055778     libucrt:get_qualified_locale.obj
 0002:00007798       ??_C@_1BM@OJNDFNPD@?$AAs?$AAp?$AAa?$AAn?$AAi?$AAs?$AAh?$AA?9?$AAc?$AAh?$AAi?$AAl?$AAe?$AA?$AA@ 10055798     libucrt:get_qualified_locale.obj
 0002:000077b4       ??_C@_1CC@OCOLPALL@?$AAs?$AAp?$AAa?$AAn?$AAi?$AAs?$AAh?$AA?9?$AAc?$AAo?$AAl?$AAo?$AAm?$AAb?$AAi?$AAa?$AA?$AA@ 100557b4     libucrt:get_qualified_locale.obj
 0002:000077d8       ??_C@_1CG@BPOFMKBB@?$AAs?$AAp?$AAa?$AAn?$AAi?$AAs?$AAh?$AA?9?$AAc?$AAo?$AAs?$AAt?$AAa?$AA?5?$AAr?$AAi?$AAc?$AAa?$AA?$AA@ 100557d8     libucrt:get_qualified_locale.obj
 0002:00007800       ??_C@_1DG@IGOBAPBB@?$AAs?$AAp?$AAa?$AAn?$AAi?$AAs?$AAh?$AA?9?$AAd?$AAo?$AAm?$AAi?$AAn?$AAi?$AAc?$AAa?$AAn?$AA?5?$AAr?$AAe?$AAp?$AAu?$AAb?$AAl?$AAi?$AAc?$AA?$AA@ 10055800     libucrt:get_qualified_locale.obj
 0002:00007838       ??_C@_1CA@JHAPGEGI@?$AAs?$AAp?$AAa?$AAn?$AAi?$AAs?$AAh?$AA?9?$AAe?$AAc?$AAu?$AAa?$AAd?$AAo?$AAr?$AA?$AA@ 10055838     libucrt:get_qualified_locale.obj
 0002:00007858       ??_C@_1CI@LAPALJPP@?$AAs?$AAp?$AAa?$AAn?$AAi?$AAs?$AAh?$AA?9?$AAe?$AAl?$AA?5?$AAs?$AAa?$AAl?$AAv?$AAa?$AAd?$AAo?$AAr?$AA?$AA@ 10055858     libucrt:get_qualified_locale.obj
 0002:00007880       ??_C@_1CE@PDGBOFOM@?$AAs?$AAp?$AAa?$AAn?$AAi?$AAs?$AAh?$AA?9?$AAg?$AAu?$AAa?$AAt?$AAe?$AAm?$AAa?$AAl?$AAa?$AA?$AA@ 10055880     libucrt:get_qualified_locale.obj
 0002:000078a4       ??_C@_1CC@NBEBAODI@?$AAs?$AAp?$AAa?$AAn?$AAi?$AAs?$AAh?$AA?9?$AAh?$AAo?$AAn?$AAd?$AAu?$AAr?$AAa?$AAs?$AA?$AA@ 100558a4     libucrt:get_qualified_locale.obj
 0002:000078c8       ??_C@_1CA@LLKGHBMF@?$AAs?$AAp?$AAa?$AAn?$AAi?$AAs?$AAh?$AA?9?$AAm?$AAe?$AAx?$AAi?$AAc?$AAa?$AAn?$AA?$AA@ 100558c8     libucrt:get_qualified_locale.obj
 0002:000078e8       ??_C@_1BO@LKNDOIGD@?$AAs?$AAp?$AAa?$AAn?$AAi?$AAs?$AAh?$AA?9?$AAm?$AAo?$AAd?$AAe?$AAr?$AAn?$AA?$AA@ 100558e8     libucrt:get_qualified_locale.obj
 0002:00007908       ??_C@_1CE@NMDMOEEB@?$AAs?$AAp?$AAa?$AAn?$AAi?$AAs?$AAh?$AA?9?$AAn?$AAi?$AAc?$AAa?$AAr?$AAa?$AAg?$AAu?$AAa?$AA?$AA@ 10055908     libucrt:get_qualified_locale.obj
 0002:0000792c       ??_C@_1BO@LLCBEJGB@?$AAs?$AAp?$AAa?$AAn?$AAi?$AAs?$AAh?$AA?9?$AAp?$AAa?$AAn?$AAa?$AAm?$AAa?$AA?$AA@ 1005592c     libucrt:get_qualified_locale.obj
 0002:0000794c       ??_C@_1CC@FKPGGIHO@?$AAs?$AAp?$AAa?$AAn?$AAi?$AAs?$AAh?$AA?9?$AAp?$AAa?$AAr?$AAa?$AAg?$AAu?$AAa?$AAy?$AA?$AA@ 1005594c     libucrt:get_qualified_locale.obj
 0002:00007970       ??_C@_1BK@CDEIHOOP@?$AAs?$AAp?$AAa?$AAn?$AAi?$AAs?$AAh?$AA?9?$AAp?$AAe?$AAr?$AAu?$AA?$AA@ 10055970     libucrt:get_qualified_locale.obj
 0002:0000798c       ??_C@_1CI@GAHAKKGP@?$AAs?$AAp?$AAa?$AAn?$AAi?$AAs?$AAh?$AA?9?$AAp?$AAu?$AAe?$AAr?$AAt?$AAo?$AA?5?$AAr?$AAi?$AAc?$AAo?$AA?$AA@ 1005598c     libucrt:get_qualified_locale.obj
 0002:000079b4       ??_C@_1CA@NKJBCAGP@?$AAs?$AAp?$AAa?$AAn?$AAi?$AAs?$AAh?$AA?9?$AAu?$AAr?$AAu?$AAg?$AAu?$AAa?$AAy?$AA?$AA@ 100559b4     libucrt:get_qualified_locale.obj
 0002:000079d4       ??_C@_1CE@ODILCONM@?$AAs?$AAp?$AAa?$AAn?$AAi?$AAs?$AAh?$AA?9?$AAv?$AAe?$AAn?$AAe?$AAz?$AAu?$AAe?$AAl?$AAa?$AA?$AA@ 100559d4     libucrt:get_qualified_locale.obj
 0002:000079f8       ??_C@_1CA@OBNMCGFO@?$AAs?$AAw?$AAe?$AAd?$AAi?$AAs?$AAh?$AA?9?$AAf?$AAi?$AAn?$AAl?$AAa?$AAn?$AAd?$AA?$AA@ 100559f8     libucrt:get_qualified_locale.obj
 0002:00007a18       ??_C@_1M@PIPDDPPI@?$AAs?$AAw?$AAi?$AAs?$AAs?$AA?$AA@ 10055a18     libucrt:get_qualified_locale.obj
 0002:00007a24       ??_C@_15GMFIMNFM@?$AAu?$AAs?$AA?$AA@ 10055a24     libucrt:get_qualified_locale.obj
 0002:00007a2c       ??_C@_17HAEBFAGL@?$AAu?$AAs?$AAa?$AA?$AA@ 10055a2c     libucrt:get_qualified_locale.obj
 0002:00007a34       ??_C@_1BA@DPFJEPHB@?$AAa?$AAm?$AAe?$AAr?$AAi?$AAc?$AAa?$AA?$AA@ 10055a34     libucrt:get_qualified_locale.obj
 0002:00007a44       ??_C@_1BA@ELOGGFK@?$AAb?$AAr?$AAi?$AAt?$AAa?$AAi?$AAn?$AA?$AA@ 10055a44     libucrt:get_qualified_locale.obj
 0002:00007a54       ??_C@_1M@GHBGIGDA@?$AAc?$AAh?$AAi?$AAn?$AAa?$AA?$AA@ 10055a54     libucrt:get_qualified_locale.obj
 0002:00007a60       ??_C@_1M@NCHEJOPO@?$AAc?$AAz?$AAe?$AAc?$AAh?$AA?$AA@ 10055a60     libucrt:get_qualified_locale.obj
 0002:00007a6c       ??_C@_1BA@BKPAPBLA@?$AAe?$AAn?$AAg?$AAl?$AAa?$AAn?$AAd?$AA?$AA@ 10055a6c     libucrt:get_qualified_locale.obj
 0002:00007a7c       ??_C@_1BM@HKBCKIPC@?$AAg?$AAr?$AAe?$AAa?$AAt?$AA?5?$AAb?$AAr?$AAi?$AAt?$AAa?$AAi?$AAn?$AA?$AA@ 10055a7c     libucrt:get_qualified_locale.obj
 0002:00007a98       ??_C@_1BA@PPCHPGJB@?$AAh?$AAo?$AAl?$AAl?$AAa?$AAn?$AAd?$AA?$AA@ 10055a98     libucrt:get_qualified_locale.obj
 0002:00007aa8       ??_C@_1BE@JBMPEGDG@?$AAh?$AAo?$AAn?$AAg?$AA?9?$AAk?$AAo?$AAn?$AAg?$AA?$AA@ 10055aa8     libucrt:get_qualified_locale.obj
 0002:00007abc       ??_C@_1BI@KOELBBPJ@?$AAn?$AAe?$AAw?$AA?9?$AAz?$AAe?$AAa?$AAl?$AAa?$AAn?$AAd?$AA?$AA@ 10055abc     libucrt:get_qualified_locale.obj
 0002:00007ad4       ??_C@_15HIEBHAIO@?$AAn?$AAz?$AA?$AA@ 10055ad4     libucrt:get_qualified_locale.obj
 0002:00007adc       ??_C@_1BC@CHBCPFPI@?$AAp?$AAr?$AA?5?$AAc?$AAh?$AAi?$AAn?$AAa?$AA?$AA@ 10055adc     libucrt:get_qualified_locale.obj
 0002:00007af0       ??_C@_1BC@JAOIIFKD@?$AAp?$AAr?$AA?9?$AAc?$AAh?$AAi?$AAn?$AAa?$AA?$AA@ 10055af0     libucrt:get_qualified_locale.obj
 0002:00007b04       ??_C@_1BI@BEHPPHKC@?$AAp?$AAu?$AAe?$AAr?$AAt?$AAo?$AA?9?$AAr?$AAi?$AAc?$AAo?$AA?$AA@ 10055b04     libucrt:get_qualified_locale.obj
 0002:00007b1c       ??_C@_1O@PAEOFKDI@?$AAs?$AAl?$AAo?$AAv?$AAa?$AAk?$AA?$AA@ 10055b1c     libucrt:get_qualified_locale.obj
 0002:00007b2c       ??_C@_1BK@FIHMCKAM@?$AAs?$AAo?$AAu?$AAt?$AAh?$AA?5?$AAa?$AAf?$AAr?$AAi?$AAc?$AAa?$AA?$AA@ 10055b2c     libucrt:get_qualified_locale.obj
 0002:00007b48       ??_C@_1BI@NAEOODKB@?$AAs?$AAo?$AAu?$AAt?$AAh?$AA?5?$AAk?$AAo?$AAr?$AAe?$AAa?$AA?$AA@ 10055b48     libucrt:get_qualified_locale.obj
 0002:00007b60       ??_C@_1BK@FBDGGIFF@?$AAs?$AAo?$AAu?$AAt?$AAh?$AA?9?$AAa?$AAf?$AAr?$AAi?$AAc?$AAa?$AA?$AA@ 10055b60     libucrt:get_qualified_locale.obj
 0002:00007b7c       ??_C@_1BI@GHLEJDPK@?$AAs?$AAo?$AAu?$AAt?$AAh?$AA?9?$AAk?$AAo?$AAr?$AAe?$AAa?$AA?$AA@ 10055b7c     libucrt:get_qualified_locale.obj
 0002:00007b94       ??_C@_1CE@PLHLOMJF@?$AAt?$AAr?$AAi?$AAn?$AAi?$AAd?$AAa?$AAd?$AA?5?$AA?$CG?$AA?5?$AAt?$AAo?$AAb?$AAa?$AAg?$AAo?$AA?$AA@ 10055b94     libucrt:get_qualified_locale.obj
 0002:00007bb8       ??_C@_1BO@MODIMHHI@?$AAu?$AAn?$AAi?$AAt?$AAe?$AAd?$AA?9?$AAk?$AAi?$AAn?$AAg?$AAd?$AAo?$AAm?$AA?$AA@ 10055bb8     libucrt:get_qualified_locale.obj
 0002:00007bd8       ??_C@_1BM@FFHJONBJ@?$AAu?$AAn?$AAi?$AAt?$AAe?$AAd?$AA?9?$AAs?$AAt?$AAa?$AAt?$AAe?$AAs?$AA?$AA@ 10055bd8     libucrt:get_qualified_locale.obj
 0002:00007bf8       ___acrt_rg_language        10055bf8     libucrt:get_qualified_locale.obj
 0002:00007f04       ___acrt_rg_language_count  10055f04     libucrt:get_qualified_locale.obj
 0002:00007f08       ___acrt_rg_country         10055f08     libucrt:get_qualified_locale.obj
 0002:0000801c       ___acrt_rg_country_count   1005601c     libucrt:get_qualified_locale.obj
 0002:00008020       ??_C@_17DNCLJFIF@?$AAA?$AAC?$AAP?$AA?$AA@ 10056020     libucrt:get_qualified_locale.obj
 0002:00008028       ??_C@_17CIKBIHLH@?$AAO?$AAC?$AAP?$AA?$AA@ 10056028     libucrt:get_qualified_locale.obj
 0002:00008030       ___rglangidNotDefault      10056030     libucrt:getqloc_downlevel.obj
 0002:00008044       ??_C@_01GBGANLPD@0?$AA@    10056044     libucrt:cfout.obj
 0002:00008048       ??_C@_05DNEBIAHO@1?$CDINF?$AA@ 10056048     libucrt:cfout.obj
 0002:00008050       ??_C@_06IMKFLFPG@1?$CDQNAN?$AA@ 10056050     libucrt:cfout.obj
 0002:00008058       ??_C@_06PGGFOGJG@1?$CDSNAN?$AA@ 10056058     libucrt:cfout.obj
 0002:00008060       ??_C@_05PHHOCPM@1?$CDIND?$AA@ 10056060     libucrt:cfout.obj
 0002:00008ea8       ___acrt_pow_rcp_t1         10056ea8     libucrt:pow_tables.obj
 0002:000092c0       ___acrt_pow_log2_t1        100572c0     libucrt:pow_tables.obj
 0002:00009ad0       ___acrt_pow_rcp_t2         10057ad0     libucrt:pow_tables.obj
 0002:00009ee0       ___acrt_pow_log2_t2        10057ee0     libucrt:pow_tables.obj
 0002:0000a6f0       ___acrt_pow_rcp_t3         100586f0     libucrt:pow_tables.obj
 0002:0000af00       ___acrt_pow_log2_t3        10058f00     libucrt:pow_tables.obj
 0002:0000bf10       ___acrt_pow_clv            10059f10     libucrt:pow_tables.obj
 0002:0000bf30       ___acrt_pow_exp2_tbl       10059f30     libucrt:pow_tables.obj
 0002:0000c730       ___acrt_exp_tbl_addr       1005a730     libucrt:exp_tables.obj
 0002:0000cb88       ??_C@_1BA@BALFACEM@?$AAC?$AAO?$AAN?$AAO?$AAU?$AAT?$AA$?$AA?$AA@ 1005ab88     libucrt:initcon.obj
 0002:0000cca0       ___acrt_log10_table_t      1005aca0     libucrt:log10_tables.obj
 0002:0000d0b0       ___acrt_log10_table_cb     1005b0b0     libucrt:log10_tables.obj
 0002:0000d4c0       ??_C@_1BK@DBDEIDLH@?$AAK?$AAE?$AAR?$AAN?$AAE?$AAL?$AA3?$AA2?$AA?4?$AAD?$AAL?$AAL?$AA?$AA@ 1005b4c0     DelayImp:delayhlp.obj
 0002:0000d4dc       ___pfnDliFailureHook2      1005b4dc     DelayImp:delayhk1.obj
 0002:0000d4e4       ??_7_Ref_count_base@std@@6B@ 1005b4e4     libcpmt:excptptr.obj
 0002:0000d4f8       ??_7?$_Ref_count_obj_alloc@V__ExceptionPtr@@U?$_StaticAllocator@H@@@std@@6B@ 1005b4f8     libcpmt:excptptr.obj
 0002:0000d50c       ??_7?$_Ref_count_obj@V__ExceptionPtr@@@std@@6B@ 1005b50c     libcpmt:excptptr.obj
 0002:0000d520       ??_7stl_condition_variable_vista@details@Concurrency@@6B@ 1005b520     libcpmt:cond.obj
 0002:0000d538       ??_7stl_condition_variable_win7@details@Concurrency@@6B@ 1005b538     libcpmt:cond.obj
 0002:0000d550       ??_7stl_condition_variable_concrt@details@Concurrency@@6B@ 1005b550     libcpmt:cond.obj
 0002:0000d568       __load_config_used         1005b568     LIBCMT:loadcfg.obj
 0002:0000d5c4       ??_C@_0BA@JFNIOLAK@string?5too?5long?$AA@ 1005b5c4     Extensions.obj
 0002:0000d5d4       ??_C@_0BI@CFPLBAOH@invalid?5string?5position?$AA@ 1005b5d4     Extensions.obj
 0002:0000d5ec       ??_C@_0BD@HHMCKPNL@permessage?9deflate?$AA@ 1005b5ec     Extensions.obj
 0002:0000d600       ??_C@_0BN@PKNKMMCB@?$DL?5client_no_context_takeover?$AA@ 1005b600     Extensions.obj
 0002:0000d620       ??_C@_0BN@HELDBIFL@?$DL?5server_no_context_takeover?$AA@ 1005b620     Extensions.obj
 0002:0000d640       ??_C@_06CJNJFBNP@1?42?411?$AA@ 1005b640     Group.obj
 0002:0000d648       ??_C@_0BD@OLBABOEK@vector?$DMT?$DO?5too?5long?$AA@ 1005b648     Group.obj
 0002:0000d65c       ??_C@_0BC@KBDMBKEH@deque?$DMT?$DO?5too?5long?$AA@ 1005b65c     Group.obj
 0002:0000d670       ??_7?$_Func_impl@V<lambda_53ff3ec277c749501ec9217002aa9d7b>@@V?$allocator@H@std@@XPAU?$HttpSocket@$0A@@uWS@@@std@@6B@ 1005b670     Group.obj
 0002:0000d688       ??_7?$_Func_impl@V<lambda_cdf10bf5b5f8358ddc09646490ca2bd3>@@V?$allocator@H@std@@XPAU?$WebSocket@$0A@@uWS@@@std@@6B@ 1005b688     Group.obj
 0002:0000d6a0       ??_7?$_Func_impl@V<lambda_5c2f79513d0504d139958871698dd577>@@V?$allocator@H@std@@XPAU?$HttpSocket@$0A@@uWS@@@std@@6B@ 1005b6a0     Group.obj
 0002:0000d6b8       ?CONSUME_PRE_PADDING@?$WebSocketProtocol@$00U?$WebSocket@$00@uWS@@@uWS@@2HB 1005b6b8     Group.obj
 0002:0000d6bc       ?LONG_MESSAGE_HEADER@?$WebSocketProtocol@$00U?$WebSocket@$00@uWS@@@uWS@@2IB 1005b6bc     Group.obj
 0002:0000d6c0       ?SHORT_MESSAGE_HEADER@?$WebSocketProtocol@$00U?$WebSocket@$00@uWS@@@uWS@@2IB 1005b6c0     Group.obj
 0002:0000d6c4       ?LARGE_BUFFER_SIZE@Hub@uWS@@1HB 1005b6c4     Group.obj
 0002:0000d6c8       ?MEDIUM_MESSAGE_HEADER@?$WebSocketProtocol@$00U?$WebSocket@$00@uWS@@@uWS@@2IB 1005b6c8     Group.obj
 0002:0000d6cc       ??_7?$_Func_impl@V<lambda_480ce1beb17acf0344804a3db5b6865b>@@V?$allocator@H@std@@XPAUHttpResponse@uWS@@UHttpRequest@5@PADII@std@@6B@ 1005b6cc     Group.obj
 0002:0000d6e4       ??_7?$_Func_impl@V<lambda_26a43c5493e1ef97d75dc73d0d6d2fb0>@@V?$allocator@H@std@@XPAUHttpResponse@uWS@@@std@@6B@ 1005b6e4     Group.obj
 0002:0000d6fc       ??_7?$_Func_impl@V<lambda_3fbfd5c44bc064280253334d66644dd0>@@V?$allocator@H@std@@XPAU?$HttpSocket@$00@uWS@@@std@@6B@ 1005b6fc     Group.obj
 0002:0000d714       ?preAllocMaxSize@NodeData@uS@@2HB 1005b714     Group.obj
 0002:0000d718       ??_7?$_Func_impl@V<lambda_96818ef0bffebe7784dafdd6b8650226>@@V?$allocator@H@std@@XPAU?$WebSocket@$0A@@uWS@@PADIW4OpCode@5@@std@@6B@ 1005b718     Group.obj
 0002:0000d730       ??_7?$_Func_impl@V<lambda_1c688c24fd597b5f755e83302e53023b>@@V?$allocator@H@std@@XH@std@@6B@ 1005b730     Group.obj
 0002:0000d748       ??_7?$_Func_impl@V<lambda_5649a9b854e06245aa815fce0d27ad2c>@@V?$allocator@H@std@@XPAUHttpResponse@uWS@@@std@@6B@ 1005b748     Group.obj
 0002:0000d760       ??_7?$_Func_impl@V<lambda_29fc594577301b1bc2b03af6825a474b>@@V?$allocator@H@std@@XPAU?$WebSocket@$00@uWS@@PADI@std@@6B@ 1005b760     Group.obj
 0002:0000d778       ??_7?$_Func_impl@V<lambda_a28187498a520298138e8f32ba6c243d>@@V?$allocator@H@std@@XPAU?$WebSocket@$00@uWS@@HPADI@std@@6B@ 1005b778     Group.obj
 0002:0000d790       ??_7?$_Func_impl@V<lambda_b50986b69c5d421d67f8cf1f1e01cf51>@@V?$allocator@H@std@@XPAUHttpResponse@uWS@@PADII@std@@6B@ 1005b790     Group.obj
 0002:0000d7a8       ??_7?$_Func_impl@V<lambda_5e248ff5b85a9cbef0f96485f89af0f4>@@V?$allocator@H@std@@XPAU?$WebSocket@$00@uWS@@PADIW4OpCode@5@@std@@6B@ 1005b7a8     Group.obj
 0002:0000d7c0       ??_7?$_Func_impl@V<lambda_63233af269ebf66ec6711baf6bbbbf3c>@@V?$allocator@H@std@@XPAU?$WebSocket@$00@uWS@@UHttpRequest@5@@std@@6B@ 1005b7c0     Group.obj
 0002:0000d7d8       ??_7?$_Func_impl@V<lambda_3feb86e2305b43992e78a155d1556379>@@V?$allocator@H@std@@XPAU?$WebSocket@$00@uWS@@@std@@6B@ 1005b7d8     Group.obj
 0002:0000d7f0       ??_7?$_Func_impl@V<lambda_3794209ab7a2ee1b14680313776aa0cb>@@V?$allocator@H@std@@XPAU?$HttpSocket@$00@uWS@@@std@@6B@ 1005b7f0     Group.obj
 0002:0000d808       ??_7?$_Func_impl@V<lambda_5b1a45c89178d2c3a17a0ad1b46255d4>@@V?$allocator@H@std@@XPAUHttpResponse@uWS@@PADII@std@@6B@ 1005b808     Group.obj
 0002:0000d820       ??_7?$_Func_impl@V<lambda_99ef38e60bffb9212b3d1e3c55a2df69>@@V?$allocator@H@std@@XPAUHttpResponse@uWS@@UHttpRequest@5@PADII@std@@6B@ 1005b820     Group.obj
 0002:0000d838       ??_7?$_Func_impl@V<lambda_799e88e5857d2eeece038297701e4a0c>@@V?$allocator@H@std@@XPAU?$WebSocket@$0A@@uWS@@PADI@std@@6B@ 1005b838     Group.obj
 0002:0000d850       ??_7?$_Func_impl@V<lambda_6fd7a6803027b820a651af240ae00b15>@@V?$allocator@H@std@@XPAU?$WebSocket@$0A@@uWS@@HPADI@std@@6B@ 1005b850     Group.obj
 0002:0000d868       ??_7?$_Func_base@XPAU?$WebSocket@$0A@@uWS@@HPADI@std@@6B@ 1005b868     Group.obj
 0002:0000d868       ??_7?$_Func_base@XPAUHttpResponse@uWS@@@std@@6B@ 1005b868     Group.obj
 0002:0000d868       ??_7?$_Func_base@XH@std@@6B@ 1005b868     Group.obj
 0002:0000d868       ??_7?$_Func_base@XPAUHttpResponse@uWS@@UHttpRequest@2@PADII@std@@6B@ 1005b868     Group.obj
 0002:0000d868       ??_7?$_Func_base@XPAX@std@@6B@ 1005b868     Group.obj
 0002:0000d868       ??_7?$_Func_base@XPAU?$WebSocket@$00@uWS@@PADIW4OpCode@2@@std@@6B@ 1005b868     Group.obj
 0002:0000d868       ??_7?$_Func_base@XPAU?$WebSocket@$00@uWS@@UHttpRequest@2@@std@@6B@ 1005b868     Group.obj
 0002:0000d868       ??_7?$_Func_base@XPAU?$WebSocket@$0A@@uWS@@PADIW4OpCode@2@@std@@6B@ 1005b868     Group.obj
 0002:0000d868       ??_7?$_Func_base@XPAUHttpResponse@uWS@@PADII@std@@6B@ 1005b868     Group.obj
 0002:0000d868       ??_7?$_Func_base@XPAU?$WebSocket@$0A@@uWS@@PADI@std@@6B@ 1005b868     Group.obj
 0002:0000d868       ??_7?$_Func_base@XPAU?$WebSocket@$00@uWS@@PADI@std@@6B@ 1005b868     Group.obj
 0002:0000d868       ??_7?$_Func_base@XPAU?$WebSocket@$00@uWS@@HPADI@std@@6B@ 1005b868     Group.obj
 0002:0000d868       ??_7?$_Func_base@XPAU?$WebSocket@$00@uWS@@@std@@6B@ 1005b868     Group.obj
 0002:0000d868       ??_7?$_Func_base@XPAU?$HttpSocket@$00@uWS@@@std@@6B@ 1005b868     Group.obj
 0002:0000d868       ??_7?$_Func_base@XPAU?$WebSocket@$0A@@uWS@@UHttpRequest@2@@std@@6B@ 1005b868     Group.obj
 0002:0000d868       ??_7?$_Func_base@XPAU?$WebSocket@$0A@@uWS@@@std@@6B@ 1005b868     Group.obj
 0002:0000d868       ??_7?$_Func_base@XPAU?$HttpSocket@$0A@@uWS@@@std@@6B@ 1005b868     Group.obj
 0002:0000d880       ??_7?$_Func_impl@V<lambda_284e8f57f50590e9327d257d2c58f5ae>@@V?$allocator@H@std@@XPAX@std@@6B@ 1005b880     Group.obj
 0002:0000d898       ??_7?$_Func_impl@V<lambda_c86eed9c1ab0c35de2c7db853439f0fe>@@V?$allocator@H@std@@XPAU?$WebSocket@$0A@@uWS@@UHttpRequest@5@@std@@6B@ 1005b898     Group.obj
 0002:0000d8b0       ??_7?$_Ref_count@V?$basic_string@DU?$char_traits@D@std@@V?$allocator@D@2@@std@@@std@@6B@ 1005b8b0     Networking.obj
 0002:0000d8c0       ??_C@_02LMMGGCAJ@?3?5?$AA@ 1005b8c0     Hub.obj
 0002:0000d8c4       ??_C@_0BG@HGEDEDEC@invalid?5stoi?5argument?$AA@ 1005b8c4     Hub.obj
 0002:0000d8dc       ??_C@_0BL@MFFNMGGC@stoi?5argument?5out?5of?5range?$AA@ 1005b8dc     Hub.obj
 0002:0000d8f8       ??_C@_03GACAABJG@?3?1?1?$AA@ 1005b8f8     Hub.obj
 0002:0000d8fc       ??_C@_02DLFOHOMG@?3?1?$AA@ 1005b8fc     Hub.obj
 0002:0000d900       ??_C@_01KMDKNFGN@?1?$AA@   1005b900     Hub.obj
 0002:0000d904       ??_C@_03HKPGEEPK@wss?$AA@  1005b904     Hub.obj
 0002:0000d908       ??_C@_02FFBCHCAN@ws?$AA@   1005b908     Hub.obj
 0002:0000d90c       ??_C@_0BJ@DLJABEHN@x3JJHMbDL1EzLkh9GBhXDw?$DN?$DN?$AA@ 1005b90c     Hub.obj
 0002:0000d928       ??_C@_0BM@MLLIJMKO@Sec?9WebSocket?9Version?3?513?$AN?6?$AA@ 1005b928     Hub.obj
 0002:0000d944       ??_C@_02PCIJFNDE@?$AN?6?$AA@ 1005b944     Hub.obj
 0002:0000d948       ??_C@_08BBGIHPGP@?$AN?6Host?3?5?$AA@ 1005b948     Hub.obj
 0002:0000d958       ??_C@_0EI@CLJKCAMB@?5HTTP?11?41?$AN?6Upgrade?3?5websocket?$AN?6C@ 1005b958     Hub.obj
 0002:0000d9a0       ??_C@_05KCENFFMJ@GET?5?1?$AA@ 1005b9a0     Hub.obj
 0002:0000d9a8       ??_C@_04DOBFCDEM@?4?4?4?4?$AA@ 1005b9a8     WebSocket.obj
 0002:0000d9b0       ?CONSUME_PRE_PADDING@?$WebSocketProtocol@$0A@U?$WebSocket@$0A@@uWS@@@uWS@@2HB 1005b9b0     WebSocket.obj
 0002:0000d9b4       ?SHORT_MESSAGE_HEADER@?$WebSocketProtocol@$0A@U?$WebSocket@$0A@@uWS@@@uWS@@2IB 1005b9b4     WebSocket.obj
 0002:0000d9b8       ?CONSUME_POST_PADDING@?$WebSocketProtocol@$0A@U?$WebSocket@$0A@@uWS@@@uWS@@2HB 1005b9b8     WebSocket.obj
 0002:0000d9b8       ?CONSUME_POST_PADDING@?$WebSocketProtocol@$00U?$WebSocket@$00@uWS@@@uWS@@2HB 1005b9b8     Group.obj
 0002:0000d9b8       ?MEDIUM_MESSAGE_HEADER@?$WebSocketProtocol@$0A@U?$WebSocket@$0A@@uWS@@@uWS@@2IB 1005b9b8     WebSocket.obj
 0002:0000d9bc       ?LONG_MESSAGE_HEADER@?$WebSocketProtocol@$0A@U?$WebSocket@$0A@@uWS@@@uWS@@2IB 1005b9bc     WebSocket.obj
 0002:0000d9c0       ??_C@_03HNAFFKGA@get?$AA@  1005b9c0     HTTPSocket.obj
 0002:0000d9c4       ??_C@_03KMONJGDG@put?$AA@  1005b9c4     HTTPSocket.obj
 0002:0000d9c8       ??_C@_04LOKOGFID@post?$AA@ 1005b9c8     HTTPSocket.obj
 0002:0000d9d0       ??_C@_04NEODDMOL@head?$AA@ 1005b9d0     HTTPSocket.obj
 0002:0000d9d8       ??_C@_05OCKFKOHN@patch?$AA@ 1005b9d8     HTTPSocket.obj
 0002:0000d9e0       ??_C@_05IMBNNINJ@trace?$AA@ 1005b9e0     HTTPSocket.obj
 0002:0000d9e8       ??_C@_06FOBLBEIN@delete?$AA@ 1005b9e8     HTTPSocket.obj
 0002:0000d9f0       ??_C@_07FOPBDDAL@options?$AA@ 1005b9f0     HTTPSocket.obj
 0002:0000d9f8       ??_C@_07KAIBNCHO@connect?$AA@ 1005b9f8     HTTPSocket.obj
 0002:0000da00       ??_C@_0EB@NFPJKBDG@ABCDEFGHIJKLMNOPQRSTUVWXYZabcdef@ 1005ba00     HTTPSocket.obj
 0002:0000da44       ??_C@_0DN@FABGFECK@XXXXXXXXXXXXXXXXXXXXXXXX258EAFA5@ 1005ba44     HTTPSocket.obj
 0002:0000da88       ??_C@_0GC@JOKHANIK@HTTP?11?41?5101?5Switching?5Protocols@ 1005ba88     HTTPSocket.obj
 0002:0000daec       ??_C@_0BL@EPDBCPNN@Sec?9WebSocket?9Extensions?3?5?$AA@ 1005baec     HTTPSocket.obj
 0002:0000db08       ??_C@_0BJ@IBJCJIFD@Sec?9WebSocket?9Protocol?3?5?$AA@ 1005bb08     HTTPSocket.obj
 0002:0000db24       ??_C@_07NACIIPHM@upgrade?$AA@ 1005bb24     HTTPSocket.obj
 0002:0000db2c       ??_C@_0BC@IDPNCDHH@sec?9websocket?9key?$AA@ 1005bb2c     HTTPSocket.obj
 0002:0000db40       ??_C@_0BJ@OJNOAKHD@sec?9websocket?9extensions?$AA@ 1005bb40     HTTPSocket.obj
 0002:0000db5c       ??_C@_0BH@CAKDAFHO@sec?9websocket?9protocol?$AA@ 1005bb5c     HTTPSocket.obj
 0002:0000db74       ??_C@_0P@DJOOPABC@content?9length?$AA@ 1005bb74     HTTPSocket.obj
 0002:0000db83       ??_C@_00CNPNBAHC@?$AA@     1005bb83     Socket.obj
 0002:0000db84       ??_C@_04EMGFNKGN@IPv4?$AA@ 1005bb84     Socket.obj
 0002:0000db8c       ??_C@_04HOFDLIOP@IPv6?$AA@ 1005bb8c     Socket.obj
 0002:0000db94       ??_C@_0BC@BDKFLDHL@unknown?5exception?$AA@ 1005bb94     addon.obj
 0002:0000dba8       ??_C@_0BA@ELKIONDK@bad?5locale?5name?$AA@ 1005bba8     addon.obj
 0002:0000dbb8       ??_C@_05LAPONLG@false?$AA@ 1005bbb8     addon.obj
 0002:0000dbc0       ??_C@_04LOAJBDKD@true?$AA@ 1005bbc0     addon.obj
 0002:0000dbc8       ??_C@_07DCLBNMLN@generic?$AA@ 1005bbc8     addon.obj
 0002:0000dbd0       ??_C@_08LLGCOLLL@iostream?$AA@ 1005bbd0     addon.obj
 0002:0000dbdc       ??_C@_0BG@PADBLCHM@iostream?5stream?5error?$AA@ 1005bbdc     addon.obj
 0002:0000dbf4       ??_C@_0BF@PHHKMMFD@ios_base?3?3badbit?5set?$AA@ 1005bbf4     addon.obj
 0002:0000dc0c       ??_C@_0BG@FMKFHCIL@ios_base?3?3failbit?5set?$AA@ 1005bc0c     addon.obj
 0002:0000dc24       ??_C@_0BF@OOHOMBOF@ios_base?3?3eofbit?5set?$AA@ 1005bc24     addon.obj
 0002:0000dc3c       ??_C@_0CI@BOOAKPPJ@HTTP?11?41?5200?5OK?$AN?6Content?9Length?3@ 1005bc3c     addon.obj
 0002:0000dc64       ??_C@_04PJOLNDGD@data?$AA@ 1005bc64     addon.obj
 0002:0000dc6c       ??_C@_03JBJLGPFL@end?$AA@  1005bc6c     addon.obj
 0002:0000dc70       ??_C@_0BG@MEBPLCF@?$CJ?5is?5not?5implemented?$CB?$AA@ 1005bc70     addon.obj
 0002:0000dc88       ??_C@_0BB@BLMPEKDA@Warning?3?5req?4on?$CI?$AA@ 1005bc88     addon.obj
 0002:0000dca0       ??_C@_0EC@CPLKCHDG@Warning?3?5req?4headers?5usage?5past?5@ 1005bca0     addon.obj
 0002:0000dce4       ??_C@_03HAPOJHBM@GET?$AA@  1005bce4     addon.obj
 0002:0000dce8       ??_C@_03KBBGFLEK@PUT?$AA@  1005bce8     addon.obj
 0002:0000dcec       ??_C@_04HCJEIHPL@POST?$AA@ 1005bcec     addon.obj
 0002:0000dcf4       ??_C@_04BINJNOJD@HEAD?$AA@ 1005bcf4     addon.obj
 0002:0000dcfc       ??_C@_05CJDDEJDD@PATCH?$AA@ 1005bcfc     addon.obj
 0002:0000dd04       ??_C@_05EHILDPJH@TRACE?$AA@ 1005bd04     addon.obj
 0002:0000dd0c       ??_C@_06FKDAMKFP@DELETE?$AA@ 1005bd0c     addon.obj
 0002:0000dd14       ??_C@_07KDKMIPIP@OPTIONS?$AA@ 1005bd14     addon.obj
 0002:0000dd1c       ??_C@_07FNNMGOPK@CONNECT?$AA@ 1005bd1c     addon.obj
 0002:0000dd24       ??_C@_0M@JGEKKEEG@uws?4Request?$AA@ 1005bd24     addon.obj
 0002:0000dd30       ??_C@_03BMGHOINI@url?$AA@  1005bd30     addon.obj
 0002:0000dd34       ??_C@_06GABBCIBA@method?$AA@ 1005bd34     addon.obj
 0002:0000dd3c       ??_C@_02LIELOMNJ@on?$AA@   1005bd3c     addon.obj
 0002:0000dd40       ??_C@_06BNLKBOND@unpipe?$AA@ 1005bd40     addon.obj
 0002:0000dd48       ??_C@_06PLELHCEK@resume?$AA@ 1005bd48     addon.obj
 0002:0000dd50       ??_C@_06HBELJPBO@socket?$AA@ 1005bd50     addon.obj
 0002:0000dd58       ??_C@_07LANIGEJC@headers?$AA@ 1005bd58     addon.obj
 0002:0000dd60       ??_C@_05LBOHBHFK@close?$AA@ 1005bd60     addon.obj
 0002:0000dd68       ??_C@_0BB@FGAHOLDL@Warning?3?5res?4on?$CI?$AA@ 1005bd68     addon.obj
 0002:0000dd7c       ??_C@_01CLKCMJKC@?5?$AA@   1005bd7c     addon.obj
 0002:0000dd80       ??_C@_09NGGEIBPB@HTTP?11?41?5?$AA@ 1005bd80     addon.obj
 0002:0000dd8c       ??_C@_02GIPFHKNO@OK?$AA@   1005bd8c     addon.obj
 0002:0000dd90       ??_C@_04FMMHFHOO@?$AN?6?$AN?6?$AA@ 1005bd90     addon.obj
 0002:0000dd98       ??_C@_0N@KNHNDABP@uws?4Response?$AA@ 1005bd98     addon.obj
 0002:0000dda8       ??_C@_09HFPACIHH@writeHead?$AA@ 1005bda8     addon.obj
 0002:0000ddb4       ??_C@_05NGFEDHGN@write?$AA@ 1005bdb4     addon.obj
 0002:0000ddbc       ??_C@_09FDDLHLHC@setHeader?$AA@ 1005bdbc     addon.obj
 0002:0000ddc8       ??_C@_09HNHOFKOA@getHeader?$AA@ 1005bdc8     addon.obj
 0002:0000ddd4       ??_C@_0BE@HIJDFBII@Warning?3?5server?4on?$CI?$AA@ 1005bdd4     addon.obj
 0002:0000dde8       ??_C@_08BHGFJLPJ@listen?3?5?$AA@ 1005bde8     addon.obj
 0002:0000ddf4       ??_C@_07ENHGAJCI@request?$AA@ 1005bdf4     addon.obj
 0002:0000ddfc       ??_C@_08HKMEAON@response?$AA@ 1005bdfc     addon.obj
 0002:0000de08       ??_C@_0N@HFHGEKCH@createServer?$AA@ 1005be08     addon.obj
 0002:0000de18       ??_C@_0O@BNLPPNCC@getExpressApp?$AA@ 1005be18     addon.obj
 0002:0000de28       ??_C@_0BF@ECEEDFLC@getResponsePrototype?$AA@ 1005be28     addon.obj
 0002:0000de40       ??_C@_0BE@HCBGFFKP@getRequestPrototype?$AA@ 1005be40     addon.obj
 0002:0000de54       ??_C@_06OODDLKLE@listen?$AA@ 1005be54     addon.obj
 0002:0000de5c       ??_C@_06HJHJCKIO@server?$AA@ 1005be5c     addon.obj
 0002:0000de64       ??_C@_06DGDLPBAN@client?$AA@ 1005be64     addon.obj
 0002:0000de6c       ??_C@_0L@FEIFCMFG@httpServer?$AA@ 1005be6c     addon.obj
 0002:0000de78       ??_C@_0M@INFGNMEL@setUserData?$AA@ 1005be78     addon.obj
 0002:0000de84       ??_C@_0M@ICEIAKMI@getUserData?$AA@ 1005be84     addon.obj
 0002:0000de90       ??_C@_0O@BNCPOBGN@clearUserData?$AA@ 1005be90     addon.obj
 0002:0000dea0       ??_C@_0L@KDPCDPCO@getAddress?$AA@ 1005bea0     addon.obj
 0002:0000deac       ??_C@_08LGNJOGGB@transfer?$AA@ 1005beac     addon.obj
 0002:0000deb8       ??_C@_07BJANGOOG@setNoop?$AA@ 1005beb8     addon.obj
 0002:0000dec0       ??_C@_0BB@MMCPDBML@?4?4?2src?2addon?4cpp?$AA@ 1005bec0     addon.obj
 0002:0000ded4       ??_C@_03NHPGCEKN@uws?$AA@  1005bed4     addon.obj
 0002:0000ded8       ??_C@_04MIIPNNEF@send?$AA@ 1005bed8     addon.obj
 0002:0000dee0       ??_C@_09DACGJFPO@terminate?$AA@ 1005bee0     addon.obj
 0002:0000deec       ??_C@_0P@OJKPOCHM@prepareMessage?$AA@ 1005beec     addon.obj
 0002:0000defc       ??_C@_0N@PJIIIDIB@sendPrepared?$AA@ 1005befc     addon.obj
 0002:0000df0c       ??_C@_0BA@KGPPAAJG@finalizeMessage?$AA@ 1005bf0c     addon.obj
 0002:0000df1c       ??_C@_0N@IDIKOLKI@onConnection?$AA@ 1005bf1c     addon.obj
 0002:0000df2c       ??_C@_09CGGCBBGN@onMessage?$AA@ 1005bf2c     addon.obj
 0002:0000df38       ??_C@_0BA@JEHIJFKG@onDisconnection?$AA@ 1005bf38     addon.obj
 0002:0000df48       ??_C@_07LKMHCDH@onError?$AA@ 1005bf48     addon.obj
 0002:0000df50       ??_C@_07EDHBMKOF@forEach?$AA@ 1005bf50     addon.obj
 0002:0000df58       ??_C@_07HBLPNKFH@getSize?$AA@ 1005bf58     addon.obj
 0002:0000df60       ??_C@_0O@PCAIEFAM@startAutoPing?$AA@ 1005bf60     addon.obj
 0002:0000df70       ??_C@_06DLFLBOKP@onPing?$AA@ 1005bf70     addon.obj
 0002:0000df78       ??_C@_06BODAEBHD@onPong?$AA@ 1005bf78     addon.obj
 0002:0000df80       ??_C@_06HBNONAG@create?$AA@ 1005bf80     addon.obj
 0002:0000df88       ??_C@_09OALBOHJN@broadcast?$AA@ 1005bf88     addon.obj
 0002:0000df94       ??_C@_05MGJOOGAJ@group?$AA@ 1005bf94     addon.obj
 0002:0000df9c       ??_C@_02BBAHNLBA@?$CFp?$AA@ 1005bf9c     addon.obj
 0002:0000dfa0       ??_C@_02CLHGNPPK@Lu?$AA@   1005bfa0     addon.obj
 0002:0000dfa4       ??_C@_02HIKPPMOK@Ld?$AA@   1005bfa4     addon.obj
 0002:0000dfa8       ??_C@_02BDDLJJBK@lu?$AA@   1005bfa8     addon.obj
 0002:0000dfac       ??_C@_02EAOCLKAK@ld?$AA@   1005bfac     addon.obj
 0002:0000dfb0       ??_C@_02MDKMJEGG@eE?$AA@   1005bfb0     addon.obj
 0002:0000dfb4       ??_C@_02OOPEBDOJ@pP?$AA@   1005bfb4     addon.obj
 0002:0000dfb8       ??_7?$_Func_impl@V<lambda_ab21da79468cf75ef8a5b2c19fc9df60>@@V?$allocator@H@std@@XPAUHttpResponse@uWS@@PADII@std@@6B@ 1005bfb8     addon.obj
 0002:0000dfd0       ??_7?$_Func_impl@V<lambda_99f67bed414616fd95dc4419d5bb6d86>@@V?$allocator@H@std@@XPAU?$WebSocket@$00@uWS@@PADI@std@@6B@ 1005bfd0     addon.obj
 0002:0000dfe8       ??_7?$_Func_impl@V<lambda_48a2ad8411dfb78ca19670ff520707ee>@@V?$allocator@H@std@@XPAU?$WebSocket@$00@uWS@@PADIW4OpCode@5@@std@@6B@ 1005bfe8     addon.obj
 0002:0000e000       ??_7?$_Func_impl@V<lambda_208c1e08f92f7c47e87798a7b3d6644f>@@V?$allocator@H@std@@XPAU?$WebSocket@$0A@@uWS@@UHttpRequest@5@@std@@6B@ 1005c000     addon.obj
 0002:0000e018       ??_7?$_Func_impl@V<lambda_cd4883bb11e6c621b1acc92b6d8da8c1>@@V?$allocator@H@std@@XPAU?$WebSocket@$0A@@uWS@@PADIW4OpCode@5@@std@@6B@ 1005c018     addon.obj
 0002:0000e030       ??_7?$_Func_impl@V<lambda_af7a5422dd374fbb44bb0600bceb4c12>@@V?$allocator@H@std@@XPAUHttpResponse@uWS@@UHttpRequest@5@PADII@std@@6B@ 1005c030     addon.obj
 0002:0000e048       ??_7?$_Func_impl@V<lambda_1d46c80fc537237927264025b327cfb0>@@V?$allocator@H@std@@XPAU?$WebSocket@$0A@@uWS@@PADI@std@@6B@ 1005c048     addon.obj
 0002:0000e060       ??_7exception@stdext@@6B@  1005c060     addon.obj
 0002:0000e06c       ??_7?$_Func_impl@V<lambda_cd9dafd5dd8557c825a5e1eed9936cb1>@@V?$allocator@H@std@@XPAU?$WebSocket@$00@uWS@@PADI@std@@6B@ 1005c06c     addon.obj
 0002:0000e084       ??_7?$_Func_impl@V<lambda_e1637142ea344e884e17eb9d2de27d2d>@@V?$allocator@H@std@@XPAU?$WebSocket@$00@uWS@@HPADI@std@@6B@ 1005c084     addon.obj
 0002:0000e09c       ??_7?$_Func_impl@V<lambda_a9c374da5dc12dabd3c598763daba76e>@@V?$allocator@H@std@@XPAU?$WebSocket@$0A@@uWS@@HPADI@std@@6B@ 1005c09c     addon.obj
 0002:0000e0b4       ??_7?$_Func_impl@V<lambda_14958bf5dc4f051e32ab96422140a561>@@V?$allocator@H@std@@XPAX@std@@6B@ 1005c0b4     addon.obj
 0002:0000e0cc       ??_7?$_Func_impl@V<lambda_8f1b2285fb4d43b2e4da5a4614c9e8de>@@V?$allocator@H@std@@XPAU?$WebSocket@$0A@@uWS@@PADI@std@@6B@ 1005c0cc     addon.obj
 0002:0000e0e4       ??_7?$_Func_impl@V<lambda_133e58a517827c34a78e0f1d8439cbb2>@@V?$allocator@H@std@@XPAU?$WebSocket@$00@uWS@@UHttpRequest@5@@std@@6B@ 1005c0e4     addon.obj
 0002:0000e0fc       ??_7?$_Func_impl@V<lambda_cbf472aa6ee717239cd6161d1e7aab15>@@V?$allocator@H@std@@XPAUHttpResponse@uWS@@@std@@6B@ 1005c0fc     addon.obj
 0002:0000e114       ??_C@_08HCOMDCCD@iojs?4exe?$AA@ 1005c114     win_delay_load_hook.obj
 0002:0000e120       ??_C@_08JDDNMFDB@node?4exe?$AA@ 1005c120     win_delay_load_hook.obj
 0002:0000e12c       ___pfnDliNotifyHook2       1005c12c     win_delay_load_hook.obj
 0002:0000e130       __real@4202a05f20000000    1005c130     addon.obj
 0002:0000e140       __xmm@7fffffffffffffff7fffffffffffffff 1005c140     addon.obj
 0002:0000e1c0       __tls_used                 1005c1c0     LIBCMT:tlssup.obj
 0002:0000e1d8       ??_R4exception@std@@6B@    1005c1d8     libcpmt:xthrow.obj
 0002:0000e1ec       ??_R3exception@std@@8      1005c1ec     libcpmt:xthrow.obj
 0002:0000e1fc       ??_R2exception@std@@8      1005c1fc     libcpmt:xthrow.obj
 0002:0000e204       ??_R1A@?0A@EA@exception@std@@8 1005c204     libcpmt:xthrow.obj
 0002:0000e220       ??_R4bad_alloc@std@@6B@    1005c220     libcpmt:xthrow.obj
 0002:0000e234       ??_R3bad_alloc@std@@8      1005c234     libcpmt:xthrow.obj
 0002:0000e244       ??_R2bad_alloc@std@@8      1005c244     libcpmt:xthrow.obj
 0002:0000e250       ??_R1A@?0A@EA@bad_alloc@std@@8 1005c250     libcpmt:xthrow.obj
 0002:0000e26c       ??_R4logic_error@std@@6B@  1005c26c     libcpmt:xthrow.obj
 0002:0000e280       ??_R3logic_error@std@@8    1005c280     libcpmt:xthrow.obj
 0002:0000e290       ??_R2logic_error@std@@8    1005c290     libcpmt:xthrow.obj
 0002:0000e29c       ??_R1A@?0A@EA@logic_error@std@@8 1005c29c     libcpmt:xthrow.obj
 0002:0000e2b8       ??_R4invalid_argument@std@@6B@ 1005c2b8     libcpmt:xthrow.obj
 0002:0000e2cc       ??_R3invalid_argument@std@@8 1005c2cc     libcpmt:xthrow.obj
 0002:0000e2dc       ??_R2invalid_argument@std@@8 1005c2dc     libcpmt:xthrow.obj
 0002:0000e2ec       ??_R1A@?0A@EA@invalid_argument@std@@8 1005c2ec     libcpmt:xthrow.obj
 0002:0000e308       ??_R4length_error@std@@6B@ 1005c308     libcpmt:xthrow.obj
 0002:0000e31c       ??_R3length_error@std@@8   1005c31c     libcpmt:xthrow.obj
 0002:0000e32c       ??_R2length_error@std@@8   1005c32c     libcpmt:xthrow.obj
 0002:0000e33c       ??_R1A@?0A@EA@length_error@std@@8 1005c33c     libcpmt:xthrow.obj
 0002:0000e358       ??_R4out_of_range@std@@6B@ 1005c358     libcpmt:xthrow.obj
 0002:0000e36c       ??_R3out_of_range@std@@8   1005c36c     libcpmt:xthrow.obj
 0002:0000e37c       ??_R2out_of_range@std@@8   1005c37c     libcpmt:xthrow.obj
 0002:0000e38c       ??_R1A@?0A@EA@out_of_range@std@@8 1005c38c     libcpmt:xthrow.obj
 0002:0000e3a8       ??_R4runtime_error@std@@6B@ 1005c3a8     libcpmt:xthrow.obj
 0002:0000e3bc       ??_R3runtime_error@std@@8  1005c3bc     libcpmt:xthrow.obj
 0002:0000e3cc       ??_R2runtime_error@std@@8  1005c3cc     libcpmt:xthrow.obj
 0002:0000e3d8       ??_R1A@?0A@EA@runtime_error@std@@8 1005c3d8     libcpmt:xthrow.obj
 0002:0000e3f4       ??_R4bad_function_call@std@@6B@ 1005c3f4     libcpmt:xthrow.obj
 0002:0000e408       ??_R3bad_function_call@std@@8 1005c408     libcpmt:xthrow.obj
 0002:0000e418       ??_R2bad_function_call@std@@8 1005c418     libcpmt:xthrow.obj
 0002:0000e424       ??_R1A@?0A@EA@bad_function_call@std@@8 1005c424     libcpmt:xthrow.obj
 0002:0000e440       ??_R4error_category@std@@6B@ 1005c440     libcpmt:thread0.obj
 0002:0000e454       ??_R3error_category@std@@8 1005c454     libcpmt:thread0.obj
 0002:0000e464       ??_R2error_category@std@@8 1005c464     libcpmt:thread0.obj
 0002:0000e46c       ??_R1A@?0A@EA@error_category@std@@8 1005c46c     libcpmt:thread0.obj
 0002:0000e488       ??_R4_System_error@std@@6B@ 1005c488     libcpmt:thread0.obj
 0002:0000e49c       ??_R3_System_error@std@@8  1005c49c     libcpmt:thread0.obj
 0002:0000e4ac       ??_R2_System_error@std@@8  1005c4ac     libcpmt:thread0.obj
 0002:0000e4bc       ??_R1A@?0A@EA@_System_error@std@@8 1005c4bc     libcpmt:thread0.obj
 0002:0000e4d8       ??_R4system_error@std@@6B@ 1005c4d8     libcpmt:thread0.obj
 0002:0000e4ec       ??_R3system_error@std@@8   1005c4ec     libcpmt:thread0.obj
 0002:0000e4fc       ??_R2system_error@std@@8   1005c4fc     libcpmt:thread0.obj
 0002:0000e510       ??_R1A@?0A@EA@system_error@std@@8 1005c510     libcpmt:thread0.obj
 0002:0000e52c       ??_R4_Generic_error_category@std@@6B@ 1005c52c     libcpmt:thread0.obj
 0002:0000e540       ??_R3_Generic_error_category@std@@8 1005c540     libcpmt:thread0.obj
 0002:0000e550       ??_R2_Generic_error_category@std@@8 1005c550     libcpmt:thread0.obj
 0002:0000e55c       ??_R1A@?0A@EA@_Generic_error_category@std@@8 1005c55c     libcpmt:thread0.obj
 0002:0000e578       ??_R3stl_critical_section_interface@details@Concurrency@@8 1005c578     libcpmt:mutex.obj
 0002:0000e588       ??_R2stl_critical_section_interface@details@Concurrency@@8 1005c588     libcpmt:mutex.obj
 0002:0000e590       ??_R1A@?0A@EA@stl_critical_section_interface@details@Concurrency@@8 1005c590     libcpmt:mutex.obj
 0002:0000e5ac       ??_R4stl_critical_section_vista@details@Concurrency@@6B@ 1005c5ac     libcpmt:mutex.obj
 0002:0000e5c0       ??_R3stl_critical_section_vista@details@Concurrency@@8 1005c5c0     libcpmt:mutex.obj
 0002:0000e5d0       ??_R2stl_critical_section_vista@details@Concurrency@@8 1005c5d0     libcpmt:mutex.obj
 0002:0000e5dc       ??_R1A@?0A@EA@stl_critical_section_vista@details@Concurrency@@8 1005c5dc     libcpmt:mutex.obj
 0002:0000e5f8       ??_R4stl_critical_section_win7@details@Concurrency@@6B@ 1005c5f8     libcpmt:mutex.obj
 0002:0000e60c       ??_R3stl_critical_section_win7@details@Concurrency@@8 1005c60c     libcpmt:mutex.obj
 0002:0000e61c       ??_R2stl_critical_section_win7@details@Concurrency@@8 1005c61c     libcpmt:mutex.obj
 0002:0000e628       ??_R1A@?0A@EA@stl_critical_section_win7@details@Concurrency@@8 1005c628     libcpmt:mutex.obj
 0002:0000e644       ??_R4stl_critical_section_concrt@details@Concurrency@@6B@ 1005c644     libcpmt:mutex.obj
 0002:0000e658       ??_R3stl_critical_section_concrt@details@Concurrency@@8 1005c658     libcpmt:mutex.obj
 0002:0000e668       ??_R2stl_critical_section_concrt@details@Concurrency@@8 1005c668     libcpmt:mutex.obj
 0002:0000e674       ??_R1A@?0A@EA@stl_critical_section_concrt@details@Concurrency@@8 1005c674     libcpmt:mutex.obj
 0002:0000e690       ??_R4ios_base@std@@6B@     1005c690     libcpmt:cout.obj
 0002:0000e6a4       ??_R3ios_base@std@@8       1005c6a4     libcpmt:cout.obj
 0002:0000e6b4       ??_R2ios_base@std@@8       1005c6b4     libcpmt:cout.obj
 0002:0000e6c0       ??_R1A@?0A@EA@ios_base@std@@8 1005c6c0     libcpmt:cout.obj
 0002:0000e6dc       ??_R17?0A@EA@?$_Iosb@H@std@@8 1005c6dc     libcpmt:cout.obj
 0002:0000e6f8       ??_R3?$_Iosb@H@std@@8      1005c6f8     libcpmt:cout.obj
 0002:0000e708       ??_R2?$_Iosb@H@std@@8      1005c708     libcpmt:cout.obj
 0002:0000e710       ??_R1A@?0A@EA@?$_Iosb@H@std@@8 1005c710     libcpmt:cout.obj
 0002:0000e72c       ??_R4?$basic_ios@DU?$char_traits@D@std@@@std@@6B@ 1005c72c     libcpmt:cout.obj
 0002:0000e740       ??_R3?$basic_ios@DU?$char_traits@D@std@@@std@@8 1005c740     libcpmt:cout.obj
 0002:0000e750       ??_R2?$basic_ios@DU?$char_traits@D@std@@@std@@8 1005c750     libcpmt:cout.obj
 0002:0000e760       ??_R1A@?0A@EA@?$basic_ios@DU?$char_traits@D@std@@@std@@8 1005c760     libcpmt:cout.obj
 0002:0000e77c       ??_R4?$basic_streambuf@DU?$char_traits@D@std@@@std@@6B@ 1005c77c     libcpmt:cout.obj
 0002:0000e790       ??_R3?$basic_streambuf@DU?$char_traits@D@std@@@std@@8 1005c790     libcpmt:cout.obj
 0002:0000e7a0       ??_R2?$basic_streambuf@DU?$char_traits@D@std@@@std@@8 1005c7a0     libcpmt:cout.obj
 0002:0000e7a8       ??_R1A@?0A@EA@?$basic_streambuf@DU?$char_traits@D@std@@@std@@8 1005c7a8     libcpmt:cout.obj
 0002:0000e7c4       ??_R1A@A@3FA@?$basic_ios@DU?$char_traits@D@std@@@std@@8 1005c7c4     libcpmt:cout.obj
 0002:0000e7e0       ??_R1A@A@3EA@ios_base@std@@8 1005c7e0     libcpmt:cout.obj
 0002:0000e7fc       ??_R17A@3EA@?$_Iosb@H@std@@8 1005c7fc     libcpmt:cout.obj
 0002:0000e818       ??_R4?$basic_ostream@DU?$char_traits@D@std@@@std@@6B@ 1005c818     libcpmt:cout.obj
 0002:0000e82c       ??_R3?$basic_ostream@DU?$char_traits@D@std@@@std@@8 1005c82c     libcpmt:cout.obj
 0002:0000e83c       ??_R2?$basic_ostream@DU?$char_traits@D@std@@@std@@8 1005c83c     libcpmt:cout.obj
 0002:0000e850       ??_R1A@?0A@EA@?$basic_ostream@DU?$char_traits@D@std@@@std@@8 1005c850     libcpmt:cout.obj
 0002:0000e86c       ??_R4?$basic_filebuf@DU?$char_traits@D@std@@@std@@6B@ 1005c86c     libcpmt:cout.obj
 0002:0000e880       ??_R3?$basic_filebuf@DU?$char_traits@D@std@@@std@@8 1005c880     libcpmt:cout.obj
 0002:0000e890       ??_R2?$basic_filebuf@DU?$char_traits@D@std@@@std@@8 1005c890     libcpmt:cout.obj
 0002:0000e89c       ??_R1A@?0A@EA@?$basic_filebuf@DU?$char_traits@D@std@@@std@@8 1005c89c     libcpmt:cout.obj
 0002:0000e8b8       ??_R4bad_cast@std@@6B@     1005c8b8     libcpmt:cout.obj
 0002:0000e8cc       ??_R3bad_cast@std@@8       1005c8cc     libcpmt:cout.obj
 0002:0000e8dc       ??_R2bad_cast@std@@8       1005c8dc     libcpmt:cout.obj
 0002:0000e8e8       ??_R1A@?0A@EA@bad_cast@std@@8 1005c8e8     libcpmt:cout.obj
 0002:0000e904       ??_R4_Facet_base@std@@6B@  1005c904     libcpmt:cout.obj
 0002:0000e918       ??_R3_Facet_base@std@@8    1005c918     libcpmt:cout.obj
 0002:0000e928       ??_R2_Facet_base@std@@8    1005c928     libcpmt:cout.obj
 0002:0000e930       ??_R1A@?0A@EA@_Facet_base@std@@8 1005c930     libcpmt:cout.obj
 0002:0000e94c       ??_R1A@?0A@EA@facet@locale@std@@8 1005c94c     libcpmt:cout.obj
 0002:0000e968       ??_R3facet@locale@std@@8   1005c968     libcpmt:cout.obj
 0002:0000e978       ??_R2facet@locale@std@@8   1005c978     libcpmt:cout.obj
 0002:0000e988       ??_R13?0A@EA@_Crt_new_delete@std@@8 1005c988     libcpmt:cout.obj
 0002:0000e9a4       ??_R3_Crt_new_delete@std@@8 1005c9a4     libcpmt:cout.obj
 0002:0000e9b4       ??_R2_Crt_new_delete@std@@8 1005c9b4     libcpmt:cout.obj
 0002:0000e9bc       ??_R1A@?0A@EA@_Crt_new_delete@std@@8 1005c9bc     libcpmt:cout.obj
 0002:0000e9d8       ??_R3codecvt_base@std@@8   1005c9d8     libcpmt:cout.obj
 0002:0000e9e8       ??_R2codecvt_base@std@@8   1005c9e8     libcpmt:cout.obj
 0002:0000e9fc       ??_R1A@?0A@EA@codecvt_base@std@@8 1005c9fc     libcpmt:cout.obj
 0002:0000ea18       ??_R3ctype_base@std@@8     1005ca18     libcpmt:cout.obj
 0002:0000ea28       ??_R2ctype_base@std@@8     1005ca28     libcpmt:cout.obj
 0002:0000ea3c       ??_R1A@?0A@EA@ctype_base@std@@8 1005ca3c     libcpmt:cout.obj
 0002:0000ea58       ??_R4?$ctype@D@std@@6B@    1005ca58     libcpmt:cout.obj
 0002:0000ea6c       ??_R3?$ctype@D@std@@8      1005ca6c     libcpmt:cout.obj
 0002:0000ea7c       ??_R2?$ctype@D@std@@8      1005ca7c     libcpmt:cout.obj
 0002:0000ea94       ??_R1A@?0A@EA@?$ctype@D@std@@8 1005ca94     libcpmt:cout.obj
 0002:0000eab0       ??_R4_Iostream_error_category@std@@6B@ 1005cab0     libcpmt:cout.obj
 0002:0000eac4       ??_R3_Iostream_error_category@std@@8 1005cac4     libcpmt:cout.obj
 0002:0000ead4       ??_R2_Iostream_error_category@std@@8 1005cad4     libcpmt:cout.obj
 0002:0000eae4       ??_R1A@?0A@EA@_Iostream_error_category@std@@8 1005cae4     libcpmt:cout.obj
 0002:0000eb00       ??_R4failure@ios_base@std@@6B@ 1005cb00     libcpmt:cout.obj
 0002:0000eb14       ??_R3failure@ios_base@std@@8 1005cb14     libcpmt:cout.obj
 0002:0000eb24       ??_R2failure@ios_base@std@@8 1005cb24     libcpmt:cout.obj
 0002:0000eb3c       ??_R1A@?0A@EA@failure@ios_base@std@@8 1005cb3c     libcpmt:cout.obj
 0002:0000eb58       ??_R4?$codecvt@DDU_Mbstatet@@@std@@6B@ 1005cb58     libcpmt:cout.obj
 0002:0000eb6c       ??_R3?$codecvt@DDU_Mbstatet@@@std@@8 1005cb6c     libcpmt:cout.obj
 0002:0000eb7c       ??_R2?$codecvt@DDU_Mbstatet@@@std@@8 1005cb7c     libcpmt:cout.obj
 0002:0000eb94       ??_R1A@?0A@EA@?$codecvt@DDU_Mbstatet@@@std@@8 1005cb94     libcpmt:cout.obj
 0002:0000ebb0       ??_R4_Locimp@locale@std@@6B@ 1005cbb0     libcpmt:locale0.obj
 0002:0000ebc4       ??_R3_Locimp@locale@std@@8 1005cbc4     libcpmt:locale0.obj
 0002:0000ebd4       ??_R2_Locimp@locale@std@@8 1005cbd4     libcpmt:locale0.obj
 0002:0000ebe8       ??_R1A@?0A@EA@_Locimp@locale@std@@8 1005cbe8     libcpmt:locale0.obj
 0002:0000ec04       ??_R4?$num_put@DV?$ostreambuf_iterator@DU?$char_traits@D@std@@@std@@@std@@6B@ 1005cc04     libcpmt:locale.obj
 0002:0000ec18       ??_R3?$num_put@DV?$ostreambuf_iterator@DU?$char_traits@D@std@@@std@@@std@@8 1005cc18     libcpmt:locale.obj
 0002:0000ec28       ??_R2?$num_put@DV?$ostreambuf_iterator@DU?$char_traits@D@std@@@std@@@std@@8 1005cc28     libcpmt:locale.obj
 0002:0000ec3c       ??_R1A@?0A@EA@?$num_put@DV?$ostreambuf_iterator@DU?$char_traits@D@std@@@std@@@std@@8 1005cc3c     libcpmt:locale.obj
 0002:0000ec58       ??_R4?$numpunct@D@std@@6B@ 1005cc58     libcpmt:locale.obj
 0002:0000ec6c       ??_R3?$numpunct@D@std@@8   1005cc6c     libcpmt:locale.obj
 0002:0000ec7c       ??_R2?$numpunct@D@std@@8   1005cc7c     libcpmt:locale.obj
 0002:0000ec90       ??_R1A@?0A@EA@?$numpunct@D@std@@8 1005cc90     libcpmt:locale.obj
 0002:0000ecac       ??_R4type_info@@6B@        1005ccac     LIBCMT:std_type_info_static.obj
 0002:0000ecc0       ??_R3type_info@@8          1005ccc0     LIBCMT:std_type_info_static.obj
 0002:0000ecd0       ??_R2type_info@@8          1005ccd0     LIBCMT:std_type_info_static.obj
 0002:0000ecd8       ??_R1A@?0A@EA@type_info@@8 1005ccd8     LIBCMT:std_type_info_static.obj
 0002:0000ecf4       ??_R4bad_array_new_length@std@@6B@ 1005ccf4     LIBCMT:throw_bad_alloc.obj
 0002:0000ed08       ??_R3bad_array_new_length@std@@8 1005cd08     LIBCMT:throw_bad_alloc.obj
 0002:0000ed18       ??_R2bad_array_new_length@std@@8 1005cd18     LIBCMT:throw_bad_alloc.obj
 0002:0000ed28       ??_R1A@?0A@EA@bad_array_new_length@std@@8 1005cd28     LIBCMT:throw_bad_alloc.obj
 0002:0000ed44       ??_R4improper_lock@Concurrency@@6B@ 1005cd44     libconcrt:rtlocks.obj
 0002:0000ed58       ??_R3improper_lock@Concurrency@@8 1005cd58     libconcrt:rtlocks.obj
 0002:0000ed68       ??_R2improper_lock@Concurrency@@8 1005cd68     libconcrt:rtlocks.obj
 0002:0000ed74       ??_R1A@?0A@EA@improper_lock@Concurrency@@8 1005cd74     libconcrt:rtlocks.obj
 0002:0000ed90       ??_R4scheduler_resource_allocation_error@Concurrency@@6B@ 1005cd90     libconcrt:Platform.obj
 0002:0000eda4       ??_R3scheduler_resource_allocation_error@Concurrency@@8 1005cda4     libconcrt:Platform.obj
 0002:0000edb4       ??_R2scheduler_resource_allocation_error@Concurrency@@8 1005cdb4     libconcrt:Platform.obj
 0002:0000edc0       ??_R1A@?0A@EA@scheduler_resource_allocation_error@Concurrency@@8 1005cdc0     libconcrt:Platform.obj
 0002:0000eddc       ??_R4scheduler_worker_creation_error@Concurrency@@6B@ 1005cddc     libconcrt:Exceptions.obj
 0002:0000edf0       ??_R3scheduler_worker_creation_error@Concurrency@@8 1005cdf0     libconcrt:Exceptions.obj
 0002:0000ee00       ??_R2scheduler_worker_creation_error@Concurrency@@8 1005ce00     libconcrt:Exceptions.obj
 0002:0000ee10       ??_R1A@?0A@EA@scheduler_worker_creation_error@Concurrency@@8 1005ce10     libconcrt:Exceptions.obj
 0002:0000ee2c       ??_R4unsupported_os@Concurrency@@6B@ 1005ce2c     libconcrt:Exceptions.obj
 0002:0000ee40       ??_R3unsupported_os@Concurrency@@8 1005ce40     libconcrt:Exceptions.obj
 0002:0000ee50       ??_R2unsupported_os@Concurrency@@8 1005ce50     libconcrt:Exceptions.obj
 0002:0000ee5c       ??_R1A@?0A@EA@unsupported_os@Concurrency@@8 1005ce5c     libconcrt:Exceptions.obj
 0002:0000ee78       ??_R4improper_scheduler_attach@Concurrency@@6B@ 1005ce78     libconcrt:Exceptions.obj
 0002:0000ee8c       ??_R3improper_scheduler_attach@Concurrency@@8 1005ce8c     libconcrt:Exceptions.obj
 0002:0000ee9c       ??_R2improper_scheduler_attach@Concurrency@@8 1005ce9c     libconcrt:Exceptions.obj
 0002:0000eea8       ??_R1A@?0A@EA@improper_scheduler_attach@Concurrency@@8 1005cea8     libconcrt:Exceptions.obj
 0002:0000eec4       ??_R4improper_scheduler_reference@Concurrency@@6B@ 1005cec4     libconcrt:Exceptions.obj
 0002:0000eed8       ??_R3improper_scheduler_reference@Concurrency@@8 1005ced8     libconcrt:Exceptions.obj
 0002:0000eee8       ??_R2improper_scheduler_reference@Concurrency@@8 1005cee8     libconcrt:Exceptions.obj
 0002:0000eef4       ??_R1A@?0A@EA@improper_scheduler_reference@Concurrency@@8 1005cef4     libconcrt:Exceptions.obj
 0002:0000ef10       ??_R4context_unblock_unbalanced@Concurrency@@6B@ 1005cf10     libconcrt:Exceptions.obj
 0002:0000ef24       ??_R3context_unblock_unbalanced@Concurrency@@8 1005cf24     libconcrt:Exceptions.obj
 0002:0000ef34       ??_R2context_unblock_unbalanced@Concurrency@@8 1005cf34     libconcrt:Exceptions.obj
 0002:0000ef40       ??_R1A@?0A@EA@context_unblock_unbalanced@Concurrency@@8 1005cf40     libconcrt:Exceptions.obj
 0002:0000ef5c       ??_R4context_self_unblock@Concurrency@@6B@ 1005cf5c     libconcrt:Exceptions.obj
 0002:0000ef70       ??_R3context_self_unblock@Concurrency@@8 1005cf70     libconcrt:Exceptions.obj
 0002:0000ef80       ??_R2context_self_unblock@Concurrency@@8 1005cf80     libconcrt:Exceptions.obj
 0002:0000ef8c       ??_R1A@?0A@EA@context_self_unblock@Concurrency@@8 1005cf8c     libconcrt:Exceptions.obj
 0002:0000efa8       ??_R4missing_wait@Concurrency@@6B@ 1005cfa8     libconcrt:Exceptions.obj
 0002:0000efbc       ??_R3missing_wait@Concurrency@@8 1005cfbc     libconcrt:Exceptions.obj
 0002:0000efcc       ??_R2missing_wait@Concurrency@@8 1005cfcc     libconcrt:Exceptions.obj
 0002:0000efd8       ??_R1A@?0A@EA@missing_wait@Concurrency@@8 1005cfd8     libconcrt:Exceptions.obj
 0002:0000eff4       ??_R4invalid_scheduler_policy_key@Concurrency@@6B@ 1005cff4     libconcrt:Exceptions.obj
 0002:0000f008       ??_R3invalid_scheduler_policy_key@Concurrency@@8 1005d008     libconcrt:Exceptions.obj
 0002:0000f018       ??_R2invalid_scheduler_policy_key@Concurrency@@8 1005d018     libconcrt:Exceptions.obj
 0002:0000f024       ??_R1A@?0A@EA@invalid_scheduler_policy_key@Concurrency@@8 1005d024     libconcrt:Exceptions.obj
 0002:0000f040       ??_R4invalid_scheduler_policy_value@Concurrency@@6B@ 1005d040     libconcrt:Exceptions.obj
 0002:0000f054       ??_R3invalid_scheduler_policy_value@Concurrency@@8 1005d054     libconcrt:Exceptions.obj
 0002:0000f064       ??_R2invalid_scheduler_policy_value@Concurrency@@8 1005d064     libconcrt:Exceptions.obj
 0002:0000f070       ??_R1A@?0A@EA@invalid_scheduler_policy_value@Concurrency@@8 1005d070     libconcrt:Exceptions.obj
 0002:0000f08c       ??_R4invalid_scheduler_policy_thread_specification@Concurrency@@6B@ 1005d08c     libconcrt:Exceptions.obj
 0002:0000f0a0       ??_R3invalid_scheduler_policy_thread_specification@Concurrency@@8 1005d0a0     libconcrt:Exceptions.obj
 0002:0000f0b0       ??_R2invalid_scheduler_policy_thread_specification@Concurrency@@8 1005d0b0     libconcrt:Exceptions.obj
 0002:0000f0bc       ??_R1A@?0A@EA@invalid_scheduler_policy_thread_specification@Concurrency@@8 1005d0bc     libconcrt:Exceptions.obj
 0002:0000f0d8       ??_R4nested_scheduler_missing_detach@Concurrency@@6B@ 1005d0d8     libconcrt:Exceptions.obj
 0002:0000f0ec       ??_R3nested_scheduler_missing_detach@Concurrency@@8 1005d0ec     libconcrt:Exceptions.obj
 0002:0000f0fc       ??_R2nested_scheduler_missing_detach@Concurrency@@8 1005d0fc     libconcrt:Exceptions.obj
 0002:0000f108       ??_R1A@?0A@EA@nested_scheduler_missing_detach@Concurrency@@8 1005d108     libconcrt:Exceptions.obj
 0002:0000f124       ??_R4invalid_oversubscribe_operation@Concurrency@@6B@ 1005d124     libconcrt:Exceptions.obj
 0002:0000f138       ??_R3invalid_oversubscribe_operation@Concurrency@@8 1005d138     libconcrt:Exceptions.obj
 0002:0000f148       ??_R2invalid_oversubscribe_operation@Concurrency@@8 1005d148     libconcrt:Exceptions.obj
 0002:0000f154       ??_R1A@?0A@EA@invalid_oversubscribe_operation@Concurrency@@8 1005d154     libconcrt:Exceptions.obj
 0002:0000f170       ??_R4ResourceManager@details@Concurrency@@6B@ 1005d170     libconcrt:ResourceManager.obj
 0002:0000f184       ??_R3ResourceManager@details@Concurrency@@8 1005d184     libconcrt:ResourceManager.obj
 0002:0000f194       ??_R2ResourceManager@details@Concurrency@@8 1005d194     libconcrt:ResourceManager.obj
 0002:0000f1a0       ??_R1A@?0A@EA@ResourceManager@details@Concurrency@@8 1005d1a0     libconcrt:ResourceManager.obj
 0002:0000f1bc       ??_R1A@?0A@EA@IResourceManager@Concurrency@@8 1005d1bc     libconcrt:ResourceManager.obj
 0002:0000f1d8       ??_R3IResourceManager@Concurrency@@8 1005d1d8     libconcrt:ResourceManager.obj
 0002:0000f1e8       ??_R2IResourceManager@Concurrency@@8 1005d1e8     libconcrt:ResourceManager.obj
 0002:0000f1f0       ??_R4invalid_operation@Concurrency@@6B@ 1005d1f0     libconcrt:ResourceManager.obj
 0002:0000f204       ??_R3invalid_operation@Concurrency@@8 1005d204     libconcrt:ResourceManager.obj
 0002:0000f214       ??_R2invalid_operation@Concurrency@@8 1005d214     libconcrt:ResourceManager.obj
 0002:0000f220       ??_R1A@?0A@EA@invalid_operation@Concurrency@@8 1005d220     libconcrt:ResourceManager.obj
 0002:0000f23c       ??_R3ITopologyExecutionResource@Concurrency@@8 1005d23c     libconcrt:ResourceManager.obj
 0002:0000f24c       ??_R2ITopologyExecutionResource@Concurrency@@8 1005d24c     libconcrt:ResourceManager.obj
 0002:0000f254       ??_R1A@?0A@EA@ITopologyExecutionResource@Concurrency@@8 1005d254     libconcrt:ResourceManager.obj
 0002:0000f270       ??_R3ITopologyNode@Concurrency@@8 1005d270     libconcrt:ResourceManager.obj
 0002:0000f280       ??_R2ITopologyNode@Concurrency@@8 1005d280     libconcrt:ResourceManager.obj
 0002:0000f288       ??_R1A@?0A@EA@ITopologyNode@Concurrency@@8 1005d288     libconcrt:ResourceManager.obj
 0002:0000f2a4       ??_R4TopologyObject@GlobalCore@details@Concurrency@@6B@ 1005d2a4     libconcrt:ResourceManager.obj
 0002:0000f2b8       ??_R3TopologyObject@GlobalCore@details@Concurrency@@8 1005d2b8     libconcrt:ResourceManager.obj
 0002:0000f2c8       ??_R2TopologyObject@GlobalCore@details@Concurrency@@8 1005d2c8     libconcrt:ResourceManager.obj
 0002:0000f2d4       ??_R1A@?0A@EA@TopologyObject@GlobalCore@details@Concurrency@@8 1005d2d4     libconcrt:ResourceManager.obj
 0002:0000f2f0       ??_R4TopologyObject@GlobalNode@details@Concurrency@@6B@ 1005d2f0     libconcrt:ResourceManager.obj
 0002:0000f304       ??_R3TopologyObject@GlobalNode@details@Concurrency@@8 1005d304     libconcrt:ResourceManager.obj
 0002:0000f314       ??_R2TopologyObject@GlobalNode@details@Concurrency@@8 1005d314     libconcrt:ResourceManager.obj
 0002:0000f320       ??_R1A@?0A@EA@TopologyObject@GlobalNode@details@Concurrency@@8 1005d320     libconcrt:ResourceManager.obj
 0002:0000f33c       ??_R3ScheduleGroupBase@details@Concurrency@@8 1005d33c     libconcrt:SchedulerBase.obj
 0002:0000f34c       ??_R2ScheduleGroupBase@details@Concurrency@@8 1005d34c     libconcrt:SchedulerBase.obj
 0002:0000f358       ??_R1A@?0A@EA@ScheduleGroupBase@details@Concurrency@@8 1005d358     libconcrt:SchedulerBase.obj
 0002:0000f374       ??_R1A@?0A@EA@ScheduleGroup@Concurrency@@8 1005d374     libconcrt:SchedulerBase.obj
 0002:0000f390       ??_R3ScheduleGroup@Concurrency@@8 1005d390     libconcrt:SchedulerBase.obj
 0002:0000f3a0       ??_R2ScheduleGroup@Concurrency@@8 1005d3a0     libconcrt:SchedulerBase.obj
 0002:0000f3a8       ??_R4CacheLocalScheduleGroup@details@Concurrency@@6B@ 1005d3a8     libconcrt:SchedulerBase.obj
 0002:0000f3bc       ??_R3CacheLocalScheduleGroup@details@Concurrency@@8 1005d3bc     libconcrt:SchedulerBase.obj
 0002:0000f3cc       ??_R2CacheLocalScheduleGroup@details@Concurrency@@8 1005d3cc     libconcrt:SchedulerBase.obj
 0002:0000f3dc       ??_R1A@?0A@EA@CacheLocalScheduleGroup@details@Concurrency@@8 1005d3dc     libconcrt:SchedulerBase.obj
 0002:0000f3f8       ??_R4FairScheduleGroup@details@Concurrency@@6B@ 1005d3f8     libconcrt:SchedulerBase.obj
 0002:0000f40c       ??_R3FairScheduleGroup@details@Concurrency@@8 1005d40c     libconcrt:SchedulerBase.obj
 0002:0000f41c       ??_R2FairScheduleGroup@details@Concurrency@@8 1005d41c     libconcrt:SchedulerBase.obj
 0002:0000f42c       ??_R1A@?0A@EA@FairScheduleGroup@details@Concurrency@@8 1005d42c     libconcrt:SchedulerBase.obj
 0002:0000f448       ??_R4SchedulerBase@details@Concurrency@@6B@ 1005d448     libconcrt:SchedulerBase.obj
 0002:0000f45c       ??_R3SchedulerBase@details@Concurrency@@8 1005d45c     libconcrt:SchedulerBase.obj
 0002:0000f46c       ??_R2SchedulerBase@details@Concurrency@@8 1005d46c     libconcrt:SchedulerBase.obj
 0002:0000f478       ??_R1A@?0A@EA@SchedulerBase@details@Concurrency@@8 1005d478     libconcrt:SchedulerBase.obj
 0002:0000f494       ??_R1A@?0A@EA@Scheduler@Concurrency@@8 1005d494     libconcrt:SchedulerBase.obj
 0002:0000f4b0       ??_R3Scheduler@Concurrency@@8 1005d4b0     libconcrt:SchedulerBase.obj
 0002:0000f4c0       ??_R2Scheduler@Concurrency@@8 1005d4c0     libconcrt:SchedulerBase.obj
 0002:0000f4c8       ??_R1A@?0A@EA@_Chore@details@Concurrency@@8 1005d4c8     libconcrt:SchedulerBase.obj
 0002:0000f4e4       ??_R3_Chore@details@Concurrency@@8 1005d4e4     libconcrt:SchedulerBase.obj
 0002:0000f4f4       ??_R2_Chore@details@Concurrency@@8 1005d4f4     libconcrt:SchedulerBase.obj
 0002:0000f4fc       ??_R4Scheduler@Concurrency@@6B@ 1005d4fc     libconcrt:SchedulerBase.obj
 0002:0000f510       ??_R4ScheduleGroup@Concurrency@@6B@ 1005d510     libconcrt:SchedulerBase.obj
 0002:0000f524       ??_R4_Chore@details@Concurrency@@6B@ 1005d524     libconcrt:SchedulerBase.obj
 0002:0000f538       ??_R4RealizedChore@details@Concurrency@@6B@ 1005d538     libconcrt:SchedulerBase.obj
 0002:0000f54c       ??_R3RealizedChore@details@Concurrency@@8 1005d54c     libconcrt:SchedulerBase.obj
 0002:0000f55c       ??_R2RealizedChore@details@Concurrency@@8 1005d55c     libconcrt:SchedulerBase.obj
 0002:0000f568       ??_R1A@?0A@EA@RealizedChore@details@Concurrency@@8 1005d568     libconcrt:SchedulerBase.obj
 0002:0000f584       ??_R4CacheLocalScheduleGroupSegment@details@Concurrency@@6B@ 1005d584     libconcrt:SchedulerBase.obj
 0002:0000f598       ??_R3CacheLocalScheduleGroupSegment@details@Concurrency@@8 1005d598     libconcrt:SchedulerBase.obj
 0002:0000f5a8       ??_R2CacheLocalScheduleGroupSegment@details@Concurrency@@8 1005d5a8     libconcrt:SchedulerBase.obj
 0002:0000f5b4       ??_R1A@?0A@EA@CacheLocalScheduleGroupSegment@details@Concurrency@@8 1005d5b4     libconcrt:SchedulerBase.obj
 0002:0000f5d0       ??_R1A@?0A@EA@ScheduleGroupSegmentBase@details@Concurrency@@8 1005d5d0     libconcrt:SchedulerBase.obj
 0002:0000f5ec       ??_R3ScheduleGroupSegmentBase@details@Concurrency@@8 1005d5ec     libconcrt:SchedulerBase.obj
 0002:0000f5fc       ??_R2ScheduleGroupSegmentBase@details@Concurrency@@8 1005d5fc     libconcrt:SchedulerBase.obj
 0002:0000f604       ??_R4FairScheduleGroupSegment@details@Concurrency@@6B@ 1005d604     libconcrt:SchedulerBase.obj
 0002:0000f618       ??_R3FairScheduleGroupSegment@details@Concurrency@@8 1005d618     libconcrt:SchedulerBase.obj
 0002:0000f628       ??_R2FairScheduleGroupSegment@details@Concurrency@@8 1005d628     libconcrt:SchedulerBase.obj
 0002:0000f634       ??_R1A@?0A@EA@FairScheduleGroupSegment@details@Concurrency@@8 1005d634     libconcrt:SchedulerBase.obj
 0002:0000f650       ??_R4WaitBlock@details@Concurrency@@6B@ 1005d650     libconcrt:event.obj
 0002:0000f664       ??_R3WaitBlock@details@Concurrency@@8 1005d664     libconcrt:event.obj
 0002:0000f674       ??_R2WaitBlock@details@Concurrency@@8 1005d674     libconcrt:event.obj
 0002:0000f67c       ??_R1A@?0A@EA@WaitBlock@details@Concurrency@@8 1005d67c     libconcrt:event.obj
 0002:0000f698       ??_R4SingleWaitBlock@details@Concurrency@@6B@ 1005d698     libconcrt:event.obj
 0002:0000f6ac       ??_R3SingleWaitBlock@details@Concurrency@@8 1005d6ac     libconcrt:event.obj
 0002:0000f6bc       ??_R2SingleWaitBlock@details@Concurrency@@8 1005d6bc     libconcrt:event.obj
 0002:0000f6c8       ??_R1A@?0A@EA@SingleWaitBlock@details@Concurrency@@8 1005d6c8     libconcrt:event.obj
 0002:0000f6e4       ??_R4MultiWaitBlock@details@Concurrency@@6B@ 1005d6e4     libconcrt:event.obj
 0002:0000f6f8       ??_R3MultiWaitBlock@details@Concurrency@@8 1005d6f8     libconcrt:event.obj
 0002:0000f708       ??_R2MultiWaitBlock@details@Concurrency@@8 1005d708     libconcrt:event.obj
 0002:0000f714       ??_R1A@?0A@EA@MultiWaitBlock@details@Concurrency@@8 1005d714     libconcrt:event.obj
 0002:0000f730       ??_R4WaitAllBlock@details@Concurrency@@6B@ 1005d730     libconcrt:event.obj
 0002:0000f744       ??_R3WaitAllBlock@details@Concurrency@@8 1005d744     libconcrt:event.obj
 0002:0000f754       ??_R2WaitAllBlock@details@Concurrency@@8 1005d754     libconcrt:event.obj
 0002:0000f764       ??_R1A@?0A@EA@WaitAllBlock@details@Concurrency@@8 1005d764     libconcrt:event.obj
 0002:0000f780       ??_R4WaitAnyBlock@details@Concurrency@@6B@ 1005d780     libconcrt:event.obj
 0002:0000f794       ??_R3WaitAnyBlock@details@Concurrency@@8 1005d794     libconcrt:event.obj
 0002:0000f7a4       ??_R2WaitAnyBlock@details@Concurrency@@8 1005d7a4     libconcrt:event.obj
 0002:0000f7b4       ??_R1A@?0A@EA@WaitAnyBlock@details@Concurrency@@8 1005d7b4     libconcrt:event.obj
 0002:0000f7d0       ??_R4TimedSingleWaitBlock@details@Concurrency@@6B@ 1005d7d0     libconcrt:event.obj
 0002:0000f7e4       ??_R3TimedSingleWaitBlock@details@Concurrency@@8 1005d7e4     libconcrt:event.obj
 0002:0000f7f4       ??_R2TimedSingleWaitBlock@details@Concurrency@@8 1005d7f4     libconcrt:event.obj
 0002:0000f804       ??_R1A@?0A@EA@TimedSingleWaitBlock@details@Concurrency@@8 1005d804     libconcrt:event.obj
 0002:0000f820       ??_R4?$_MallocaArrayHolder@PAVContext@Concurrency@@@details@Concurrency@@6B@ 1005d820     libconcrt:event.obj
 0002:0000f834       ??_R3?$_MallocaArrayHolder@PAVContext@Concurrency@@@details@Concurrency@@8 1005d834     libconcrt:event.obj
 0002:0000f844       ??_R2?$_MallocaArrayHolder@PAVContext@Concurrency@@@details@Concurrency@@8 1005d844     libconcrt:event.obj
 0002:0000f84c       ??_R1A@?0A@EA@?$_MallocaArrayHolder@PAVContext@Concurrency@@@details@Concurrency@@8 1005d84c     libconcrt:event.obj
 0002:0000f868       ??_R4ContextBase@details@Concurrency@@6B@ 1005d868     libconcrt:ContextBase.obj
 0002:0000f87c       ??_R3ContextBase@details@Concurrency@@8 1005d87c     libconcrt:ContextBase.obj
 0002:0000f88c       ??_R2ContextBase@details@Concurrency@@8 1005d88c     libconcrt:ContextBase.obj
 0002:0000f898       ??_R1A@?0A@EA@ContextBase@details@Concurrency@@8 1005d898     libconcrt:ContextBase.obj
 0002:0000f8b4       ??_R1A@?0A@EA@Context@Concurrency@@8 1005d8b4     libconcrt:ContextBase.obj
 0002:0000f8d0       ??_R3Context@Concurrency@@8 1005d8d0     libconcrt:ContextBase.obj
 0002:0000f8e0       ??_R2Context@Concurrency@@8 1005d8e0     libconcrt:ContextBase.obj
 0002:0000f8e8       ??_R4Context@Concurrency@@6B@ 1005d8e8     libconcrt:ContextBase.obj
 0002:0000f8fc       ??_R4_Interruption_exception@details@Concurrency@@6B@ 1005d8fc     libconcrt:TaskCollection.obj
 0002:0000f910       ??_R3_Interruption_exception@details@Concurrency@@8 1005d910     libconcrt:TaskCollection.obj
 0002:0000f920       ??_R2_Interruption_exception@details@Concurrency@@8 1005d920     libconcrt:TaskCollection.obj
 0002:0000f92c       ??_R1A@?0A@EA@_Interruption_exception@details@Concurrency@@8 1005d92c     libconcrt:TaskCollection.obj
 0002:0000f948       ??_R1A@?0A@EA@_RefCounter@details@Concurrency@@8 1005d948     libconcrt:TaskCollection.obj
 0002:0000f964       ??_R3_RefCounter@details@Concurrency@@8 1005d964     libconcrt:TaskCollection.obj
 0002:0000f974       ??_R2_RefCounter@details@Concurrency@@8 1005d974     libconcrt:TaskCollection.obj
 0002:0000f97c       ??_R4_CancellationTokenRegistration@details@Concurrency@@6B@ 1005d97c     libconcrt:TaskCollection.obj
 0002:0000f990       ??_R3_CancellationTokenRegistration@details@Concurrency@@8 1005d990     libconcrt:TaskCollection.obj
 0002:0000f9a0       ??_R2_CancellationTokenRegistration@details@Concurrency@@8 1005d9a0     libconcrt:TaskCollection.obj
 0002:0000f9ac       ??_R1A@?0A@EA@_CancellationTokenRegistration@details@Concurrency@@8 1005d9ac     libconcrt:TaskCollection.obj
 0002:0000f9c8       ??_R4_RefCounter@details@Concurrency@@6B@ 1005d9c8     libconcrt:TaskCollection.obj
 0002:0000f9dc       ??_R4CancellationTokenRegistration_TaskProc@details@Concurrency@@6B@ 1005d9dc     libconcrt:TaskCollection.obj
 0002:0000f9f0       ??_R3CancellationTokenRegistration_TaskProc@details@Concurrency@@8 1005d9f0     libconcrt:TaskCollection.obj
 0002:0000fa00       ??_R2CancellationTokenRegistration_TaskProc@details@Concurrency@@8 1005da00     libconcrt:TaskCollection.obj
 0002:0000fa10       ??_R1A@?0A@EA@CancellationTokenRegistration_TaskProc@details@Concurrency@@8 1005da10     libconcrt:TaskCollection.obj
 0002:0000fa2c       ??_R4?$_MallocaArrayHolder@PAVevent@Concurrency@@@details@Concurrency@@6B@ 1005da2c     libconcrt:TaskCollection.obj
 0002:0000fa40       ??_R3?$_MallocaArrayHolder@PAVevent@Concurrency@@@details@Concurrency@@8 1005da40     libconcrt:TaskCollection.obj
 0002:0000fa50       ??_R2?$_MallocaArrayHolder@PAVevent@Concurrency@@@details@Concurrency@@8 1005da50     libconcrt:TaskCollection.obj
 0002:0000fa58       ??_R1A@?0A@EA@?$_MallocaArrayHolder@PAVevent@Concurrency@@@details@Concurrency@@8 1005da58     libconcrt:TaskCollection.obj
 0002:0000fa74       ??_R4ExecutionResource@details@Concurrency@@6B@ 1005da74     libconcrt:ExecutionResource.obj
 0002:0000fa88       ??_R3ExecutionResource@details@Concurrency@@8 1005da88     libconcrt:ExecutionResource.obj
 0002:0000fa98       ??_R2ExecutionResource@details@Concurrency@@8 1005da98     libconcrt:ExecutionResource.obj
 0002:0000faa4       ??_R1A@?0A@EA@ExecutionResource@details@Concurrency@@8 1005daa4     libconcrt:ExecutionResource.obj
 0002:0000fac0       ??_R1A@?0A@EA@IExecutionResource@Concurrency@@8 1005dac0     libconcrt:ExecutionResource.obj
 0002:0000fadc       ??_R3IExecutionResource@Concurrency@@8 1005dadc     libconcrt:ExecutionResource.obj
 0002:0000faec       ??_R2IExecutionResource@Concurrency@@8 1005daec     libconcrt:ExecutionResource.obj
 0002:0000faf4       ??_R4SchedulerProxy@details@Concurrency@@6B@ 1005daf4     libconcrt:SchedulerProxy.obj
 0002:0000fb08       ??_R3SchedulerProxy@details@Concurrency@@8 1005db08     libconcrt:SchedulerProxy.obj
 0002:0000fb18       ??_R2SchedulerProxy@details@Concurrency@@8 1005db18     libconcrt:SchedulerProxy.obj
 0002:0000fb24       ??_R1A@?0A@EA@SchedulerProxy@details@Concurrency@@8 1005db24     libconcrt:SchedulerProxy.obj
 0002:0000fb40       ??_R1A@?0A@EA@ISchedulerProxy@Concurrency@@8 1005db40     libconcrt:SchedulerProxy.obj
 0002:0000fb5c       ??_R3ISchedulerProxy@Concurrency@@8 1005db5c     libconcrt:SchedulerProxy.obj
 0002:0000fb6c       ??_R2ISchedulerProxy@Concurrency@@8 1005db6c     libconcrt:SchedulerProxy.obj
 0002:0000fb74       ??_R4FreeThreadProxy@details@Concurrency@@6B@ 1005db74     libconcrt:ThreadProxyFactoryManager.obj
 0002:0000fb88       ??_R3FreeThreadProxy@details@Concurrency@@8 1005db88     libconcrt:ThreadProxyFactoryManager.obj
 0002:0000fb98       ??_R2FreeThreadProxy@details@Concurrency@@8 1005db98     libconcrt:ThreadProxyFactoryManager.obj
 0002:0000fba8       ??_R1A@?0A@EA@FreeThreadProxy@details@Concurrency@@8 1005dba8     libconcrt:ThreadProxyFactoryManager.obj
 0002:0000fbc4       ??_R1A@?0A@EA@ThreadProxy@details@Concurrency@@8 1005dbc4     libconcrt:ThreadProxyFactoryManager.obj
 0002:0000fbe0       ??_R3ThreadProxy@details@Concurrency@@8 1005dbe0     libconcrt:ThreadProxyFactoryManager.obj
 0002:0000fbf0       ??_R2ThreadProxy@details@Concurrency@@8 1005dbf0     libconcrt:ThreadProxyFactoryManager.obj
 0002:0000fbfc       ??_R1A@?0A@EA@IThreadProxy@Concurrency@@8 1005dbfc     libconcrt:ThreadProxyFactoryManager.obj
 0002:0000fc18       ??_R3IThreadProxy@Concurrency@@8 1005dc18     libconcrt:ThreadProxyFactoryManager.obj
 0002:0000fc28       ??_R2IThreadProxy@Concurrency@@8 1005dc28     libconcrt:ThreadProxyFactoryManager.obj
 0002:0000fc30       ??_R4IThreadProxyFactory@details@Concurrency@@6B@ 1005dc30     libconcrt:ThreadProxyFactoryManager.obj
 0002:0000fc44       ??_R3IThreadProxyFactory@details@Concurrency@@8 1005dc44     libconcrt:ThreadProxyFactoryManager.obj
 0002:0000fc54       ??_R2IThreadProxyFactory@details@Concurrency@@8 1005dc54     libconcrt:ThreadProxyFactoryManager.obj
 0002:0000fc5c       ??_R1A@?0A@EA@IThreadProxyFactory@details@Concurrency@@8 1005dc5c     libconcrt:ThreadProxyFactoryManager.obj
 0002:0000fc78       ??_R4FreeThreadProxyFactory@details@Concurrency@@6B@ 1005dc78     libconcrt:ThreadProxyFactoryManager.obj
 0002:0000fc8c       ??_R3FreeThreadProxyFactory@details@Concurrency@@8 1005dc8c     libconcrt:ThreadProxyFactoryManager.obj
 0002:0000fc9c       ??_R2FreeThreadProxyFactory@details@Concurrency@@8 1005dc9c     libconcrt:ThreadProxyFactoryManager.obj
 0002:0000fcac       ??_R1A@?0A@EA@FreeThreadProxyFactory@details@Concurrency@@8 1005dcac     libconcrt:ThreadProxyFactoryManager.obj
 0002:0000fcc8       ??_R1A@?0A@EA@?$ThreadProxyFactory@VFreeThreadProxy@details@Concurrency@@@details@Concurrency@@8 1005dcc8     libconcrt:ThreadProxyFactoryManager.obj
 0002:0000fce4       ??_R3?$ThreadProxyFactory@VFreeThreadProxy@details@Concurrency@@@details@Concurrency@@8 1005dce4     libconcrt:ThreadProxyFactoryManager.obj
 0002:0000fcf4       ??_R2?$ThreadProxyFactory@VFreeThreadProxy@details@Concurrency@@@details@Concurrency@@8 1005dcf4     libconcrt:ThreadProxyFactoryManager.obj
 0002:0000fd00       ??_R4?$ThreadProxyFactory@VFreeThreadProxy@details@Concurrency@@@details@Concurrency@@6B@ 1005dd00     libconcrt:ThreadProxyFactoryManager.obj
 0002:0000fd14       ??_R4VirtualProcessor@details@Concurrency@@6B@ 1005dd14     libconcrt:VirtualProcessor.obj
 0002:0000fd28       ??_R3VirtualProcessor@details@Concurrency@@8 1005dd28     libconcrt:VirtualProcessor.obj
 0002:0000fd38       ??_R2VirtualProcessor@details@Concurrency@@8 1005dd38     libconcrt:VirtualProcessor.obj
 0002:0000fd40       ??_R1A@?0A@EA@VirtualProcessor@details@Concurrency@@8 1005dd40     libconcrt:VirtualProcessor.obj
 0002:0000fd5c       ??_R4InternalContextBase@details@Concurrency@@6BIExecutionContext@2@@ 1005dd5c     libconcrt:InternalContextBase.obj
 0002:0000fd70       ??_R3InternalContextBase@details@Concurrency@@8 1005dd70     libconcrt:InternalContextBase.obj
 0002:0000fd80       ??_R2InternalContextBase@details@Concurrency@@8 1005dd80     libconcrt:InternalContextBase.obj
 0002:0000fd94       ??_R1A@?0A@EA@InternalContextBase@details@Concurrency@@8 1005dd94     libconcrt:InternalContextBase.obj
 0002:0000fdb0       ??_R1A@?0A@EA@IExecutionContext@Concurrency@@8 1005ddb0     libconcrt:InternalContextBase.obj
 0002:0000fdcc       ??_R3IExecutionContext@Concurrency@@8 1005ddcc     libconcrt:InternalContextBase.obj
 0002:0000fddc       ??_R2IExecutionContext@Concurrency@@8 1005dddc     libconcrt:InternalContextBase.obj
 0002:0000fde4       ??_R13?0A@EA@ContextBase@details@Concurrency@@8 1005dde4     libconcrt:InternalContextBase.obj
 0002:0000fe00       ??_R13?0A@EA@Context@Concurrency@@8 1005de00     libconcrt:InternalContextBase.obj
 0002:0000fe1c       ??_R4InternalContextBase@details@Concurrency@@6BContextBase@12@@ 1005de1c     libconcrt:InternalContextBase.obj
 0002:0000fe30       ??_R4IExecutionContext@Concurrency@@6B@ 1005de30     libconcrt:InternalContextBase.obj
 0002:0000fe44       ??_R4ScheduleGroupBase@details@Concurrency@@6B@ 1005de44     libconcrt:ScheduleGroupBase.obj
 0002:0000fe58       ??_R4ScheduleGroupSegmentBase@details@Concurrency@@6B@ 1005de58     libconcrt:ScheduleGroupBase.obj
 0002:0000fe6c       ??_R4ExternalContextBase@details@Concurrency@@6B@ 1005de6c     libconcrt:ExternalContextBase.obj
 0002:0000fe80       ??_R3ExternalContextBase@details@Concurrency@@8 1005de80     libconcrt:ExternalContextBase.obj
 0002:0000fe90       ??_R2ExternalContextBase@details@Concurrency@@8 1005de90     libconcrt:ExternalContextBase.obj
 0002:0000fea0       ??_R1A@?0A@EA@ExternalContextBase@details@Concurrency@@8 1005dea0     libconcrt:ExternalContextBase.obj
 0002:0000febc       ??_R4ThreadScheduler@details@Concurrency@@6BIScheduler@2@@ 1005debc     libconcrt:ThreadScheduler.obj
 0002:0000fed0       ??_R3ThreadScheduler@details@Concurrency@@8 1005ded0     libconcrt:ThreadScheduler.obj
 0002:0000fee0       ??_R2ThreadScheduler@details@Concurrency@@8 1005dee0     libconcrt:ThreadScheduler.obj
 0002:0000fef4       ??_R1A@?0A@EA@ThreadScheduler@details@Concurrency@@8 1005def4     libconcrt:ThreadScheduler.obj
 0002:0000ff10       ??_R1A@?0A@EA@IScheduler@Concurrency@@8 1005df10     libconcrt:ThreadScheduler.obj
 0002:0000ff2c       ??_R3IScheduler@Concurrency@@8 1005df2c     libconcrt:ThreadScheduler.obj
 0002:0000ff3c       ??_R2IScheduler@Concurrency@@8 1005df3c     libconcrt:ThreadScheduler.obj
 0002:0000ff44       ??_R17?0A@EA@SchedulerBase@details@Concurrency@@8 1005df44     libconcrt:ThreadScheduler.obj
 0002:0000ff60       ??_R17?0A@EA@Scheduler@Concurrency@@8 1005df60     libconcrt:ThreadScheduler.obj
 0002:0000ff7c       ??_R4ThreadScheduler@details@Concurrency@@6BSchedulerBase@12@@ 1005df7c     libconcrt:ThreadScheduler.obj
 0002:0000ff90       ??_R4IScheduler@Concurrency@@6B@ 1005df90     libconcrt:ThreadScheduler.obj
 0002:0000ffa4       ??_R4ThreadInternalContext@details@Concurrency@@6BIExecutionContext@2@@ 1005dfa4     libconcrt:ThreadScheduler.obj
 0002:0000ffb8       ??_R3ThreadInternalContext@details@Concurrency@@8 1005dfb8     libconcrt:ThreadScheduler.obj
 0002:0000ffc8       ??_R2ThreadInternalContext@details@Concurrency@@8 1005dfc8     libconcrt:ThreadScheduler.obj
 0002:0000ffe0       ??_R1A@?0A@EA@ThreadInternalContext@details@Concurrency@@8 1005dfe0     libconcrt:ThreadScheduler.obj
 0002:0000fffc       ??_R4ThreadInternalContext@details@Concurrency@@6BContextBase@12@@ 1005dffc     libconcrt:ThreadScheduler.obj
 0002:00010010       ??_R4VirtualProcessorRoot@details@Concurrency@@6B@ 1005e010     libconcrt:VirtualProcessorRoot.obj
 0002:00010024       ??_R3VirtualProcessorRoot@details@Concurrency@@8 1005e024     libconcrt:VirtualProcessorRoot.obj
 0002:00010034       ??_R2VirtualProcessorRoot@details@Concurrency@@8 1005e034     libconcrt:VirtualProcessorRoot.obj
 0002:00010044       ??_R1A@?0A@EA@VirtualProcessorRoot@details@Concurrency@@8 1005e044     libconcrt:VirtualProcessorRoot.obj
 0002:00010060       ??_R1A@?0A@EA@IVirtualProcessorRoot@Concurrency@@8 1005e060     libconcrt:VirtualProcessorRoot.obj
 0002:0001007c       ??_R3IVirtualProcessorRoot@Concurrency@@8 1005e07c     libconcrt:VirtualProcessorRoot.obj
 0002:0001008c       ??_R2IVirtualProcessorRoot@Concurrency@@8 1005e08c     libconcrt:VirtualProcessorRoot.obj
 0002:00010098       ??_R4FreeVirtualProcessorRoot@details@Concurrency@@6B@ 1005e098     libconcrt:FreeVirtualProcessorRoot.obj
 0002:000100ac       ??_R3FreeVirtualProcessorRoot@details@Concurrency@@8 1005e0ac     libconcrt:FreeVirtualProcessorRoot.obj
 0002:000100bc       ??_R2FreeVirtualProcessorRoot@details@Concurrency@@8 1005e0bc     libconcrt:FreeVirtualProcessorRoot.obj
 0002:000100d0       ??_R1A@?0A@EA@FreeVirtualProcessorRoot@details@Concurrency@@8 1005e0d0     libconcrt:FreeVirtualProcessorRoot.obj
 0002:000100ec       ??_R4ThreadProxy@details@Concurrency@@6B@ 1005e0ec     libconcrt:ThreadProxy.obj
 0002:00010100       ??_R4ThreadVirtualProcessor@details@Concurrency@@6B@ 1005e100     libconcrt:ThreadVirtualProcessor.obj
 0002:00010114       ??_R3ThreadVirtualProcessor@details@Concurrency@@8 1005e114     libconcrt:ThreadVirtualProcessor.obj
 0002:00010124       ??_R2ThreadVirtualProcessor@details@Concurrency@@8 1005e124     libconcrt:ThreadVirtualProcessor.obj
 0002:00010130       ??_R1A@?0A@EA@ThreadVirtualProcessor@details@Concurrency@@8 1005e130     libconcrt:ThreadVirtualProcessor.obj
 0002:0001014c       ??_R4bad_exception@std@@6B@ 1005e14c     libvcruntime:frame.obj
 0002:00010160       ??_R3bad_exception@std@@8  1005e160     libvcruntime:frame.obj
 0002:00010170       ??_R2bad_exception@std@@8  1005e170     libvcruntime:frame.obj
 0002:0001017c       ??_R1A@?0A@EA@bad_exception@std@@8 1005e17c     libvcruntime:frame.obj
 0002:00010198       ??_R4bad_typeid@std@@6B@   1005e198     libvcruntime:rtti.obj
 0002:000101ac       ??_R3bad_typeid@std@@8     1005e1ac     libvcruntime:rtti.obj
 0002:000101bc       ??_R2bad_typeid@std@@8     1005e1bc     libvcruntime:rtti.obj
 0002:000101c8       ??_R1A@?0A@EA@bad_typeid@std@@8 1005e1c8     libvcruntime:rtti.obj
 0002:000101e4       ??_R4__non_rtti_object@std@@6B@ 1005e1e4     libvcruntime:rtti.obj
 0002:000101f8       ??_R3__non_rtti_object@std@@8 1005e1f8     libvcruntime:rtti.obj
 0002:00010208       ??_R2__non_rtti_object@std@@8 1005e208     libvcruntime:rtti.obj
 0002:00010218       ??_R1A@?0A@EA@__non_rtti_object@std@@8 1005e218     libvcruntime:rtti.obj
 0002:00010234       ??_R4_Ref_count_base@std@@6B@ 1005e234     libcpmt:excptptr.obj
 0002:00010248       ??_R3_Ref_count_base@std@@8 1005e248     libcpmt:excptptr.obj
 0002:00010258       ??_R2_Ref_count_base@std@@8 1005e258     libcpmt:excptptr.obj
 0002:00010260       ??_R1A@?0A@EA@_Ref_count_base@std@@8 1005e260     libcpmt:excptptr.obj
 0002:0001027c       ??_R4?$_Ref_count_obj_alloc@V__ExceptionPtr@@U?$_StaticAllocator@H@@@std@@6B@ 1005e27c     libcpmt:excptptr.obj
 0002:00010290       ??_R3?$_Ref_count_obj_alloc@V__ExceptionPtr@@U?$_StaticAllocator@H@@@std@@8 1005e290     libcpmt:excptptr.obj
 0002:000102a0       ??_R2?$_Ref_count_obj_alloc@V__ExceptionPtr@@U?$_StaticAllocator@H@@@std@@8 1005e2a0     libcpmt:excptptr.obj
 0002:000102ac       ??_R1A@?0A@EA@?$_Ref_count_obj_alloc@V__ExceptionPtr@@U?$_StaticAllocator@H@@@std@@8 1005e2ac     libcpmt:excptptr.obj
 0002:000102c8       ??_R4?$_Ref_count_obj@V__ExceptionPtr@@@std@@6B@ 1005e2c8     libcpmt:excptptr.obj
 0002:000102dc       ??_R3?$_Ref_count_obj@V__ExceptionPtr@@@std@@8 1005e2dc     libcpmt:excptptr.obj
 0002:000102ec       ??_R2?$_Ref_count_obj@V__ExceptionPtr@@@std@@8 1005e2ec     libcpmt:excptptr.obj
 0002:000102f8       ??_R1A@?0A@EA@?$_Ref_count_obj@V__ExceptionPtr@@@std@@8 1005e2f8     libcpmt:excptptr.obj
 0002:00010314       ??_R3stl_condition_variable_interface@details@Concurrency@@8 1005e314     libcpmt:cond.obj
 0002:00010324       ??_R2stl_condition_variable_interface@details@Concurrency@@8 1005e324     libcpmt:cond.obj
 0002:0001032c       ??_R1A@?0A@EA@stl_condition_variable_interface@details@Concurrency@@8 1005e32c     libcpmt:cond.obj
 0002:00010348       ??_R4stl_condition_variable_vista@details@Concurrency@@6B@ 1005e348     libcpmt:cond.obj
 0002:0001035c       ??_R3stl_condition_variable_vista@details@Concurrency@@8 1005e35c     libcpmt:cond.obj
 0002:0001036c       ??_R2stl_condition_variable_vista@details@Concurrency@@8 1005e36c     libcpmt:cond.obj
 0002:00010378       ??_R1A@?0A@EA@stl_condition_variable_vista@details@Concurrency@@8 1005e378     libcpmt:cond.obj
 0002:00010394       ??_R4stl_condition_variable_win7@details@Concurrency@@6B@ 1005e394     libcpmt:cond.obj
 0002:000103a8       ??_R3stl_condition_variable_win7@details@Concurrency@@8 1005e3a8     libcpmt:cond.obj
 0002:000103b8       ??_R2stl_condition_variable_win7@details@Concurrency@@8 1005e3b8     libcpmt:cond.obj
 0002:000103c4       ??_R1A@?0A@EA@stl_condition_variable_win7@details@Concurrency@@8 1005e3c4     libcpmt:cond.obj
 0002:000103e0       ??_R4stl_condition_variable_concrt@details@Concurrency@@6B@ 1005e3e0     libcpmt:cond.obj
 0002:000103f4       ??_R3stl_condition_variable_concrt@details@Concurrency@@8 1005e3f4     libcpmt:cond.obj
 0002:00010404       ??_R2stl_condition_variable_concrt@details@Concurrency@@8 1005e404     libcpmt:cond.obj
 0002:00010410       ??_R1A@?0A@EA@stl_condition_variable_concrt@details@Concurrency@@8 1005e410     libcpmt:cond.obj
 0002:00010430       ___safe_se_handler_table   1005e430     <linker-defined>
 0002:00010a68       ___rtc_iaa                 1005ea68     LIBCMT:_initsect_.obj
 0002:00010a6c       ___rtc_izz                 1005ea6c     LIBCMT:_initsect_.obj
 0002:00010a70       ___rtc_taa                 1005ea70     LIBCMT:_initsect_.obj
 0002:00010a74       ___rtc_tzz                 1005ea74     LIBCMT:_initsect_.obj
 0002:00010a78       __TI2?AVbad_alloc@std@@    1005ea78     libcpmt:xthrow.obj
 0002:00010a88       __CTA2?AVbad_alloc@std@@   1005ea88     libcpmt:xthrow.obj
 0002:00010a94       __CT??_R0?AVbad_alloc@std@@@8??0bad_alloc@std@@QAE@ABV01@@Z12 1005ea94     libcpmt:xthrow.obj
 0002:00010ab0       __CT??_R0?AVexception@std@@@8??0exception@std@@QAE@ABV01@@Z12 1005eab0     libcpmt:xthrow.obj
 0002:00010acc       __TI3?AVinvalid_argument@std@@ 1005eacc     libcpmt:xthrow.obj
 0002:00010adc       __CTA3?AVinvalid_argument@std@@ 1005eadc     libcpmt:xthrow.obj
 0002:00010aec       __CT??_R0?AVinvalid_argument@std@@@8??0invalid_argument@std@@QAE@ABV01@@Z12 1005eaec     libcpmt:xthrow.obj
 0002:00010b08       __CT??_R0?AVlogic_error@std@@@8??0logic_error@std@@QAE@ABV01@@Z12 1005eb08     libcpmt:xthrow.obj
 0002:00010b24       __TI3?AVlength_error@std@@ 1005eb24     libcpmt:xthrow.obj
 0002:00010b34       __CTA3?AVlength_error@std@@ 1005eb34     libcpmt:xthrow.obj
 0002:00010b44       __CT??_R0?AVlength_error@std@@@8??0length_error@std@@QAE@ABV01@@Z12 1005eb44     libcpmt:xthrow.obj
 0002:00010b60       __TI3?AVout_of_range@std@@ 1005eb60     libcpmt:xthrow.obj
 0002:00010b70       __CTA3?AVout_of_range@std@@ 1005eb70     libcpmt:xthrow.obj
 0002:00010b80       __CT??_R0?AVout_of_range@std@@@8??0out_of_range@std@@QAE@ABV01@@Z12 1005eb80     libcpmt:xthrow.obj
 0002:00010b9c       __CT??_R0?AVruntime_error@std@@@8??0runtime_error@std@@QAE@ABV01@@Z12 1005eb9c     libcpmt:xthrow.obj
 0002:00010bb8       __TI2?AVbad_function_call@std@@ 1005ebb8     libcpmt:xthrow.obj
 0002:00010bc8       __CTA2?AVbad_function_call@std@@ 1005ebc8     libcpmt:xthrow.obj
 0002:00010bd4       __CT??_R0?AVbad_function_call@std@@@8??0bad_function_call@std@@QAE@ABV01@@Z12 1005ebd4     libcpmt:xthrow.obj
 0002:00010c1c       __TI4?AVsystem_error@std@@ 1005ec1c     libcpmt:thread0.obj
 0002:00010c2c       __CTA4?AVsystem_error@std@@ 1005ec2c     libcpmt:thread0.obj
 0002:00010c40       __CT??_R0?AVsystem_error@std@@@8??0system_error@std@@QAE@ABV01@@Z20 1005ec40     libcpmt:thread0.obj
 0002:00010c5c       __CT??_R0?AV_System_error@std@@@8??0_System_error@std@@QAE@ABV01@@Z20 1005ec5c     libcpmt:thread0.obj
 0002:00010dfc       __TI2?AVbad_cast@std@@     1005edfc     libcpmt:cout.obj
 0002:00010e0c       __CTA2?AVbad_cast@std@@    1005ee0c     libcpmt:cout.obj
 0002:00010e18       __CT??_R0?AVbad_cast@std@@@8??0bad_cast@std@@QAE@ABV01@@Z12 1005ee18     libcpmt:cout.obj
 0002:00010f4c       __TI3?AVbad_array_new_length@std@@ 1005ef4c     LIBCMT:throw_bad_alloc.obj
 0002:00010f5c       __CTA3?AVbad_array_new_length@std@@ 1005ef5c     LIBCMT:throw_bad_alloc.obj
 0002:00010f6c       __CT??_R0?AVbad_array_new_length@std@@@8??0bad_array_new_length@std@@QAE@ABV01@@Z12 1005ef6c     LIBCMT:throw_bad_alloc.obj
 0002:00010fe0       __TI2?AVimproper_lock@Concurrency@@ 1005efe0     libconcrt:rtlocks.obj
 0002:00010ff0       __CTA2?AVimproper_lock@Concurrency@@ 1005eff0     libconcrt:rtlocks.obj
 0002:00010ffc       __CT??_R0?AVimproper_lock@Concurrency@@@8??0improper_lock@Concurrency@@QAE@ABV01@@Z12 1005effc     libconcrt:rtlocks.obj
 0002:00011018       __TI2?AVscheduler_resource_allocation_error@Concurrency@@ 1005f018     libconcrt:Platform.obj
 0002:00011028       __CTA2?AVscheduler_resource_allocation_error@Concurrency@@ 1005f028     libconcrt:Platform.obj
 0002:00011034       __CT??_R0?AVscheduler_resource_allocation_error@Concurrency@@@8??0scheduler_resource_allocation_error@Concurrency@@QAE@ABV01@@Z16 1005f034     libconcrt:Platform.obj
 0002:000112a8       __TI2?AVunsupported_os@Concurrency@@ 1005f2a8     libconcrt:ResourceManager.obj
 0002:000112b8       __CTA2?AVunsupported_os@Concurrency@@ 1005f2b8     libconcrt:ResourceManager.obj
 0002:000112c4       __CT??_R0?AVunsupported_os@Concurrency@@@8??0unsupported_os@Concurrency@@QAE@ABV01@@Z12 1005f2c4     libconcrt:ResourceManager.obj
 0002:000112e0       __TI2?AVinvalid_operation@Concurrency@@ 1005f2e0     libconcrt:ResourceManager.obj
 0002:000112f0       __CTA2?AVinvalid_operation@Concurrency@@ 1005f2f0     libconcrt:ResourceManager.obj
 0002:000112fc       __CT??_R0?AVinvalid_operation@Concurrency@@@8??0invalid_operation@Concurrency@@QAE@ABV01@@Z12 1005f2fc     libconcrt:ResourceManager.obj
 0002:000115a0       __TI2?AVimproper_scheduler_reference@Concurrency@@ 1005f5a0     libconcrt:SchedulerBase.obj
 0002:000115b0       __CTA2?AVimproper_scheduler_reference@Concurrency@@ 1005f5b0     libconcrt:SchedulerBase.obj
 0002:000115bc       __CT??_R0?AVimproper_scheduler_reference@Concurrency@@@8??0improper_scheduler_reference@Concurrency@@QAE@ABV01@@Z12 1005f5bc     libconcrt:SchedulerBase.obj
 0002:000115d8       __TI2?AVimproper_scheduler_attach@Concurrency@@ 1005f5d8     libconcrt:SchedulerBase.obj
 0002:000115e8       __CTA2?AVimproper_scheduler_attach@Concurrency@@ 1005f5e8     libconcrt:SchedulerBase.obj
 0002:000115f4       __CT??_R0?AVimproper_scheduler_attach@Concurrency@@@8??0improper_scheduler_attach@Concurrency@@QAE@ABV01@@Z12 1005f5f4     libconcrt:SchedulerBase.obj
 0002:000119f4       __TI2?AVmissing_wait@Concurrency@@ 1005f9f4     libconcrt:TaskCollection.obj
 0002:00011a04       __CTA2?AVmissing_wait@Concurrency@@ 1005fa04     libconcrt:TaskCollection.obj
 0002:00011a10       __CT??_R0?AVmissing_wait@Concurrency@@@8??0missing_wait@Concurrency@@QAE@ABV01@@Z12 1005fa10     libconcrt:TaskCollection.obj
 0002:00011a2c       __TI2?AV_Interruption_exception@details@Concurrency@@ 1005fa2c     libconcrt:TaskCollection.obj
 0002:00011a3c       __CTA2?AV_Interruption_exception@details@Concurrency@@ 1005fa3c     libconcrt:TaskCollection.obj
 0002:00011a48       __CT??_R0?AV_Interruption_exception@details@Concurrency@@@8??0_Interruption_exception@details@Concurrency@@QAE@ABV012@@Z12 1005fa48     libconcrt:TaskCollection.obj
 0002:00011abc       __TI2?AVinvalid_scheduler_policy_key@Concurrency@@ 1005fabc     libconcrt:SchedulerPolicyBase.obj
 0002:00011acc       __CTA2?AVinvalid_scheduler_policy_key@Concurrency@@ 1005facc     libconcrt:SchedulerPolicyBase.obj
 0002:00011ad8       __CT??_R0?AVinvalid_scheduler_policy_key@Concurrency@@@8??0invalid_scheduler_policy_key@Concurrency@@QAE@ABV01@@Z12 1005fad8     libconcrt:SchedulerPolicyBase.obj
 0002:00011af4       __TI2?AVinvalid_scheduler_policy_value@Concurrency@@ 1005faf4     libconcrt:SchedulerPolicyBase.obj
 0002:00011b04       __CTA2?AVinvalid_scheduler_policy_value@Concurrency@@ 1005fb04     libconcrt:SchedulerPolicyBase.obj
 0002:00011b10       __CT??_R0?AVinvalid_scheduler_policy_value@Concurrency@@@8??0invalid_scheduler_policy_value@Concurrency@@QAE@ABV01@@Z12 1005fb10     libconcrt:SchedulerPolicyBase.obj
 0002:00011b2c       __TI2?AVinvalid_scheduler_policy_thread_specification@Concurrency@@ 1005fb2c     libconcrt:SchedulerPolicyBase.obj
 0002:00011b3c       __CTA2?AVinvalid_scheduler_policy_thread_specification@Concurrency@@ 1005fb3c     libconcrt:SchedulerPolicyBase.obj
 0002:00011b48       __CT??_R0?AVinvalid_scheduler_policy_thread_specification@Concurrency@@@8??0invalid_scheduler_policy_thread_specification@Concurrency@@QAE@ABV01@@Z12 1005fb48     libconcrt:SchedulerPolicyBase.obj
 0002:00011e14       __TI2?AVcontext_unblock_unbalanced@Concurrency@@ 1005fe14     libconcrt:InternalContextBase.obj
 0002:00011e24       __CTA2?AVcontext_unblock_unbalanced@Concurrency@@ 1005fe24     libconcrt:InternalContextBase.obj
 0002:00011e30       __CT??_R0?AVcontext_unblock_unbalanced@Concurrency@@@8??0context_unblock_unbalanced@Concurrency@@QAE@ABV01@@Z12 1005fe30     libconcrt:InternalContextBase.obj
 0002:00011e4c       __TI2?AVcontext_self_unblock@Concurrency@@ 1005fe4c     libconcrt:InternalContextBase.obj
 0002:00011e5c       __CTA2?AVcontext_self_unblock@Concurrency@@ 1005fe5c     libconcrt:InternalContextBase.obj
 0002:00011e68       __CT??_R0?AVcontext_self_unblock@Concurrency@@@8??0context_self_unblock@Concurrency@@QAE@ABV01@@Z12 1005fe68     libconcrt:InternalContextBase.obj
 0002:00011e84       __TI2?AVinvalid_oversubscribe_operation@Concurrency@@ 1005fe84     libconcrt:InternalContextBase.obj
 0002:00011e94       __CTA2?AVinvalid_oversubscribe_operation@Concurrency@@ 1005fe94     libconcrt:InternalContextBase.obj
 0002:00011ea0       __CT??_R0?AVinvalid_oversubscribe_operation@Concurrency@@@8??0invalid_oversubscribe_operation@Concurrency@@QAE@ABV01@@Z12 1005fea0     libconcrt:InternalContextBase.obj
 0002:00011ebc       __TI2?AVnested_scheduler_missing_detach@Concurrency@@ 1005febc     libconcrt:InternalContextBase.obj
 0002:00011ecc       __CTA2?AVnested_scheduler_missing_detach@Concurrency@@ 1005fecc     libconcrt:InternalContextBase.obj
 0002:00011ed8       __CT??_R0?AVnested_scheduler_missing_detach@Concurrency@@@8??0nested_scheduler_missing_detach@Concurrency@@QAE@ABV01@@Z12 1005fed8     libconcrt:InternalContextBase.obj
 0002:00012288       __TI3?AVscheduler_worker_creation_error@Concurrency@@ 10060288     libconcrt:ThreadProxy.obj
 0002:00012298       __CTA3?AVscheduler_worker_creation_error@Concurrency@@ 10060298     libconcrt:ThreadProxy.obj
 0002:000122a8       __CT??_R0?AVscheduler_worker_creation_error@Concurrency@@@8??0scheduler_worker_creation_error@Concurrency@@QAE@ABV01@@Z16 100602a8     libconcrt:ThreadProxy.obj
 0002:000123f4       __TI2?AVbad_exception@std@@ 100603f4     libvcruntime:frame.obj
 0002:00012404       __CTA2?AVbad_exception@std@@ 10060404     libvcruntime:frame.obj
 0002:00012410       __CT??_R0?AVbad_exception@std@@@8??0bad_exception@std@@QAE@ABV01@@Z12 10060410     libvcruntime:frame.obj
 0002:0001244c       __TI3?AV__non_rtti_object@std@@ 1006044c     libvcruntime:rtti.obj
 0002:0001245c       __CTA3?AV__non_rtti_object@std@@ 1006045c     libvcruntime:rtti.obj
 0002:0001246c       __CT??_R0?AV__non_rtti_object@std@@@8??0__non_rtti_object@std@@QAE@ABV01@@Z12 1006046c     libvcruntime:rtti.obj
 0002:00012488       __CT??_R0?AVbad_typeid@std@@@8??0bad_typeid@std@@QAE@ABV01@@Z12 10060488     libvcruntime:rtti.obj
 0002:00012bdc       __DELAY_IMPORT_DESCRIPTOR_node_exe 10060bdc     node:node.exe
 0002:00012bfc       __NULL_DELAY_IMPORT_DESCRIPTOR 10060bfc     node:node.exe
 0002:00012dc8       \177node_NULL_THUNK_DATA_DLN 10060dc8     node:node.exe
 0002:00014174       \177node_NULL_THUNK_DATA_DLB 10062174     node:node.exe
 0002:000183b4       __IMPORT_DESCRIPTOR_KERNEL32 100663b4     kernel32:KERNEL32.dll
 0002:000183c8       __IMPORT_DESCRIPTOR_WS2_32 100663c8     ws2_32:WS2_32.dll
 0002:000183dc       __NULL_IMPORT_DESCRIPTOR   100663dc     kernel32:KERNEL32.dll
 0003:00000004       ?_Sync@ios_base@std@@0_NA  10067004     libcpmt:ios.obj
 0003:00000010       ?_PJP_CPP_Copyright@@3PADA 10067010     libcpmt:iosptrs.obj
 0003:00000064       ___scrt_native_dllmain_reason 10067064     LIBCMT:utility.obj
 0003:00000068       __Init_global_epoch        10067068     LIBCMT:thread_safe_statics.obj
 0003:0000006c       ___security_cookie_complement 1006706c     LIBCMT:gs_cookie.obj
 0003:00000070       ___security_cookie         10067070     LIBCMT:gs_cookie.obj
 0003:00000080       __fltused                  10067080     LIBCMT:fltused.obj
 0003:00000090       ___isa_enabled             10067090     LIBCMT:_cpu_disp_.obj
 0003:000000a0       ?_S_spinCount@_SpinCount@details@Concurrency@@2IA 100670a0     libconcrt:rtlocks.obj
 0003:000000a8       ?s_schedulerIdCount@ResourceManager@details@Concurrency@@0JC 100670a8     libconcrt:ResourceManager.obj
 0003:000000ac       ?s_executionContextIdCount@ResourceManager@details@Concurrency@@0JC 100670ac     libconcrt:ResourceManager.obj
 0003:000000b0       ?s_threadProxyIdCount@ResourceManager@details@Concurrency@@0JC 100670b0     libconcrt:ResourceManager.obj
 0003:000000b4       ?s_oneShotInitializationState@SchedulerBase@details@Concurrency@@0JA 100670b4     libconcrt:SchedulerBase.obj
 0003:000000b8       ?PolicyDefaults@details@Concurrency@@3PAIA 100670b8     libconcrt:SchedulerPolicyBase.obj
 0003:000000e0       ?PolicyElementKeyStrings@details@Concurrency@@3PAPADA 100670e0     libconcrt:SchedulerPolicyBase.obj
 0003:00000160       __NLG_Destination          10067160     libvcruntime:_exsup_.obj
 0003:00000180       ___abort_behavior          10067180     libucrt:abort.obj
 0003:00000190       ___acrt_lconv_static_decimal 10067190     libucrt:localeconv.obj
 0003:00000194       ___acrt_lconv_static_W_decimal 10067194     libucrt:localeconv.obj
 0003:00000198       ___acrt_lconv_c            10067198     libucrt:localeconv.obj
 0003:000001e8       ___acrt_lconv              100671e8     libucrt:localeconv.obj
 0003:000001f0       __iob                      100671f0     libucrt:_file.obj
 0003:00000298       __pctype                   10067298     libucrt:ctype.obj
 0003:0000029c       __pwctype                  1006729c     libucrt:ctype.obj
 0003:000002a8       ___mb_cur_max              100672a8     libucrt:nlsdata.obj
 0003:000002b0       ___acrt_initial_locale_data 100672b0     libucrt:nlsdata.obj
 0003:00000368       ___acrt_initial_locale_pointers 10067368     libucrt:nlsdata.obj
 0003:00000370       ___acrt_wide_c_locale_string 10067370     libucrt:nlsdata.obj
 0003:00000378       ___badioinfo               10067378     libucrt:ioinit.obj
 0003:000003a8       ___globallocalestatus      100673a8     libucrt:glstatus.obj
 0003:00000530       __mbctype                  10067530     libucrt:mbctype.obj
 0003:00000638       __mbcasemap                10067638     libucrt:mbctype.obj
 0003:00000738       ___acrt_initial_multibyte_data 10067738     libucrt:mbctype.obj
 0003:00000958       ___acrt_current_multibyte_data 10067958     libucrt:mbctype.obj
 0003:00000960       __lookuptrailbytes         10067960     libucrt:read.obj
 0003:00000a60       ___dcrt_lowio_console_output_handle 10067a60     libucrt:initcon.obj
 0003:00000a80       ?stamp@?4??upgrade@?$HttpSocket@$00@uWS@@QAEXPBD0I0IPA_N@Z@4PADA 10067a80     HTTPSocket.obj
 0003:00000ae8       ??_R0?AVbad_alloc@std@@@8  10067ae8     libcpmt:xthrow.obj
 0003:00000b04       ??_R0?AVexception@std@@@8  10067b04     libcpmt:xthrow.obj
 0003:00000b20       ??_R0?AVinvalid_argument@std@@@8 10067b20     libcpmt:xthrow.obj
 0003:00000b44       ??_R0?AVlogic_error@std@@@8 10067b44     libcpmt:xthrow.obj
 0003:00000b64       ??_R0?AVlength_error@std@@@8 10067b64     libcpmt:xthrow.obj
 0003:00000b84       ??_R0?AVout_of_range@std@@@8 10067b84     libcpmt:xthrow.obj
 0003:00000ba4       ??_R0?AVruntime_error@std@@@8 10067ba4     libcpmt:xthrow.obj
 0003:00000bc4       ??_R0?AVbad_function_call@std@@@8 10067bc4     libcpmt:xthrow.obj
 0003:00000be8       ??_R0?AVsystem_error@std@@@8 10067be8     libcpmt:thread0.obj
 0003:00000c08       ??_R0?AV_System_error@std@@@8 10067c08     libcpmt:thread0.obj
 0003:00000c28       ??_R0?AVerror_category@std@@@8 10067c28     libcpmt:thread0.obj
 0003:00000c4c       ??_R0?AV_Generic_error_category@std@@@8 10067c4c     libcpmt:thread0.obj
 0003:00000c78       ??_R0?AVstl_critical_section_interface@details@Concurrency@@@8 10067c78     libcpmt:mutex.obj
 0003:00000cbc       ??_R0?AVstl_critical_section_vista@details@Concurrency@@@8 10067cbc     libcpmt:mutex.obj
 0003:00000cfc       ??_R0?AVstl_critical_section_win7@details@Concurrency@@@8 10067cfc     libcpmt:mutex.obj
 0003:00000d38       ??_R0?AVstl_critical_section_concrt@details@Concurrency@@@8 10067d38     libcpmt:mutex.obj
 0003:00000d78       ??_R0?AVfailure@ios_base@std@@@8 10067d78     libcpmt:cout.obj
 0003:00000d9c       ??_R0?AVbad_cast@std@@@8   10067d9c     libcpmt:cout.obj
 0003:00000db8       ??_R0?AVios_base@std@@@8   10067db8     libcpmt:cout.obj
 0003:00000dd4       ??_R0?AV?$_Iosb@H@std@@@8  10067dd4     libcpmt:cout.obj
 0003:00000df0       ??_R0?AV?$basic_ios@DU?$char_traits@D@std@@@std@@@8 10067df0     libcpmt:cout.obj
 0003:00000e28       ??_R0?AV?$basic_streambuf@DU?$char_traits@D@std@@@std@@@8 10067e28     libcpmt:cout.obj
 0003:00000e64       ??_R0?AV?$basic_ostream@DU?$char_traits@D@std@@@std@@@8 10067e64     libcpmt:cout.obj
 0003:00000ea0       ??_R0?AV?$basic_filebuf@DU?$char_traits@D@std@@@std@@@8 10067ea0     libcpmt:cout.obj
 0003:00000edc       ??_R0?AV_Facet_base@std@@@8 10067edc     libcpmt:cout.obj
 0003:00000efc       ??_R0?AVfacet@locale@std@@@8 10067efc     libcpmt:cout.obj
 0003:00000f1c       ??_R0?AU_Crt_new_delete@std@@@8 10067f1c     libcpmt:cout.obj
 0003:00000f40       ??_R0?AVcodecvt_base@std@@@8 10067f40     libcpmt:cout.obj
 0003:00000f60       ??_R0?AUctype_base@std@@@8 10067f60     libcpmt:cout.obj
 0003:00000f80       ??_R0?AV?$ctype@D@std@@@8  10067f80     libcpmt:cout.obj
 0003:00000f9c       ??_R0?AV_Iostream_error_category@std@@@8 10067f9c     libcpmt:cout.obj
 0003:00000fc8       ??_R0?AV?$codecvt@DDU_Mbstatet@@@std@@@8 10067fc8     libcpmt:cout.obj
 0003:00000ff4       ??_R0?AV_Locimp@locale@std@@@8 10067ff4     libcpmt:locale0.obj
 0003:00001018       ??_R0?AV?$num_put@DV?$ostreambuf_iterator@DU?$char_traits@D@std@@@std@@@std@@@8 10068018     libcpmt:locale.obj
 0003:0000106c       ??_R0?AV?$numpunct@D@std@@@8 1006806c     libcpmt:locale.obj
 0003:0000108c       ??_R0?AVtype_info@@@8      1006808c     LIBCMT:std_type_info_static.obj
 0003:000010a4       ??_R0?AVbad_array_new_length@std@@@8 100680a4     LIBCMT:throw_bad_alloc.obj
 0003:000010cc       ??_R0?AVimproper_lock@Concurrency@@@8 100680cc     libconcrt:rtlocks.obj
 0003:000010f4       ??_R0?AVscheduler_resource_allocation_error@Concurrency@@@8 100680f4     libconcrt:Platform.obj
 0003:00001134       ??_R0?AVscheduler_worker_creation_error@Concurrency@@@8 10068134     libconcrt:Exceptions.obj
 0003:00001170       ??_R0?AVunsupported_os@Concurrency@@@8 10068170     libconcrt:Exceptions.obj
 0003:0000119c       ??_R0?AVimproper_scheduler_attach@Concurrency@@@8 1006819c     libconcrt:Exceptions.obj
 0003:000011d0       ??_R0?AVimproper_scheduler_reference@Concurrency@@@8 100681d0     libconcrt:Exceptions.obj
 0003:00001208       ??_R0?AVcontext_unblock_unbalanced@Concurrency@@@8 10068208     libconcrt:Exceptions.obj
 0003:00001240       ??_R0?AVcontext_self_unblock@Concurrency@@@8 10068240     libconcrt:Exceptions.obj
 0003:00001270       ??_R0?AVmissing_wait@Concurrency@@@8 10068270     libconcrt:Exceptions.obj
 0003:00001298       ??_R0?AVinvalid_scheduler_policy_key@Concurrency@@@8 10068298     libconcrt:Exceptions.obj
 0003:000012d0       ??_R0?AVinvalid_scheduler_policy_value@Concurrency@@@8 100682d0     libconcrt:Exceptions.obj
 0003:00001310       ??_R0?AVinvalid_scheduler_policy_thread_specification@Concurrency@@@8 10068310     libconcrt:Exceptions.obj
 0003:00001358       ??_R0?AVnested_scheduler_missing_detach@Concurrency@@@8 10068358     libconcrt:Exceptions.obj
 0003:00001394       ??_R0?AVinvalid_oversubscribe_operation@Concurrency@@@8 10068394     libconcrt:Exceptions.obj
 0003:000013d0       ??_R0?AVinvalid_operation@Concurrency@@@8 100683d0     libconcrt:ResourceManager.obj
 0003:000013fc       ??_R0?AVResourceManager@details@Concurrency@@@8 100683fc     libconcrt:ResourceManager.obj
 0003:00001430       ??_R0?AUIResourceManager@Concurrency@@@8 10068430     libconcrt:ResourceManager.obj
 0003:0000145c       ??_R0?AUITopologyExecutionResource@Concurrency@@@8 1006845c     libconcrt:ResourceManager.obj
 0003:00001494       ??_R0?AUITopologyNode@Concurrency@@@8 10068494     libconcrt:ResourceManager.obj
 0003:000014bc       ??_R0?AUTopologyObject@GlobalCore@details@Concurrency@@@8 100684bc     libconcrt:ResourceManager.obj
 0003:000014f8       ??_R0?AUTopologyObject@GlobalNode@details@Concurrency@@@8 100684f8     libconcrt:ResourceManager.obj
 0003:00001534       ??_R0?AVScheduleGroupBase@details@Concurrency@@@8 10068534     libconcrt:SchedulerBase.obj
 0003:00001568       ??_R0?AVScheduleGroup@Concurrency@@@8 10068568     libconcrt:SchedulerBase.obj
 0003:00001590       ??_R0?AVCacheLocalScheduleGroup@details@Concurrency@@@8 10068590     libconcrt:SchedulerBase.obj
 0003:000015cc       ??_R0?AVFairScheduleGroup@details@Concurrency@@@8 100685cc     libconcrt:SchedulerBase.obj
 0003:00001600       ??_R0?AVSchedulerBase@details@Concurrency@@@8 10068600     libconcrt:SchedulerBase.obj
 0003:00001630       ??_R0?AVScheduler@Concurrency@@@8 10068630     libconcrt:SchedulerBase.obj
 0003:00001654       ??_R0?AU_Chore@details@Concurrency@@@8 10068654     libconcrt:SchedulerBase.obj
 0003:00001680       ??_R0?AVRealizedChore@details@Concurrency@@@8 10068680     libconcrt:SchedulerBase.obj
 0003:000016b0       ??_R0?AVCacheLocalScheduleGroupSegment@details@Concurrency@@@8 100686b0     libconcrt:SchedulerBase.obj
 0003:000016f4       ??_R0?AVScheduleGroupSegmentBase@details@Concurrency@@@8 100686f4     libconcrt:SchedulerBase.obj
 0003:00001730       ??_R0?AVFairScheduleGroupSegment@details@Concurrency@@@8 10068730     libconcrt:SchedulerBase.obj
 0003:0000176c       ??_R0?AVWaitBlock@details@Concurrency@@@8 1006876c     libconcrt:event.obj
 0003:00001798       ??_R0?AVSingleWaitBlock@details@Concurrency@@@8 10068798     libconcrt:event.obj
 0003:000017cc       ??_R0?AVMultiWaitBlock@details@Concurrency@@@8 100687cc     libconcrt:event.obj
 0003:00001800       ??_R0?AVWaitAllBlock@details@Concurrency@@@8 10068800     libconcrt:event.obj
 0003:00001830       ??_R0?AVWaitAnyBlock@details@Concurrency@@@8 10068830     libconcrt:event.obj
 0003:00001860       ??_R0?AVTimedSingleWaitBlock@details@Concurrency@@@8 10068860     libconcrt:event.obj
 0003:00001898       ??_R0?AV?$_MallocaArrayHolder@PAVContext@Concurrency@@@details@Concurrency@@@8 10068898     libconcrt:event.obj
 0003:000018ec       ??_R0?AVContextBase@details@Concurrency@@@8 100688ec     libconcrt:ContextBase.obj
 0003:0000191c       ??_R0?AVContext@Concurrency@@@8 1006891c     libconcrt:ContextBase.obj
 0003:00001940       ??_R0?AV_Interruption_exception@details@Concurrency@@@8 10068940     libconcrt:TaskCollection.obj
 0003:0000197c       ??_R0?AV_RefCounter@details@Concurrency@@@8 1006897c     libconcrt:TaskCollection.obj
 0003:000019b0       ??_R0?AV_CancellationTokenRegistration@details@Concurrency@@@8 100689b0     libconcrt:TaskCollection.obj
 0003:000019f8       ??_R0?AVCancellationTokenRegistration_TaskProc@details@Concurrency@@@8 100689f8     libconcrt:TaskCollection.obj
 0003:00001a48       ??_R0?AV?$_MallocaArrayHolder@PAVevent@Concurrency@@@details@Concurrency@@@8 10068a48     libconcrt:TaskCollection.obj
 0003:00001a98       ??_R0?AVExecutionResource@details@Concurrency@@@8 10068a98     libconcrt:ExecutionResource.obj
 0003:00001acc       ??_R0?AUIExecutionResource@Concurrency@@@8 10068acc     libconcrt:ExecutionResource.obj
 0003:00001afc       ??_R0?AVSchedulerProxy@details@Concurrency@@@8 10068afc     libconcrt:SchedulerProxy.obj
 0003:00001b30       ??_R0?AUISchedulerProxy@Concurrency@@@8 10068b30     libconcrt:SchedulerProxy.obj
 0003:00001b5c       ??_R0?AVFreeThreadProxy@details@Concurrency@@@8 10068b5c     libconcrt:ThreadProxyFactoryManager.obj
 0003:00001b90       ??_R0?AVThreadProxy@details@Concurrency@@@8 10068b90     libconcrt:ThreadProxyFactoryManager.obj
 0003:00001bc0       ??_R0?AUIThreadProxy@Concurrency@@@8 10068bc0     libconcrt:ThreadProxyFactoryManager.obj
 0003:00001be8       ??_R0?AUIThreadProxyFactory@details@Concurrency@@@8 10068be8     libconcrt:ThreadProxyFactoryManager.obj
 0003:00001c20       ??_R0?AVFreeThreadProxyFactory@details@Concurrency@@@8 10068c20     libconcrt:ThreadProxyFactoryManager.obj
 0003:00001c60       ??_R0?AV?$ThreadProxyFactory@VFreeThreadProxy@details@Concurrency@@@details@Concurrency@@@8 10068c60     libconcrt:ThreadProxyFactoryManager.obj
 0003:00001cc0       ??_R0?AVVirtualProcessor@details@Concurrency@@@8 10068cc0     libconcrt:VirtualProcessor.obj
 0003:00001cf4       ??_R0?AVInternalContextBase@details@Concurrency@@@8 10068cf4     libconcrt:InternalContextBase.obj
 0003:00001d2c       ??_R0?AUIExecutionContext@Concurrency@@@8 10068d2c     libconcrt:InternalContextBase.obj
 0003:00001d58       ??_R0?AVExternalContextBase@details@Concurrency@@@8 10068d58     libconcrt:ExternalContextBase.obj
 0003:00001d90       ??_R0?AVThreadScheduler@details@Concurrency@@@8 10068d90     libconcrt:ThreadScheduler.obj
 0003:00001dc4       ??_R0?AUIScheduler@Concurrency@@@8 10068dc4     libconcrt:ThreadScheduler.obj
 0003:00001dec       ??_R0?AVThreadInternalContext@details@Concurrency@@@8 10068dec     libconcrt:ThreadScheduler.obj
 0003:00001e24       ??_R0?AVVirtualProcessorRoot@details@Concurrency@@@8 10068e24     libconcrt:VirtualProcessorRoot.obj
 0003:00001e5c       ??_R0?AUIVirtualProcessorRoot@Concurrency@@@8 10068e5c     libconcrt:VirtualProcessorRoot.obj
 0003:00001e8c       ??_R0?AVFreeVirtualProcessorRoot@details@Concurrency@@@8 10068e8c     libconcrt:FreeVirtualProcessorRoot.obj
 0003:00001ec8       ??_R0?AVThreadVirtualProcessor@details@Concurrency@@@8 10068ec8     libconcrt:ThreadVirtualProcessor.obj
 0003:00001f04       ??_R0?AVbad_exception@std@@@8 10068f04     libvcruntime:frame.obj
 0003:00001f24       ??_R0?AV__non_rtti_object@std@@@8 10068f24     libvcruntime:rtti.obj
 0003:00001f48       ??_R0?AVbad_typeid@std@@@8 10068f48     libvcruntime:rtti.obj
 0003:00001f68       ??_R0?AV_Ref_count_base@std@@@8 10068f68     libcpmt:excptptr.obj
 0003:00001f90       ??_R0?AV?$_Ref_count_obj_alloc@V__ExceptionPtr@@U?$_StaticAllocator@H@@@std@@@8 10068f90     libcpmt:excptptr.obj
 0003:00001fe4       ??_R0?AV?$_Ref_count_obj@V__ExceptionPtr@@@std@@@8 10068fe4     libcpmt:excptptr.obj
 0003:00002020       ??_R0?AVstl_condition_variable_interface@details@Concurrency@@@8 10069020     libcpmt:cond.obj
 0003:00002064       ??_R0?AVstl_condition_variable_vista@details@Concurrency@@@8 10069064     libcpmt:cond.obj
 0003:000020a4       ??_R0?AVstl_condition_variable_win7@details@Concurrency@@@8 100690a4     libcpmt:cond.obj
 0003:000020e8       ??_R0?AVstl_condition_variable_concrt@details@Concurrency@@@8 100690e8     libcpmt:cond.obj
 0003:00002128       ??_R0?AV<lambda_c86eed9c1ab0c35de2c7db853439f0fe>@@@8 10069128     Group.obj
 0003:00002160       ??_R0?AV<lambda_5e248ff5b85a9cbef0f96485f89af0f4>@@@8 10069160     Group.obj
 0003:00002198       ??_R0?AV<lambda_480ce1beb17acf0344804a3db5b6865b>@@@8 10069198     Group.obj
 0003:000021d0       ??_R0?AV<lambda_29fc594577301b1bc2b03af6825a474b>@@@8 100691d0     Group.obj
 0003:00002208       ??_R0?AV<lambda_284e8f57f50590e9327d257d2c58f5ae>@@@8 10069208     Group.obj
 0003:00002240       ??_R0?AV<lambda_cdf10bf5b5f8358ddc09646490ca2bd3>@@@8 10069240     Group.obj
 0003:00002278       ??_R0?AV<lambda_99ef38e60bffb9212b3d1e3c55a2df69>@@@8 10069278     Group.obj
 0003:000022b0       ??_R0?AV<lambda_96818ef0bffebe7784dafdd6b8650226>@@@8 100692b0     Group.obj
 0003:000022e8       ??_R0?AV<lambda_6fd7a6803027b820a651af240ae00b15>@@@8 100692e8     Group.obj
 0003:00002320       ??_R0?AV<lambda_63233af269ebf66ec6711baf6bbbbf3c>@@@8 10069320     Group.obj
 0003:00002358       ??_R0?AV<lambda_3794209ab7a2ee1b14680313776aa0cb>@@@8 10069358     Group.obj
 0003:00002390       ??_R0?AV<lambda_5b1a45c89178d2c3a17a0ad1b46255d4>@@@8 10069390     Group.obj
 0003:000023c8       ??_R0?AV<lambda_5c2f79513d0504d139958871698dd577>@@@8 100693c8     Group.obj
 0003:00002400       ??_R0?AV<lambda_b50986b69c5d421d67f8cf1f1e01cf51>@@@8 10069400     Group.obj
 0003:00002438       ??_R0?AV<lambda_799e88e5857d2eeece038297701e4a0c>@@@8 10069438     Group.obj
 0003:00002470       ??_R0?AV<lambda_26a43c5493e1ef97d75dc73d0d6d2fb0>@@@8 10069470     Group.obj
 0003:000024a8       ??_R0?AV<lambda_a28187498a520298138e8f32ba6c243d>@@@8 100694a8     Group.obj
 0003:000024e0       ??_R0?AV<lambda_5649a9b854e06245aa815fce0d27ad2c>@@@8 100694e0     Group.obj
 0003:00002518       ??_R0?AV<lambda_3fbfd5c44bc064280253334d66644dd0>@@@8 10069518     Group.obj
 0003:00002550       ??_R0?AV<lambda_53ff3ec277c749501ec9217002aa9d7b>@@@8 10069550     Group.obj
 0003:00002588       ??_R0?AV<lambda_1c688c24fd597b5f755e83302e53023b>@@@8 10069588     Group.obj
 0003:000025c0       ??_R0?AV<lambda_3feb86e2305b43992e78a155d1556379>@@@8 100695c0     Group.obj
 0003:000025f8       ??_R0?AV<lambda_a9c374da5dc12dabd3c598763daba76e>@@@8 100695f8     addon.obj
 0003:00002630       ??_R0?AV<lambda_af7a5422dd374fbb44bb0600bceb4c12>@@@8 10069630     addon.obj
 0003:00002668       ??_R0?AV<lambda_48a2ad8411dfb78ca19670ff520707ee>@@@8 10069668     addon.obj
 0003:000026a0       ??_R0?AV<lambda_cbf472aa6ee717239cd6161d1e7aab15>@@@8 100696a0     addon.obj
 0003:000026d8       ??_R0?AV<lambda_133e58a517827c34a78e0f1d8439cbb2>@@@8 100696d8     addon.obj
 0003:00002710       ??_R0?AV<lambda_cd9dafd5dd8557c825a5e1eed9936cb1>@@@8 10069710     addon.obj
 0003:00002748       ??_R0?AV<lambda_1d46c80fc537237927264025b327cfb0>@@@8 10069748     addon.obj
 0003:00002780       ??_R0?AV<lambda_8f1b2285fb4d43b2e4da5a4614c9e8de>@@@8 10069780     addon.obj
 0003:000027b8       ??_R0?AV<lambda_99f67bed414616fd95dc4419d5bb6d86>@@@8 100697b8     addon.obj
 0003:000027f0       ??_R0?AV<lambda_ab21da79468cf75ef8a5b2c19fc9df60>@@@8 100697f0     addon.obj
 0003:00002828       ??_R0?AV<lambda_e1637142ea344e884e17eb9d2de27d2d>@@@8 10069828     addon.obj
 0003:00002860       ??_R0?AV<lambda_cd4883bb11e6c621b1acc92b6d8da8c1>@@@8 10069860     addon.obj
 0003:00002898       ??_R0?AV<lambda_208c1e08f92f7c47e87798a7b3d6644f>@@@8 10069898     addon.obj
 0003:000028d0       ??_R0?AV<lambda_14958bf5dc4f051e32ab96422140a561>@@@8 100698d0     addon.obj
 0003:00002908       __imp__uv_close            10069908     node:node.exe
 0003:0000290c       __imp__SSL_free            1006990c     node:node.exe
 0003:00002910       __imp__uv_poll_stop        10069910     node:node.exe
 0003:00002914       __imp__uv_timer_init       10069914     node:node.exe
 0003:00002918       __imp__uv_timer_stop       10069918     node:node.exe
 0003:0000291c       __imp__inflateEnd          1006991c     node:node.exe
 0003:00002920       __imp__SSL_set_fd          10069920     node:node.exe
 0003:00002924       __imp__uv_fileno           10069924     node:node.exe
 0003:00002928       __imp__inflateInit2_       10069928     node:node.exe
 0003:0000292c       __imp__uv_timer_start      1006992c     node:node.exe
 0003:00002930       __imp__uv_poll_init_socket 10069930     node:node.exe
 0003:00002934       __imp__SSL_write           10069934     node:node.exe
 0003:00002938       __imp__SSL_ctrl            10069938     node:node.exe
 0003:0000293c       __imp__uv_async_send       1006993c     node:node.exe
 0003:00002940       __imp__uv_poll_start       10069940     node:node.exe
 0003:00002944       __imp__uv_async_init       10069944     node:node.exe
 0003:00002948       __imp__SSL_shutdown        10069948     node:node.exe
 0003:0000294c       __imp__SSL_get_error       1006994c     node:node.exe
 0003:00002950       __imp__SSL_CTX_set_default_passwd_cb 10069950     node:node.exe
 0003:00002954       __imp__SSL_CTX_free        10069954     node:node.exe
 0003:00002958       __imp__SSL_CTX_ctrl        10069958     node:node.exe
 0003:0000295c       __imp__SSL_library_init    1006995c     node:node.exe
 0003:00002960       __imp__SSL_CTX_use_PrivateKey_file 10069960     node:node.exe
 0003:00002964       __imp__SSL_CTX_new         10069964     node:node.exe
 0003:00002968       __imp__SSL_CTX_set_default_passwd_cb_userdata 10069968     node:node.exe
 0003:0000296c       __imp__SSLv23_server_method 1006996c     node:node.exe
 0003:00002970       __imp__SSL_CTX_use_certificate_chain_file 10069970     node:node.exe
 0003:00002974       __imp__SSL_new             10069974     node:node.exe
 0003:00002978       __imp__SSL_want            10069978     node:node.exe
 0003:0000297c       __imp__uv_is_closing       1006997c     node:node.exe
 0003:00002980       __imp__inflate             10069980     node:node.exe
 0003:00002984       __imp__SSL_pending         10069984     node:node.exe
 0003:00002988       __imp__SSL_read            10069988     node:node.exe
 0003:0000298c       __imp__SSL_set_accept_state 1006998c     node:node.exe
 0003:00002990       __imp__inflateReset        10069990     node:node.exe
 0003:00002994       __imp__SSL_set_connect_state 10069994     node:node.exe
 0003:00002998       __imp__uv_run              10069998     node:node.exe
 0003:0000299c       __imp__uv_loop_new         1006999c     node:node.exe
 0003:000029a0       __imp__SSLv23_client_method 100699a0     node:node.exe
 0003:000029a4       __imp__uv_loop_delete      100699a4     node:node.exe
 0003:000029a8       __imp__uv_default_loop     100699a8     node:node.exe
 0003:000029ac       __imp__SHA1                100699ac     node:node.exe
 0003:000029b0       __imp__uv_unref            100699b0     node:node.exe
 0003:000029b4       __imp_?Global@Context@v8@@QAE?AV?$Local@VObject@v8@@@2@XZ 100699b4     node:node.exe
 0003:000029b8       __imp_?Value@External@v8@@QBEPAXXZ 100699b8     node:node.exe
 0003:000029bc       __imp_?New@External@v8@@SA?AV?$Local@VExternal@v8@@@2@PAVIsolate@2@PAX@Z 100699bc     node:node.exe
 0003:000029c0       __imp_?New@Integer@v8@@SA?AV?$Local@VInteger@v8@@@2@PAVIsolate@2@H@Z 100699c0     node:node.exe
 0003:000029c4       __imp_?GetCurrentContext@Isolate@v8@@QAE?AV?$Local@VContext@v8@@@2@XZ 100699c4     node:node.exe
 0003:000029c8       __imp_?GetCurrent@Isolate@v8@@SAPAV12@XZ 100699c8     node:node.exe
 0003:000029cc       __imp_?CreateHandle@HandleScope@v8@@KAPAPAVObject@internal@2@PAVIsolate@42@PAV342@@Z 100699cc     node:node.exe
 0003:000029d0       __imp_?CreateHandle@HandleScope@v8@@CAPAPAVObject@internal@2@PAVHeapObject@42@PAV342@@Z 100699d0     node:node.exe
 0003:000029d4       __imp_??1HandleScope@v8@@QAE@XZ 100699d4     node:node.exe
 0003:000029d8       __imp_??0HandleScope@v8@@QAE@PAVIsolate@1@@Z 100699d8     node:node.exe
 0003:000029dc       __imp_?Set@Template@v8@@QAEXV?$Local@VName@v8@@@2@V?$Local@VData@v8@@@2@W4PropertyAttribute@2@@Z 100699dc     node:node.exe
 0003:000029e0       __imp_?Buffer@ArrayBufferView@v8@@QAE?AV?$Local@VArrayBuffer@v8@@@2@XZ 100699e0     node:node.exe
 0003:000029e4       __imp_?New@Array@v8@@SA?AV?$Local@VArray@v8@@@2@PAVIsolate@2@H@Z 100699e4     node:node.exe
 0003:000029e8       __imp_?Length@Array@v8@@QBEIXZ 100699e8     node:node.exe
 0003:000029ec       __imp_?SetClassName@FunctionTemplate@v8@@QAEXV?$Local@VString@v8@@@2@@Z 100699ec     node:node.exe
 0003:000029f0       __imp_?PrototypeTemplate@FunctionTemplate@v8@@QAE?AV?$Local@VObjectTemplate@v8@@@2@XZ 100699f0     node:node.exe
 0003:000029f4       __imp_?InstanceTemplate@FunctionTemplate@v8@@QAE?AV?$Local@VObjectTemplate@v8@@@2@XZ 100699f4     node:node.exe
 0003:000029f8       __imp_?GetFunction@FunctionTemplate@v8@@QAE?AV?$Local@VFunction@v8@@@2@XZ 100699f8     node:node.exe
 0003:000029fc       __imp_?New@FunctionTemplate@v8@@SA?AV?$Local@VFunctionTemplate@v8@@@2@PAVIsolate@2@P6AXABV?$FunctionCallbackInfo@VValue@v8@@@2@@ZV?$Local@VValue@v8@@@2@V?$Local@VSignature@v8@@@2@HW4ConstructorBehavior@2@@Z 100699fc     node:node.exe
 0003:00002a00       __imp_?GetContents@ArrayBuffer@v8@@QAE?AVContents@12@XZ 10069a00     node:node.exe
 0003:00002a04       __imp_?New@ArrayBuffer@v8@@SA?AV?$Local@VArrayBuffer@v8@@@2@PAVIsolate@2@PAXIW4ArrayBufferCreationMode@2@@Z 10069a04     node:node.exe
 0003:00002a08       __imp_?DisposeGlobal@V8@v8@@CAXPAPAVObject@internal@2@@Z 10069a08     node:node.exe
 0003:00002a0c       __imp_?GlobalizeReference@V8@v8@@CAPAPAVObject@internal@2@PAVIsolate@42@PAPAV342@@Z 10069a0c     node:node.exe
 0003:00002a10       __imp_?IntegerValue@Value@v8@@QBE_JXZ 10069a10     node:node.exe
 0003:00002a14       __imp_?BooleanValue@Value@v8@@QBE_NXZ 10069a14     node:node.exe
 0003:00002a18       __imp_?IsTypedArray@Value@v8@@QBE_NXZ 10069a18     node:node.exe
 0003:00002a1c       __imp_?IsArrayBuffer@Value@v8@@QBE_NXZ 10069a1c     node:node.exe
 0003:00002a20       __imp_?IsExternal@Value@v8@@QBE_NXZ 10069a20     node:node.exe
 0003:00002a24       __imp_?IsObject@Value@v8@@QBE_NXZ 10069a24     node:node.exe
 0003:00002a28       __imp_?IsFunction@Value@v8@@QBE_NXZ 10069a28     node:node.exe
 0003:00002a2c       __imp_??1Utf8Value@String@v8@@QAE@XZ 10069a2c     node:node.exe
 0003:00002a30       __imp_??0Utf8Value@String@v8@@QAE@V?$Local@VValue@v8@@@2@@Z 10069a30     node:node.exe
 0003:00002a34       __imp_?NewFromOneByte@String@v8@@SA?AV?$Local@VString@v8@@@2@PAVIsolate@2@PBEW4NewStringType@12@H@Z 10069a34     node:node.exe
 0003:00002a38       __imp_?NewFromUtf8@String@v8@@SA?AV?$Local@VString@v8@@@2@PAVIsolate@2@PBDW4NewStringType@12@H@Z 10069a38     node:node.exe
 0003:00002a3c       __imp_?SlowGetAlignedPointerFromInternalField@Object@v8@@AAEPAXH@Z 10069a3c     node:node.exe
 0003:00002a40       __imp_?SlowGetInternalField@Object@v8@@AAE?AV?$Local@VValue@v8@@@2@H@Z 10069a40     node:node.exe
 0003:00002a44       __imp_?New@Object@v8@@SA?AV?$Local@VObject@v8@@@2@PAVIsolate@2@@Z 10069a44     node:node.exe
 0003:00002a48       __imp_?GetIsolate@Object@v8@@QAEPAVIsolate@2@XZ 10069a48     node:node.exe
 0003:00002a4c       __imp_?Clone@Object@v8@@QAE?AV?$Local@VObject@v8@@@2@XZ 10069a4c     node:node.exe
 0003:00002a50       __imp_?SetAlignedPointerInInternalField@Object@v8@@QAEXHPAX@Z 10069a50     node:node.exe
 0003:00002a54       __imp_?SetInternalField@Object@v8@@QAEXHV?$Local@VValue@v8@@@2@@Z 10069a54     node:node.exe
 0003:00002a58       __imp_?SetPrototype@Object@v8@@QAE_NV?$Local@VValue@v8@@@2@@Z 10069a58     node:node.exe
 0003:00002a5c       __imp_?GetPrototype@Object@v8@@QAE?AV?$Local@VValue@v8@@@2@XZ 10069a5c     node:node.exe
 0003:00002a60       __imp_?GetOwnPropertyNames@Object@v8@@QAE?AV?$Local@VArray@v8@@@2@XZ 10069a60     node:node.exe
 0003:00002a64       __imp_?Get@Object@v8@@QAE?AV?$Local@VValue@v8@@@2@V32@@Z 10069a64     node:node.exe
 0003:00002a68       __imp_?Get@Object@v8@@QAE?AV?$Local@VValue@v8@@@2@I@Z 10069a68     node:node.exe
 0003:00002a6c       __imp_?Set@Object@v8@@QAE_NV?$Local@VValue@v8@@@2@0@Z 10069a6c     node:node.exe
 0003:00002a70       __imp_?Set@Object@v8@@QAE_NIV?$Local@VValue@v8@@@2@@Z 10069a70     node:node.exe
 0003:00002a74       __imp_?SetName@Function@v8@@QAEXV?$Local@VString@v8@@@2@@Z 10069a74     node:node.exe
 0003:00002a78       __imp_?Call@Function@v8@@QAE?AV?$Local@VValue@v8@@@2@V32@HQAV32@@Z 10069a78     node:node.exe
 0003:00002a7c       __imp_?NewInstance@Function@v8@@QBE?AV?$Local@VObject@v8@@@2@XZ 10069a7c     node:node.exe
 0003:00002a80       __imp_?SetInternalFieldCount@ObjectTemplate@v8@@QAEXH@Z 10069a80     node:node.exe
 0003:00002a84       __imp_?SetNamedPropertyHandler@ObjectTemplate@v8@@QAEXP6AXV?$Local@VString@v8@@@2@ABV?$PropertyCallbackInfo@VValue@v8@@@2@@ZP6AX0V?$Local@VValue@v8@@@2@1@ZP6AX0ABV?$PropertyCallbackInfo@VInteger@v8@@@2@@ZP6AX0ABV?$PropertyCallbackInfo@VBoolean@v8@@@2@@ZP6AXABV?$PropertyCallbackInfo@VArray@v8@@@2@@Z3@Z 10069a84     node:node.exe
 0003:00002a88       __imp_?SetAccessor@ObjectTemplate@v8@@QAEXV?$Local@VString@v8@@@2@P6AX0ABV?$PropertyCallbackInfo@VValue@v8@@@2@@ZP6AX0V?$Local@VValue@v8@@@2@ABV?$PropertyCallbackInfo@X@2@@Z3W4AccessControl@2@W4PropertyAttribute@2@V?$Local@VAccessorSignature@v8@@@2@@Z 10069a88     node:node.exe
 0003:00002a8c       __imp_?NewInstance@ObjectTemplate@v8@@QAE?AV?$Local@VObject@v8@@@2@XZ 10069a8c     node:node.exe
 0003:00002a90       __imp_?New@ObjectTemplate@v8@@SA?AV?$Local@VObjectTemplate@v8@@@2@PAVIsolate@2@V?$Local@VFunctionTemplate@v8@@@2@@Z 10069a90     node:node.exe
 0003:00002a94       __imp__node_module_register 10069a94     node:node.exe
 0003:00002a98       __imp_?HasInstance@Buffer@node@@YA_NV?$Local@VValue@v8@@@v8@@@Z 10069a98     node:node.exe
 0003:00002a9c       __imp_?Data@Buffer@node@@YAPADV?$Local@VValue@v8@@@v8@@@Z 10069a9c     node:node.exe
 0003:00002aa0       __imp_?Length@Buffer@node@@YAIV?$Local@VValue@v8@@@v8@@@Z 10069aa0     node:node.exe
 0003:00002aa4       __imp_?MakeCallback@node@@YA?AV?$Local@VValue@v8@@@v8@@PAVIsolate@3@V?$Local@VObject@v8@@@3@V?$Local@VFunction@v8@@@3@HPAV23@@Z 10069aa4     node:node.exe
 0003:00002aa8       __imp__uv_check_init       10069aa8     node:node.exe
 0003:00002aac       __imp__uv_check_start      10069aac     node:node.exe
 0003:00002ab0       __imp_?ToObject@Value@v8@@QBE?AV?$Local@VObject@v8@@@2@XZ 10069ab0     node:node.exe
 0003:00002ab4       \177node_NULL_THUNK_DATA_DLA 10069ab4     node:node.exe
 0003:00002ab8       __hmod__node_exe           10069ab8     node:node.exe
 0003:00002abc       ?_Static@?1???$_Immortalize@V_Generic_error_category@std@@@std@@YAAAV_Generic_error_category@1@XZ@4U?$_Immortalizer@V_Generic_error_category@std@@@1@A 10069abc     libcpmt:thread0.obj
 0003:00002ac4       ??_B?1???$_Immortalize@V_Generic_error_category@std@@@std@@YAAAV_Generic_error_category@0@XZ@51 10069ac4     libcpmt:thread0.obj
 0003:00002ac8       ?__stl_sync_api_impl_mode@@3W4__stl_sync_api_modes_enum@@A 10069ac8     libcpmt:mutex.obj
 0003:00002ba0       ?cout@std@@3V?$basic_ostream@DU?$char_traits@D@std@@@1@A 10069ba0     libcpmt:cout.obj
 0003:00002c48       ?id@?$codecvt@DDU_Mbstatet@@@std@@2V0locale@2@A 10069c48     libcpmt:cout.obj
 0003:00002c4c       ?_Stinit@?1??_Init@?$basic_filebuf@DU?$char_traits@D@std@@@std@@IAEXPAU_iobuf@@W4_Initfl@23@@Z@4U_Mbstatet@@A 10069c4c     libcpmt:cout.obj
 0003:00002c54       ?_Psave@?$_Facetptr@V?$codecvt@DDU_Mbstatet@@@std@@@std@@2PBVfacet@locale@2@B 10069c54     libcpmt:cout.obj
 0003:00002c58       ?_Id_cnt@id@locale@std@@0HA 10069c58     libcpmt:locale0.obj
 0003:00002c5c       ?_Clocptr@_Locimp@locale@std@@0PAV123@A 10069c5c     libcpmt:locale0.obj
 0003:00002c68       ?id@?$ctype@G@std@@2V0locale@2@A 10069c68     libcpmt:locale0.obj
 0003:00002c6c       ?id@?$codecvt@_WDU_Mbstatet@@@std@@2V0locale@2@A 10069c6c     libcpmt:locale0.obj
 0003:00002c70       ?id@?$codecvt@GDU_Mbstatet@@@std@@2V0locale@2@A 10069c70     libcpmt:locale0.obj
 0003:00002c74       ?id@?$ctype@_W@std@@2V0locale@2@A 10069c74     libcpmt:locale0.obj
 0003:00002c78       ?id@?$ctype@D@std@@2V0locale@2@A 10069c78     libcpmt:locale0.obj
 0003:00002c90       ?cerr@std@@3V?$basic_ostream@DU?$char_traits@D@std@@@1@A 10069c90     libcpmt:cerr.obj
 0003:00002d38       ?_Raise_handler@std@@3P6AXABVexception@stdext@@@ZA 10069d38     libcpmt:raisehan.obj
 0003:00002d40       ___encodedKERNEL32Functions 10069d40     libcpmt:winapisupp.obj
 0003:00002de0       ?_Index@ios_base@std@@0HA  10069de0     libcpmt:ios.obj
 0003:00002e18       ?_Ptr_cin@std@@3PAV?$basic_istream@DU?$char_traits@D@std@@@1@A 10069e18     libcpmt:iosptrs.obj
 0003:00002e1c       ?_Ptr_cout@std@@3PAV?$basic_ostream@DU?$char_traits@D@std@@@1@A 10069e1c     libcpmt:iosptrs.obj
 0003:00002e20       ?_Ptr_cerr@std@@3PAV?$basic_ostream@DU?$char_traits@D@std@@@1@A 10069e20     libcpmt:iosptrs.obj
 0003:00002e24       ?_Ptr_clog@std@@3PAV?$basic_ostream@DU?$char_traits@D@std@@@1@A 10069e24     libcpmt:iosptrs.obj
 0003:00002e28       ?_Ptr_wcin@std@@3PAV?$basic_istream@_WU?$char_traits@_W@std@@@1@A 10069e28     libcpmt:iosptrs.obj
 0003:00002e2c       ?_Ptr_wcout@std@@3PAV?$basic_ostream@_WU?$char_traits@_W@std@@@1@A 10069e2c     libcpmt:iosptrs.obj
 0003:00002e30       ?_Ptr_wcerr@std@@3PAV?$basic_ostream@_WU?$char_traits@_W@std@@@1@A 10069e30     libcpmt:iosptrs.obj
 0003:00002e34       ?_Ptr_wclog@std@@3PAV?$basic_ostream@_WU?$char_traits@_W@std@@@1@A 10069e34     libcpmt:iosptrs.obj
 0003:00002e64       ?id@?$num_get@DV?$istreambuf_iterator@DU?$char_traits@D@std@@@std@@@std@@2V0locale@2@A 10069e64     libcpmt:locale.obj
 0003:00002e68       ?id@?$time_put@_WV?$ostreambuf_iterator@_WU?$char_traits@_W@std@@@std@@@std@@2V0locale@2@A 10069e68     libcpmt:wlocale.obj
 0003:00002e6c       ?id@?$num_get@_WV?$istreambuf_iterator@_WU?$char_traits@_W@std@@@std@@@std@@2V0locale@2@A 10069e6c     libcpmt:wlocale.obj
 0003:00002e70       ?id@?$num_put@_WV?$ostreambuf_iterator@_WU?$char_traits@_W@std@@@std@@@std@@2V0locale@2@A 10069e70     libcpmt:wlocale.obj
 0003:00002e74       ?id@?$numpunct@_W@std@@2V0locale@2@A 10069e74     libcpmt:wlocale.obj
 0003:00002e78       ?id@?$collate@_W@std@@2V0locale@2@A 10069e78     libcpmt:wlocale.obj
 0003:00002e7c       ?id@?$messages@_W@std@@2V0locale@2@A 10069e7c     libcpmt:wlocale.obj
 0003:00002e80       ?id@?$money_get@_WV?$istreambuf_iterator@_WU?$char_traits@_W@std@@@std@@@std@@2V0locale@2@A 10069e80     libcpmt:wlocale.obj
 0003:00002e84       ?id@?$money_put@_WV?$ostreambuf_iterator@_WU?$char_traits@_W@std@@@std@@@std@@2V0locale@2@A 10069e84     libcpmt:wlocale.obj
 0003:00002e88       ?id@?$moneypunct@_W$0A@@std@@2V0locale@2@A 10069e88     libcpmt:wlocale.obj
 0003:00002e8c       ?id@?$moneypunct@_W$00@std@@2V0locale@2@A 10069e8c     libcpmt:wlocale.obj
 0003:00002e90       ?id@?$time_get@_WV?$istreambuf_iterator@_WU?$char_traits@_W@std@@@std@@@std@@2V0locale@2@A 10069e90     libcpmt:wlocale.obj
 0003:00002e94       ?id@?$num_get@GV?$istreambuf_iterator@GU?$char_traits@G@std@@@std@@@std@@2V0locale@2@A 10069e94     libcpmt:wlocale.obj
 0003:00002e98       ?id@?$num_put@GV?$ostreambuf_iterator@GU?$char_traits@G@std@@@std@@@std@@2V0locale@2@A 10069e98     libcpmt:wlocale.obj
 0003:00002e9c       ?id@?$numpunct@G@std@@2V0locale@2@A 10069e9c     libcpmt:wlocale.obj
 0003:00002ea0       ?id@?$collate@G@std@@2V0locale@2@A 10069ea0     libcpmt:wlocale.obj
 0003:00002ea4       ?id@?$messages@G@std@@2V0locale@2@A 10069ea4     libcpmt:wlocale.obj
 0003:00002ea8       ?id@?$money_get@GV?$istreambuf_iterator@GU?$char_traits@G@std@@@std@@@std@@2V0locale@2@A 10069ea8     libcpmt:wlocale.obj
 0003:00002eac       ?id@?$money_put@GV?$ostreambuf_iterator@GU?$char_traits@G@std@@@std@@@std@@2V0locale@2@A 10069eac     libcpmt:wlocale.obj
 0003:00002eb0       ?id@?$moneypunct@G$0A@@std@@2V0locale@2@A 10069eb0     libcpmt:wlocale.obj
 0003:00002eb4       ?id@?$moneypunct@G$00@std@@2V0locale@2@A 10069eb4     libcpmt:wlocale.obj
 0003:00002eb8       ?id@?$time_get@GV?$istreambuf_iterator@GU?$char_traits@G@std@@@std@@@std@@2V0locale@2@A 10069eb8     libcpmt:wlocale.obj
 0003:00002ebc       ?id@?$time_put@GV?$ostreambuf_iterator@GU?$char_traits@G@std@@@std@@@std@@2V0locale@2@A 10069ebc     libcpmt:wlocale.obj
 0003:00002ec0       ?id@?$collate@D@std@@2V0locale@2@A 10069ec0     libcpmt:xlocale.obj
 0003:00002ec4       ?id@?$messages@D@std@@2V0locale@2@A 10069ec4     libcpmt:xlocale.obj
 0003:00002ec8       ?id@?$money_get@DV?$istreambuf_iterator@DU?$char_traits@D@std@@@std@@@std@@2V0locale@2@A 10069ec8     libcpmt:xlocale.obj
 0003:00002ecc       ?id@?$money_put@DV?$ostreambuf_iterator@DU?$char_traits@D@std@@@std@@@std@@2V0locale@2@A 10069ecc     libcpmt:xlocale.obj
 0003:00002ed0       ?id@?$moneypunct@D$0A@@std@@2V0locale@2@A 10069ed0     libcpmt:xlocale.obj
 0003:00002ed4       ?id@?$moneypunct@D$00@std@@2V0locale@2@A 10069ed4     libcpmt:xlocale.obj
 0003:00002ed8       ?id@?$time_get@DV?$istreambuf_iterator@DU?$char_traits@D@std@@@std@@@std@@2V0locale@2@A 10069ed8     libcpmt:xlocale.obj
 0003:00002edc       ?id@?$time_put@DV?$ostreambuf_iterator@DU?$char_traits@D@std@@@std@@@std@@2V0locale@2@A 10069edc     libcpmt:xlocale.obj
 0003:00002ee0       ___scrt_current_native_startup_state 10069ee0     LIBCMT:utility.obj
 0003:00002ee4       ___scrt_native_startup_lock 10069ee4     LIBCMT:utility.obj
 0003:0000324c       ___isa_available           1006a24c     LIBCMT:_cpu_disp_.obj
 0003:00003250       ___favor                   1006a250     LIBCMT:_cpu_disp_.obj
 0003:00003254       ___scrt_debugger_hook_flag 1006a254     LIBCMT:utility_desktop.obj
 0003:00003258       __tls_index                1006a258     LIBCMT:tlssup.obj
 0003:00003260       ?__type_info_root_node@@3U__type_info_node@@A 1006a260     LIBCMT:tncleanup.obj
 0003:00003268       ?_OptionsStorage@?1??__local_stdio_scanf_options@@9@4_KA 1006a268     LIBCMT:default_local_stdio_options.obj
 0003:00003298       ?LoadLibraryCount@details@Concurrency@@3JC 1006a298     libconcrt:utils.obj
 0003:0000329c       ?HostModule@details@Concurrency@@3PAUHINSTANCE__@@A 1006a29c     libconcrt:utils.obj
 0003:000032a4       ?s_pResourceManager@ResourceManager@details@Concurrency@@0PAV123@A 1006a2a4     libconcrt:ResourceManager.obj
 0003:000032a8       ?s_processAffinityMask@ResourceManager@details@Concurrency@@0KA 1006a2a8     libconcrt:ResourceManager.obj
 0003:000032ac       ?s_systemAffinityMask@ResourceManager@details@Concurrency@@0KA 1006a2ac     libconcrt:ResourceManager.obj
 0003:000032b0       ?s_pUserAffinityRestriction@ResourceManager@details@Concurrency@@0PAUAffinityRestriction@123@A 1006a2b0     libconcrt:ResourceManager.obj
 0003:000032b4       ?s_pProcessAffinityRestriction@ResourceManager@details@Concurrency@@0PAUAffinityRestriction@123@A 1006a2b4     libconcrt:ResourceManager.obj
 0003:000032b8       ?s_coreCount@ResourceManager@details@Concurrency@@0IA 1006a2b8     libconcrt:ResourceManager.obj
 0003:000032bc       ?s_countProcessorPackages@ResourceManager@details@Concurrency@@0_NA 1006a2bc     libconcrt:ResourceManager.obj
 0003:000032c0       ?s_nodeCount@ResourceManager@details@Concurrency@@0IA 1006a2c0     libconcrt:ResourceManager.obj
 0003:000032c4       ?s_numaNodeCount@ResourceManager@details@Concurrency@@0IA 1006a2c4     libconcrt:ResourceManager.obj
 0003:000032c8       ?s_version@ResourceManager@details@Concurrency@@0W4OSVersion@IResourceManager@3@A 1006a2c8     libconcrt:ResourceManager.obj
 0003:000032cc       ?s_logicalProcessorInformationLength@ResourceManager@details@Concurrency@@0KA 1006a2cc     libconcrt:ResourceManager.obj
 0003:000032d0       ?s_pSysInfo@ResourceManager@details@Concurrency@@0PAU_SYSTEM_LOGICAL_PROCESSOR_INFORMATION@@A 1006a2d0     libconcrt:ResourceManager.obj
 0003:000032d4       ?s_pDefaultScheduler@SchedulerBase@details@Concurrency@@1PAV123@A 1006a2d4     libconcrt:SchedulerBase.obj
 0003:000032d8       ?s_pDefaultSchedulerPolicy@SchedulerBase@details@Concurrency@@1PAVSchedulerPolicy@3@A 1006a2d8     libconcrt:SchedulerBase.obj
 0003:000032dc       ?t_dwContextIndex@SchedulerBase@details@Concurrency@@1KA 1006a2dc     libconcrt:SchedulerBase.obj
 0003:000032e0       ?s_workQueueIdCounter@SchedulerBase@details@Concurrency@@0JC 1006a2e0     libconcrt:SchedulerBase.obj
 0003:000032e4       ?s_initializedCount@SchedulerBase@details@Concurrency@@0JA 1006a2e4     libconcrt:SchedulerBase.obj
 0003:000032e8       ?s_numExternalAllocators@SchedulerBase@details@Concurrency@@0JC 1006a2e8     libconcrt:SchedulerBase.obj
 0003:000032ec       ?g_TimerQueueDemandInit@details@Concurrency@@3JC 1006a2ec     libconcrt:event.obj
 0003:000032f0       ?g_hTimerQueue@details@Concurrency@@3RAXA 1006a2f0     libconcrt:event.obj
 0003:000032f8       ?s_initialized@Security@details@Concurrency@@2JC 1006a2f8     libconcrt:staticinits.obj
 0003:000032fc       ?s_schedulerLock@SchedulerBase@details@Concurrency@@0V_NonReentrantLock@23@A 1006a2fc     libconcrt:staticinits.obj
 0003:00003300       ?s_cookie@Security@details@Concurrency@@2KA 1006a300     libconcrt:staticinits.obj
 0003:00003304       ?s_defaultSchedulerLock@SchedulerBase@details@Concurrency@@1V_NonReentrantLock@23@A 1006a304     libconcrt:staticinits.obj
 0003:00003308       ?s_subAllocatorFreePool@SchedulerBase@details@Concurrency@@0V?$LockFreeStack@VSubAllocator@details@Concurrency@@@23@A 1006a308     libconcrt:staticinits.obj
 0003:00003310       ?s_lock@Etw@details@Concurrency@@0V_NonReentrantLock@23@A 1006a310     libconcrt:staticinits.obj
 0003:00003314       ?s_lock@ResourceManager@details@Concurrency@@0V_NonReentrantLock@23@A 1006a314     libconcrt:staticinits.obj
 0003:00003318       ?s_pfn_RoInitialize@WinRT@details@Concurrency@@0P6GJW4RO_INIT_TYPE@@@ZA 1006a318     libconcrt:WinRTWrapper.obj
 0003:0000331c       ?s_pfn_RoUninitialize@WinRT@details@Concurrency@@0P6GXXZA 1006a31c     libconcrt:WinRTWrapper.obj
 0003:00003320       ?m_hModule@WinRT@details@Concurrency@@0PAUHINSTANCE__@@A 1006a320     libconcrt:WinRTWrapper.obj
 0003:00003324       ?s_fInitialized@WinRT@details@Concurrency@@0JC 1006a324     libconcrt:WinRTWrapper.obj
 0003:00003328       ?s_bucketSize@?$ThreadProxyFactory@VFreeThreadProxy@details@Concurrency@@@details@Concurrency@@1HA 1006a328     libconcrt:ThreadProxyFactoryManager.obj
 0003:00003330       ?g_TraceInfo@details@Concurrency@@3U_CONCRT_TRACE_INFO@12@A 1006a330     libconcrt:Trace.obj
 0003:00003338       ?g_ConcRTSessionHandle@details@Concurrency@@3_KA 1006a338     libconcrt:Trace.obj
 0003:00003340       ?g_pEtw@details@Concurrency@@3PAVEtw@12@A 1006a340     libconcrt:Trace.obj
 0003:00003348       ?g_ConcRTPRoviderHandle@details@Concurrency@@3_KA 1006a348     libconcrt:Trace.obj
 0003:00003350       ?t_dwSchedulingContextIndex@UMSThreadScheduler@details@Concurrency@@0KA 1006a350     libconcrt:UMSThreadScheduler.obj
 0003:00003354       ?s_currentId@VirtualProcessorRoot@details@Concurrency@@0JA 1006a354     libconcrt:VirtualProcessorRoot.obj
 0003:00003358       ?s_pfn_CreateUmsCompletionList@UMS@details@Concurrency@@0P6GHPAPAX@ZA 1006a358     libconcrt:UMSWrapper.obj
 0003:0000335c       ?s_pfn_DequeueUmsCompletionListItems@UMS@details@Concurrency@@0P6GHPAXKPAPAX@ZA 1006a35c     libconcrt:UMSWrapper.obj
 0003:00003360       ?s_pfn_GetUmsCompletionListEvent@UMS@details@Concurrency@@0P6GHPAXPAPAX@ZA 1006a360     libconcrt:UMSWrapper.obj
 0003:00003364       ?s_pfn_ExecuteUmsThread@UMS@details@Concurrency@@0P6GHPAX@ZA 1006a364     libconcrt:UMSWrapper.obj
 0003:00003368       ?s_pfn_UmsThreadYield@UMS@details@Concurrency@@0P6GHPAX@ZA 1006a368     libconcrt:UMSWrapper.obj
 0003:0000336c       ?s_pfn_DeleteUmsCompletionList@UMS@details@Concurrency@@0P6GHPAX@ZA 1006a36c     libconcrt:UMSWrapper.obj
 0003:00003370       ?s_pfn_GetCurrentUmsThread@UMS@details@Concurrency@@0P6GPAXXZA 1006a370     libconcrt:UMSWrapper.obj
 0003:00003374       ?s_pfn_GetNextUmsListItem@UMS@details@Concurrency@@0P6GPAXPAX@ZA 1006a374     libconcrt:UMSWrapper.obj
 0003:00003378       ?s_pfn_QueryUmsThreadInformation@UMS@details@Concurrency@@0P6GHPAXW4_RTL_UMS_THREAD_INFO_CLASS@@0KPAK@ZA 1006a378     libconcrt:UMSWrapper.obj
 0003:0000337c       ?s_pfn_SetUmsThreadInformation@UMS@details@Concurrency@@0P6GHPAXW4_RTL_UMS_THREAD_INFO_CLASS@@0K@ZA 1006a37c     libconcrt:UMSWrapper.obj
 0003:00003380       ?s_pfn_DeleteUmsThreadContext@UMS@details@Concurrency@@0P6GHPAX@ZA 1006a380     libconcrt:UMSWrapper.obj
 0003:00003384       ?s_pfn_CreateUmsThreadContext@UMS@details@Concurrency@@0P6GHPAPAX@ZA 1006a384     libconcrt:UMSWrapper.obj
 0003:00003388       ?s_pfn_EnterUmsSchedulingMode@UMS@details@Concurrency@@0P6GHPAU_UMS_SCHEDULER_STARTUP_INFO@@@ZA 1006a388     libconcrt:UMSWrapper.obj
 0003:0000338c       ?s_pfn_CreateRemoteThreadEx@UMS@details@Concurrency@@0P6GPAXPAXPAU_SECURITY_ATTRIBUTES@@KP6GK0@Z0KPAU_PROC_THREAD_ATTRIBUTE_LIST@@PAK@ZA 1006a38c     libconcrt:UMSWrapper.obj
 0003:00003390       ?s_pfn_InitializeProcThreadAttributeList@UMS@details@Concurrency@@0P6GHPAU_PROC_THREAD_ATTRIBUTE_LIST@@KKPAK@ZA 1006a390     libconcrt:UMSWrapper.obj
 0003:00003394       ?s_pfn_UpdateProcThreadAttribute@UMS@details@Concurrency@@0P6GHPAU_PROC_THREAD_ATTRIBUTE_LIST@@KKPAXK1PAK@ZA 1006a394     libconcrt:UMSWrapper.obj
 0003:00003398       ?s_pfn_DeleteProcThreadAttributeList@UMS@details@Concurrency@@0P6GXPAU_PROC_THREAD_ATTRIBUTE_LIST@@@ZA 1006a398     libconcrt:UMSWrapper.obj
 0003:0000339c       ?s_fInitialized@UMS@details@Concurrency@@0JC 1006a39c     libconcrt:UMSWrapper.obj
 0003:000033a0       ?g_OutOfMemoryExceptionCallback@@3P6GPAXXZA 1006a3a0     libvcruntime:frame.obj
 0003:000033d8       ___pPurecall               1006a3d8     libvcruntime:purevirt_data.obj
 0003:00003420       ?pArgList@UnDecorator@@0PAVReplicator@@A 1006a420     libvcruntime:undname.obj
 0003:00003424       ?pZNameList@UnDecorator@@0PAVReplicator@@A 1006a424     libvcruntime:undname.obj
 0003:00003428       ?pTemplateArgList@UnDecorator@@0PAVReplicator@@A 1006a428     libvcruntime:undname.obj
 0003:0000342c       ?gName@UnDecorator@@0PBDB  1006a42c     libvcruntime:undname.obj
 0003:00003430       ?name@UnDecorator@@0PBDB   1006a430     libvcruntime:undname.obj
 0003:00003434       ?outputString@UnDecorator@@0PADA 1006a434     libvcruntime:undname.obj
 0003:00003438       ?maxStringLength@UnDecorator@@0HA 1006a438     libvcruntime:undname.obj
 0003:0000343c       ?disableFlags@UnDecorator@@0KA 1006a43c     libvcruntime:undname.obj
 0003:00003440       ?fExplicitTemplateParams@UnDecorator@@0_NA 1006a440     libvcruntime:undname.obj
 0003:00003441       ?fGetTemplateArgumentList@UnDecorator@@0_NA 1006a441     libvcruntime:undname.obj
 0003:00003444       ?m_pGetParameter@UnDecorator@@0P6APADJ@ZA 1006a444     libvcruntime:undname.obj
 0003:00003460       ___acrt_lconv_static_null  1006a460     libucrt:localeconv.obj
 0003:00003464       ___acrt_lconv_static_W_null 1006a464     libucrt:localeconv.obj
 0003:000035a4       __nstream                  1006a5a4     libucrt:_file.obj
 0003:000035a8       ___piob                    1006a5a8     libucrt:_file.obj
 0003:000035ac       __cflush                   1006a5ac     libucrt:_file.obj
 0003:000036c8       __environ_table            1006a6c8     libucrt:environment_initialization.obj
 0003:000036cc       __wenviron_table           1006a6cc     libucrt:environment_initialization.obj
 0003:000036d0       ___dcrt_initial_wide_environment 1006a6d0     libucrt:environment_initialization.obj
 0003:000036d4       ___dcrt_initial_narrow_environment 1006a6d4     libucrt:environment_initialization.obj
 0003:000036d8       ___acrt_atexit_table       1006a6d8     libucrt:onexit.obj
 0003:000036e4       ___acrt_at_quick_exit_table 1006a6e4     libucrt:onexit.obj
 0003:000036f0       ___acrt_locale_changed_data 1006a6f0     libucrt:wsetlocale.obj
 0003:000036f4       ___acrt_current_locale_data 1006a6f4     libucrt:nlsdata.obj
 0003:0000370c       ___acrt_stdout_buffer      1006a70c     libucrt:_sftbuf.obj
 0003:00003710       ___acrt_stderr_buffer      1006a710     libucrt:_sftbuf.obj
 0003:00003718       ___pioinfo                 1006a718     libucrt:ioinit.obj
 0003:00003918       __nhandle                  1006a918     libucrt:ioinit.obj
 0003:00003920       ___acrt_heap               1006a920     libucrt:heap_handle.obj
 0003:00003a00       ___fastflag                1006aa00     libucrt:fp_flags.obj
 0003:00003a04       ?_timezone@@3V?$dual_state_global@J@__crt_state_management@@A 1006aa04     libucrt:timeset.obj
 0003:00003a08       ?_daylight@@3V?$dual_state_global@H@__crt_state_management@@A 1006aa08     libucrt:timeset.obj
 0003:00003a0c       ?_dstbias@@3V?$dual_state_global@J@__crt_state_management@@A 1006aa0c     libucrt:timeset.obj
 0003:00003acc       ___mblocalename            1006aacc     libucrt:mbctype.obj
 0003:00003ad0       ___mbcodepage              1006aad0     libucrt:mbctype.obj
 0003:00003ad4       ___ismbcodepage            1006aad4     libucrt:mbctype.obj
 0003:00003ad8       ___mbulinfo                1006aad8     libucrt:mbctype.obj
 0003:00003aec       ___argc                    1006aaec     libucrt:argv_data.obj
 0003:00003af0       ___argv                    1006aaf0     libucrt:argv_data.obj
 0003:00003af4       ___wargv                   1006aaf4     libucrt:argv_data.obj
 0003:00003af8       __acmdln                   1006aaf8     libucrt:argv_data.obj
 0003:00003afc       __wcmdln                   1006aafc     libucrt:argv_data.obj
 0003:00003b00       __pgmptr                   1006ab00     libucrt:argv_data.obj
 0003:00003b10       ?DloadKernel32@@3PAUHINSTANCE__@@A 1006ab10     DelayImp:delayhlp.obj
 0003:00003b14       ?DloadAcquireSRWLockExclusive@@3P6GXPAK@ZA 1006ab14     DelayImp:delayhlp.obj
 0003:00003b18       ?DloadReleaseSRWLockExclusive@@3P6GXPAK@ZA 1006ab18     DelayImp:delayhlp.obj
 0003:00003b1c       ?DloadSrwLock@@3KA         1006ab1c     DelayImp:delayhlp.obj
 0003:00003b20       ?DloadSectionLockCount@@3KA 1006ab20     DelayImp:delayhlp.obj
 0003:00003b24       ?DloadSectionOldProtection@@3KA 1006ab24     DelayImp:delayhlp.obj
 0003:00003b28       ?DloadSectionCommitPermanent@@3KA 1006ab28     DelayImp:delayhlp.obj
 0003:00003b30       ?m_badAllocExceptionPtr@__ExceptionPtr@@0V?$shared_ptr@V__ExceptionPtr@@@std@@A 1006ab30     libcpmt:excptptr.obj
 0003:00003bb0       ?check@@3Uuv_check_s@@A    1006abb0     addon.obj
 0003:00003bec       ?currentReq@@3PAUHttpRequest@uWS@@A 1006abec     addon.obj
 0003:00003bf0       ?windowsInit@uS@@3UWindowsInit@1@A 1006abf0     Networking.obj
 0003:00003d80       ?init@TLS@uS@@3UInit@12@A  1006ad80     Networking.obj
 0003:00003d84       ?resTemplate@@3V?$Persistent@VObject@v8@@V?$NonCopyablePersistentTraits@VObject@v8@@@2@@v8@@A 1006ad84     addon.obj
 0003:00003d88       ?reqTemplate@@3V?$Persistent@VObject@v8@@V?$NonCopyablePersistentTraits@VObject@v8@@@2@@v8@@A 1006ad88     addon.obj
 0003:00003d8c       ?noop@@3V?$Persistent@VFunction@v8@@V?$NonCopyablePersistentTraits@VFunction@v8@@@2@@v8@@A 1006ad8c     addon.obj
 0003:00003d90       ?httpPersistent@@3V?$Persistent@VFunction@v8@@V?$NonCopyablePersistentTraits@VFunction@v8@@@2@@v8@@A 1006ad90     addon.obj
 0003:00003d98       ?hub@@3UHub@uWS@@A         1006ad98     addon.obj
 0003:00004368       ?_Psave@?$_Facetptr@V?$numpunct@D@std@@@std@@2PBVfacet@locale@2@B 1006b368     addon.obj
 0003:0000436c       ?_Psave@?$_Facetptr@V?$num_put@DV?$ostreambuf_iterator@DU?$char_traits@D@std@@@std@@@std@@@std@@2PBVfacet@locale@2@B 1006b36c     addon.obj
 0003:00004370       ?_Psave@?$_Facetptr@V?$ctype@D@std@@@std@@2PBVfacet@locale@2@B 1006b370     addon.obj
 0003:00004374       ?empty@?BH@???0NativeString@@QAE@ABV?$Local@VValue@v8@@@v8@@@Z@4PADA 1006b374     addon.obj
 0003:00004378       ?id@?$num_put@DV?$ostreambuf_iterator@DU?$char_traits@D@std@@@std@@@std@@2V0locale@2@A 1006b378     addon.obj
 0003:0000437c       ?_Static@?1???$_Immortalize@V_Iostream_error_category@std@@@std@@YAAAV_Iostream_error_category@1@XZ@4U?$_Immortalizer@V_Iostream_error_category@std@@@1@A 1006b37c     addon.obj
 0003:00004388       ?_OptionsStorage@?1??__local_stdio_printf_options@@9@4_KA 1006b388     addon.obj
 0003:00004390       ?$TSS0@?1???$_Immortalize@V_Iostream_error_category@std@@@std@@YAAAV_Iostream_error_category@1@XZ@4HA 1006b390     addon.obj
 0003:00004394       ?id@?$numpunct@D@std@@2V0locale@2@A 1006b394     addon.obj
 0003:00004398       ___dyn_tls_init_callback   1006b398     <common>
 0003:0000439c       ___scrt_ucrt_dll_is_in_use 1006b39c     <common>
 0003:000043a0       __pmatherr                 1006b3a0     <common>
 0003:000043a4       ___use_sse2_mathfcns       1006b3a4     <common>
 0005:00000000       __tls_start                1006d000     LIBCMT:tlssup.obj
 0005:00000008       __Init_thread_epoch        1006d008     LIBCMT:thread_safe_statics.obj
 0005:00000051       __tls_end                  1006d051     LIBCMT:tlssup.obj

 entry point at        0001:0001a8df

 Static symbols

 0000:fff8c000       .debug$S                   10000000     node:node.exe
 0000:fff8c000       .debug$S                   10000000     node:node.exe
 0000:fff8c000       .debug$S                   10000000     node:node.exe
 0000:fff8c000       .debug$S                   10000000     node:node.exe
 0000:fff8c000       .debug$S                   10000000     node:node.exe
 0000:fff8c000       .debug$S                   10000000     node:node.exe
 0000:fff8c000       .debug$S                   10000000     node:node.exe
 0000:fff8c000       .debug$S                   10000000     node:node.exe
 0000:fff8c000       .debug$S                   10000000     node:node.exe
 0000:fff8c000       .debug$S                   10000000     node:node.exe
 0000:fff8c000       .debug$S                   10000000     node:node.exe
 0000:fff8c000       .debug$S                   10000000     node:node.exe
 0000:fff8c000       .debug$S                   10000000     node:node.exe
 0000:fff8c000       .debug$S                   10000000     node:node.exe
 0000:fff8c000       .debug$S                   10000000     node:node.exe
 0000:fff8c000       .debug$S                   10000000     node:node.exe
 0000:fff8c000       .debug$S                   10000000     node:node.exe
 0000:fff8c000       .debug$S                   10000000     node:node.exe
 0000:fff8c000       .debug$S                   10000000     node:node.exe
 0000:fff8c000       .debug$S                   10000000     node:node.exe
 0000:fff8c000       .debug$S                   10000000     node:node.exe
 0000:fff8c000       .debug$S                   10000000     node:node.exe
 0000:fff8c000       .debug$S                   10000000     node:node.exe
 0000:fff8c000       .debug$S                   10000000     node:node.exe
 0000:fff8c000       .debug$S                   10000000     kernel32:KERNEL32.dll
 0000:fff8c000       .debug$S                   10000000     kernel32:KERNEL32.dll
 0000:fff8c000       .debug$S                   10000000     kernel32:KERNEL32.dll
 0000:fff8c000       .debug$S                   10000000     kernel32:KERNEL32.dll
 0000:fff8c000       .debug$S                   10000000     kernel32:KERNEL32.dll
 0000:fff8c000       .debug$S                   10000000     kernel32:KERNEL32.dll
 0000:fff8c000       .debug$S                   10000000     kernel32:KERNEL32.dll
 0000:fff8c000       .debug$S                   10000000     kernel32:KERNEL32.dll
 0000:fff8c000       .debug$S                   10000000     kernel32:KERNEL32.dll
 0000:fff8c000       .debug$S                   10000000     kernel32:KERNEL32.dll
 0000:fff8c000       .debug$S                   10000000     kernel32:KERNEL32.dll
 0000:fff8c000       .debug$S                   10000000     kernel32:KERNEL32.dll
 0000:fff8c000       .debug$S                   10000000     kernel32:KERNEL32.dll
 0000:fff8c000       .debug$S                   10000000     kernel32:KERNEL32.dll
 0000:fff8c000       .debug$S                   10000000     kernel32:KERNEL32.dll
 0000:fff8c000       .debug$S                   10000000     kernel32:KERNEL32.dll
 0000:fff8c000       .debug$S                   10000000     kernel32:KERNEL32.dll
 0000:fff8c000       .debug$S                   10000000     kernel32:KERNEL32.dll
 0000:fff8c000       .debug$S                   10000000     kernel32:KERNEL32.dll
 0000:fff8c000       .debug$S                   10000000     kernel32:KERNEL32.dll
 0000:fff8c000       .debug$S                   10000000     kernel32:KERNEL32.dll
 0000:fff8c000       .debug$S                   10000000     kernel32:KERNEL32.dll
 0000:fff8c000       .debug$S                   10000000     kernel32:KERNEL32.dll
 0000:fff8c000       .debug$S                   10000000     kernel32:KERNEL32.dll
 0000:fff8c000       .debug$S                   10000000     kernel32:KERNEL32.dll
 0000:fff8c000       .debug$S                   10000000     kernel32:KERNEL32.dll
 0000:fff8c000       .debug$S                   10000000     kernel32:KERNEL32.dll
 0000:fff8c000       .debug$S                   10000000     kernel32:KERNEL32.dll
 0000:fff8c000       .debug$S                   10000000     kernel32:KERNEL32.dll
 0000:fff8c000       .debug$S                   10000000     kernel32:KERNEL32.dll
 0000:fff8c000       .debug$S                   10000000     kernel32:KERNEL32.dll
 0000:fff8c000       .debug$S                   10000000     kernel32:KERNEL32.dll
 0000:fff8c000       .debug$S                   10000000     kernel32:KERNEL32.dll
 0000:fff8c000       .debug$S                   10000000     kernel32:KERNEL32.dll
 0000:fff8c000       .debug$S                   10000000     kernel32:KERNEL32.dll
 0000:fff8c000       .debug$S                   10000000     kernel32:KERNEL32.dll
 0000:fff8c000       .debug$S                   10000000     kernel32:KERNEL32.dll
 0000:fff8c000       .debug$S                   10000000     kernel32:KERNEL32.dll
 0000:fff8c000       .debug$S                   10000000     kernel32:KERNEL32.dll
 0000:fff8c000       .debug$S                   10000000     kernel32:KERNEL32.dll
 0000:fff8c000       .debug$S                   10000000     kernel32:KERNEL32.dll
 0000:fff8c000       .debug$S                   10000000     kernel32:KERNEL32.dll
 0000:fff8c000       .debug$S                   10000000     kernel32:KERNEL32.dll
 0000:fff8c000       .debug$S                   10000000     kernel32:KERNEL32.dll
 0000:fff8c000       .debug$S                   10000000     kernel32:KERNEL32.dll
 0000:fff8c000       .debug$S                   10000000     uws.exp
 0000:fff8c000       .debug$S                   10000000     kernel32:KERNEL32.dll
 0000:fff8c000       .debug$S                   10000000     kernel32:KERNEL32.dll
 0000:fff8c000       .debug$S                   10000000     kernel32:KERNEL32.dll
 0000:fff8c000       .debug$S                   10000000     kernel32:KERNEL32.dll
 0000:fff8c000       .debug$S                   10000000     kernel32:KERNEL32.dll
 0000:fff8c000       .debug$S                   10000000     kernel32:KERNEL32.dll
 0000:fff8c000       .debug$S                   10000000     kernel32:KERNEL32.dll
 0000:fff8c000       .debug$S                   10000000     kernel32:KERNEL32.dll
 0000:fff8c000       .debug$S                   10000000     kernel32:KERNEL32.dll
 0000:fff8c000       .debug$S                   10000000     kernel32:KERNEL32.dll
 0000:fff8c000       .debug$S                   10000000     kernel32:KERNEL32.dll
 0000:fff8c000       .debug$S                   10000000     kernel32:KERNEL32.dll
 0000:fff8c000       .debug$S                   10000000     kernel32:KERNEL32.dll
 0000:fff8c000       .debug$S                   10000000     kernel32:KERNEL32.dll
 0000:fff8c000       .debug$S                   10000000     kernel32:KERNEL32.dll
 0000:fff8c000       .debug$S                   10000000     kernel32:KERNEL32.dll
 0000:fff8c000       .debug$S                   10000000     kernel32:KERNEL32.dll
 0000:fff8c000       .debug$S                   10000000     kernel32:KERNEL32.dll
 0000:fff8c000       .debug$S                   10000000     kernel32:KERNEL32.dll
 0000:fff8c000       .debug$S                   10000000     kernel32:KERNEL32.dll
 0000:fff8c000       .debug$S                   10000000     kernel32:KERNEL32.dll
 0000:fff8c000       .debug$S                   10000000     kernel32:KERNEL32.dll
 0000:fff8c000       .debug$S                   10000000     kernel32:KERNEL32.dll
 0000:fff8c000       .debug$S                   10000000     kernel32:KERNEL32.dll
 0000:fff8c000       .debug$S                   10000000     kernel32:KERNEL32.dll
 0000:fff8c000       .debug$S                   10000000     kernel32:KERNEL32.dll
 0000:fff8c000       .debug$S                   10000000     kernel32:KERNEL32.dll
 0000:fff8c000       .debug$S                   10000000     kernel32:KERNEL32.dll
 0000:fff8c000       .debug$S                   10000000     kernel32:KERNEL32.dll
 0000:fff8c000       .debug$S                   10000000     kernel32:KERNEL32.dll
 0000:fff8c000       .debug$S                   10000000     kernel32:KERNEL32.dll
 0000:fff8c000       .debug$S                   10000000     kernel32:KERNEL32.dll
 0000:fff8c000       .debug$S                   10000000     kernel32:KERNEL32.dll
 0000:fff8c000       .debug$S                   10000000     kernel32:KERNEL32.dll
 0000:fff8c000       .debug$S                   10000000     kernel32:KERNEL32.dll
 0000:fff8c000       .debug$S                   10000000     kernel32:KERNEL32.dll
 0000:fff8c000       .debug$S                   10000000     kernel32:KERNEL32.dll
 0000:fff8c000       .debug$S                   10000000     kernel32:KERNEL32.dll
 0000:fff8c000       .debug$S                   10000000     kernel32:KERNEL32.dll
 0000:fff8c000       .debug$S                   10000000     kernel32:KERNEL32.dll
 0000:fff8c000       .debug$S                   10000000     kernel32:KERNEL32.dll
 0000:fff8c000       .debug$S                   10000000     kernel32:KERNEL32.dll
 0000:fff8c000       .debug$S                   10000000     kernel32:KERNEL32.dll
 0000:fff8c000       .debug$S                   10000000     kernel32:KERNEL32.dll
 0000:fff8c000       .debug$S                   10000000     kernel32:KERNEL32.dll
 0000:fff8c000       .debug$S                   10000000     kernel32:KERNEL32.dll
 0000:fff8c000       .debug$S                   10000000     kernel32:KERNEL32.dll
 0000:fff8c000       .debug$S                   10000000     kernel32:KERNEL32.dll
 0000:fff8c000       .debug$S                   10000000     kernel32:KERNEL32.dll
 0000:fff8c000       .debug$S                   10000000     kernel32:KERNEL32.dll
 0000:fff8c000       .debug$S                   10000000     kernel32:KERNEL32.dll
 0000:fff8c000       .debug$S                   10000000     kernel32:KERNEL32.dll
 0000:fff8c000       .debug$S                   10000000     kernel32:KERNEL32.dll
 0000:fff8c000       .debug$S                   10000000     kernel32:KERNEL32.dll
 0000:fff8c000       .debug$S                   10000000     kernel32:KERNEL32.dll
 0000:fff8c000       .debug$S                   10000000     kernel32:KERNEL32.dll
 0000:fff8c000       .debug$S                   10000000     kernel32:KERNEL32.dll
 0000:fff8c000       .debug$S                   10000000     kernel32:KERNEL32.dll
 0000:fff8c000       .debug$S                   10000000     kernel32:KERNEL32.dll
 0000:fff8c000       .debug$S                   10000000     ws2_32:WS2_32.dll
 0000:fff8c000       .debug$S                   10000000     ws2_32:WS2_32.dll
 0000:fff8c000       .debug$S                   10000000     ws2_32:WS2_32.dll
 0000:fff8c000       .debug$S                   10000000     ws2_32:WS2_32.dll
 0000:fff8c000       .debug$S                   10000000     ws2_32:WS2_32.dll
 0000:fff8c000       .debug$S                   10000000     ws2_32:WS2_32.dll
 0000:fff8c000       .debug$S                   10000000     ws2_32:WS2_32.dll
 0000:fff8c000       .debug$S                   10000000     ws2_32:WS2_32.dll
 0000:fff8c000       .debug$S                   10000000     ws2_32:WS2_32.dll
 0000:fff8c000       .debug$S                   10000000     ws2_32:WS2_32.dll
 0000:fff8c000       .debug$S                   10000000     ws2_32:WS2_32.dll
 0000:fff8c000       .debug$S                   10000000     ws2_32:WS2_32.dll
 0000:fff8c000       .debug$S                   10000000     ws2_32:WS2_32.dll
 0000:fff8c000       .debug$S                   10000000     ws2_32:WS2_32.dll
 0000:fff8c000       .debug$S                   10000000     ws2_32:WS2_32.dll
 0000:fff8c000       .debug$S                   10000000     ws2_32:WS2_32.dll
 0000:fff8c000       .debug$S                   10000000     ws2_32:WS2_32.dll
 0000:fff8c000       .debug$S                   10000000     ws2_32:WS2_32.dll
 0000:fff8c000       .debug$S                   10000000     ws2_32:WS2_32.dll
 0000:fff8c000       .debug$S                   10000000     ws2_32:WS2_32.dll
 0000:fff8c000       .debug$S                   10000000     ws2_32:WS2_32.dll
 0000:fff8c000       .debug$S                   10000000     kernel32:KERNEL32.dll
 0000:fff8c000       .debug$S                   10000000     kernel32:KERNEL32.dll
 0000:fff8c000       .debug$S                   10000000     kernel32:KERNEL32.dll
 0000:fff8c000       .debug$S                   10000000     kernel32:KERNEL32.dll
 0000:fff8c000       .debug$S                   10000000     kernel32:KERNEL32.dll
 0000:fff8c000       .debug$S                   10000000     kernel32:KERNEL32.dll
 0000:fff8c000       .debug$S                   10000000     kernel32:KERNEL32.dll
 0000:fff8c000       .debug$S                   10000000     kernel32:KERNEL32.dll
 0000:fff8c000       .debug$S                   10000000     kernel32:KERNEL32.dll
 0000:fff8c000       .debug$S                   10000000     kernel32:KERNEL32.dll
 0000:fff8c000       .debug$S                   10000000     kernel32:KERNEL32.dll
 0000:fff8c000       .debug$S                   10000000     kernel32:KERNEL32.dll
 0000:fff8c000       .debug$S                   10000000     kernel32:KERNEL32.dll
 0000:fff8c000       .debug$S                   10000000     kernel32:KERNEL32.dll
 0000:fff8c000       .debug$S                   10000000     kernel32:KERNEL32.dll
 0000:fff8c000       .debug$S                   10000000     kernel32:KERNEL32.dll
 0000:fff8c000       .debug$S                   10000000     kernel32:KERNEL32.dll
 0000:fff8c000       .debug$S                   10000000     kernel32:KERNEL32.dll
 0000:fff8c000       .debug$S                   10000000     kernel32:KERNEL32.dll
 0000:fff8c000       .debug$S                   10000000     kernel32:KERNEL32.dll
 0000:fff8c000       .debug$S                   10000000     kernel32:KERNEL32.dll
 0000:fff8c000       .debug$S                   10000000     kernel32:KERNEL32.dll
 0000:fff8c000       .debug$S                   10000000     kernel32:KERNEL32.dll
 0000:fff8c000       .debug$S                   10000000     kernel32:KERNEL32.dll
 0000:fff8c000       .debug$S                   10000000     kernel32:KERNEL32.dll
 0000:fff8c000       .debug$S                   10000000     node:node.exe
 0000:fff8c000       .debug$S                   10000000     node:node.exe
 0000:fff8c000       .debug$S                   10000000     node:node.exe
 0000:fff8c000       .debug$S                   10000000     node:node.exe
 0000:fff8c000       .debug$S                   10000000     node:node.exe
 0000:fff8c000       .debug$S                   10000000     node:node.exe
 0000:fff8c000       .debug$S                   10000000     node:node.exe
 0000:fff8c000       .debug$S                   10000000     node:node.exe
 0000:fff8c000       .debug$S                   10000000     node:node.exe
 0000:fff8c000       .debug$S                   10000000     node:node.exe
 0000:fff8c000       .debug$S                   10000000     node:node.exe
 0000:fff8c000       .debug$S                   10000000     node:node.exe
 0000:fff8c000       .debug$S                   10000000     node:node.exe
 0000:fff8c000       .debug$S                   10000000     node:node.exe
 0000:fff8c000       .debug$S                   10000000     node:node.exe
 0000:fff8c000       .debug$S                   10000000     node:node.exe
 0000:fff8c000       .debug$S                   10000000     node:node.exe
 0000:fff8c000       .debug$S                   10000000     node:node.exe
 0000:fff8c000       .debug$S                   10000000     node:node.exe
 0000:fff8c000       .debug$S                   10000000     node:node.exe
 0000:fff8c000       .debug$S                   10000000     node:node.exe
 0000:fff8c000       .debug$S                   10000000     node:node.exe
 0000:fff8c000       .debug$S                   10000000     node:node.exe
 0000:fff8c000       .debug$S                   10000000     node:node.exe
 0000:fff8c000       .debug$S                   10000000     node:node.exe
 0000:fff8c000       .debug$S                   10000000     node:node.exe
 0000:fff8c000       .debug$S                   10000000     node:node.exe
 0000:fff8c000       .debug$S                   10000000     node:node.exe
 0000:fff8c000       .debug$S                   10000000     node:node.exe
 0000:fff8c000       .debug$S                   10000000     node:node.exe
 0000:fff8c000       .debug$S                   10000000     node:node.exe
 0000:fff8c000       .debug$S                   10000000     node:node.exe
 0000:fff8c000       .debug$S                   10000000     node:node.exe
 0000:fff8c000       .debug$S                   10000000     node:node.exe
 0000:fff8c000       .debug$S                   10000000     node:node.exe
 0000:fff8c000       .debug$S                   10000000     node:node.exe
 0000:fff8c000       .debug$S                   10000000     node:node.exe
 0000:fff8c000       .debug$S                   10000000     node:node.exe
 0000:fff8c000       .debug$S                   10000000     node:node.exe
 0000:fff8c000       .debug$S                   10000000     node:node.exe
 0000:fff8c000       .debug$S                   10000000     node:node.exe
 0000:fff8c000       .debug$S                   10000000     node:node.exe
 0000:fff8c000       .debug$S                   10000000     node:node.exe
 0000:fff8c000       .debug$S                   10000000     node:node.exe
 0000:fff8c000       .debug$S                   10000000     node:node.exe
 0000:fff8c000       .debug$S                   10000000     node:node.exe
 0000:fff8c000       .debug$S                   10000000     node:node.exe
 0000:fff8c000       .debug$S                   10000000     node:node.exe
 0000:fff8c000       .debug$S                   10000000     node:node.exe
 0000:fff8c000       .debug$S                   10000000     node:node.exe
 0000:fff8c000       .debug$S                   10000000     node:node.exe
 0000:fff8c000       .debug$S                   10000000     node:node.exe
 0000:fff8c000       .debug$S                   10000000     node:node.exe
 0000:fff8c000       .debug$S                   10000000     node:node.exe
 0000:fff8c000       .debug$S                   10000000     node:node.exe
 0000:fff8c000       .debug$S                   10000000     node:node.exe
 0000:fff8c000       .debug$S                   10000000     node:node.exe
 0000:fff8c000       .debug$S                   10000000     node:node.exe
 0000:fff8c000       .debug$S                   10000000     node:node.exe
 0000:fff8c000       .debug$S                   10000000     node:node.exe
 0000:fff8c000       .debug$S                   10000000     node:node.exe
 0000:fff8c000       .debug$S                   10000000     node:node.exe
 0000:fff8c000       .debug$S                   10000000     node:node.exe
 0000:fff8c000       .debug$S                   10000000     node:node.exe
 0000:fff8c000       .debug$S                   10000000     node:node.exe
 0000:fff8c000       .debug$S                   10000000     node:node.exe
 0000:fff8c000       .debug$S                   10000000     node:node.exe
 0000:fff8c000       .debug$S                   10000000     node:node.exe
 0000:fff8c000       .debug$S                   10000000     node:node.exe
 0000:fff8c000       .debug$S                   10000000     node:node.exe
 0000:fff8c000       .debug$S                   10000000     node:node.exe
 0000:fff8c000       .debug$S                   10000000     node:node.exe
 0000:fff8c000       .debug$S                   10000000     node:node.exe
 0000:fff8c000       .debug$S                   10000000     node:node.exe
 0000:fff8c000       .debug$S                   10000000     node:node.exe
 0000:fff8c000       .debug$S                   10000000     node:node.exe
 0000:fff8c000       .debug$S                   10000000     node:node.exe
 0000:fff8c000       .debug$S                   10000000     node:node.exe
 0000:fff8c000       .debug$S                   10000000     node:node.exe
 0000:fff8c000       .debug$S                   10000000     node:node.exe
 0000:fff8c000       .debug$S                   10000000     node:node.exe
 0000:fff8c000       .debug$S                   10000000     node:node.exe
 0000:fff8c000       .debug$S                   10000000     node:node.exe
 0000:fff8c000       .debug$S                   10000000     node:node.exe
 0000:fff8c000       .debug$S                   10000000     node:node.exe
 0000:fff8c000       .debug$S                   10000000     node:node.exe
 0000:fff8c000       .debug$S                   10000000     node:node.exe
 0000:fff8c000       .debug$S                   10000000     node:node.exe
 0000:fff8c000       .debug$S                   10000000     node:node.exe
 0000:fff8c000       .debug$S                   10000000     node:node.exe
 0000:fff8c000       .debug$S                   10000000     node:node.exe
 0000:fff8c000       .debug$S                   10000000     node:node.exe
 0000:fff8c000       .debug$S                   10000000     node:node.exe
 0000:fff8c000       .debug$S                   10000000     node:node.exe
 0000:fff8c000       .debug$S                   10000000     node:node.exe
 0000:fff8c000       .debug$S                   10000000     node:node.exe
 0000:fff8c000       .debug$S                   10000000     node:node.exe
 0001:00000000       ??__Einit@TLS@uS@@YAXXZ    10001000 f   Networking.obj
 0001:00000020       ??__EwindowsInit@uS@@YAXXZ 10001020 f   Networking.obj
 0001:00000040       ??__Ehub@@YAXXZ            10001040 f   addon.obj
 0001:00000060       ??__Enoop@@YAXXZ           10001060 f   addon.obj
 0001:00000070       ??__EreqTemplate@@YAXXZ    10001070 f   addon.obj
 0001:00000080       ??__EresTemplate@@YAXXZ    10001080 f   addon.obj
 0001:00000090       ??__EhttpPersistent@@YAXXZ 10001090 f   addon.obj
 0001:0000009c       ??__Einitlocks@std@@YAXXZ  1000109c f   libcpmt:xlock.obj
 0001:000000b2       ??__Ecout@std@@YAXXZ       100010b2 f   libcpmt:cout.obj
 0001:000000d1       ??__Efout@std@@YAXXZ       100010d1 f   libcpmt:cout.obj
 0001:0000010b       ??__Einit_cout@std@@YAXXZ  1000110b f   libcpmt:cout.obj
 0001:00000115       ??__Einitlocks@@YAXXZ      10001115 f   libcpmt:cout.obj
 0001:0000012b       ??__E_Fac_tidy_reg@std@@YAXXZ 1000112b f   libcpmt:locale0.obj
 0001:00000137       ??__Eclassic_locale@std@@YAXXZ 10001137 f   libcpmt:locale0.obj
 0001:00000143       ??__Ecerr@std@@YAXXZ       10001143 f   libcpmt:cerr.obj
 0001:00000162       ??__Eferr@std@@YAXXZ       10001162 f   libcpmt:cerr.obj
 0001:0000019c       ??__Einit_cerr@std@@YAXXZ  1000119c f   libcpmt:cerr.obj
 0001:000001a6       ??__Einitlocks@@YAXXZ      100011a6 f   libcpmt:cerr.obj
 0001:000001bc       ??__Einit_atexit@@YAXXZ    100011bc f   libcpmt:iosptrs.obj
 0001:000001c8       ??__Einitlocks@std@@YAXXZ  100011c8 f   libcpmt:iosptrs.obj
 0001:000001de       ??__Es_defaultWaiterPool@platform@details@Concurrency@@YAXXZ 100011de f   libconcrt:Platform.obj
 0001:000001ea       ??__Eg_DebugOutFilePtr@details@Concurrency@@YAXXZ 100011ea f   libconcrt:utils.obj
 0001:000001f8       ??__E?s_cookie@Security@details@Concurrency@@2KA@@YAXXZ 100011f8 f   libconcrt:staticinits.obj
 0001:00000203       ??__E?s_subAllocatorFreePool@SchedulerBase@details@Concurrency@@0V?$LockFreeStack@VSubAllocator@details@Concurrency@@@23@A@@YAXXZ 10001203 f   libconcrt:staticinits.obj
 0001:0000020f       ??__E?m_badAllocExceptionPtr@__ExceptionPtr@@0V?$shared_ptr@V__ExceptionPtr@@@std@@A@@YAXXZ 1000120f f   libcpmt:excptptr.obj
 0001:00000a40       ?<lambda_invoker_cdecl>@<lambda_7e6d2135dc254e2f2d80404145b03bdb>@@CAXPAUuv_handle_s@@@Z 10001a40 f   Group.obj
 0001:00000a50       ?<lambda_invoker_cdecl>@<lambda_b07bd56e575a7501b89048a92c4f989c>@@CAXPAUuv_handle_s@@@Z 10001a50 f   Group.obj
 0001:00000a70       ?<lambda_invoker_cdecl>@<lambda_b1ac80daff2e0fe84f910c82cf1c747e>@@CAXPAUuv_handle_s@@@Z 10001a70 f   Group.obj
 0001:00000a70       ?<lambda_invoker_cdecl>@<lambda_7a923ba30fd901cb6bc3757e420a7c8a>@@CAXPAUuv_poll_s@@HH@Z 10001a70 f   Group.obj
 0001:00001130       ??R<lambda_33c50d2abe902f255e52e04f0c3bdba6>@@QBEXPAUPoll@@@Z 10002130 f   Group.obj
 0001:00001200       ?<lambda_invoker_cdecl>@<lambda_33c50d2abe902f255e52e04f0c3bdba6>@@CAXPAUPoll@@@Z 10002200 f   Group.obj
 0001:00003a40       ?<lambda_invoker_cdecl>@<lambda_b022b45dbe857427af666a308f04613e>@@CAXPAUTimer@@@Z 10004a40 f   Group.obj
 0001:000049e0       ?<lambda_invoker_cdecl>@<lambda_dd6e96eca6aa0931a6e2da980d842453>@@CAXPAUTimer@@@Z 100059e0 f   Group.obj
 0001:00005930       ?<lambda_invoker_cdecl>@<lambda_a203fece33253739dd156c17fa8c0d0b>@@CAXPAUPoll@@@Z 10006930 f   Group.obj
 0001:00008cd0       ?<lambda_invoker_cdecl>@<lambda_b75848d16eefa4658b2d85f1fd91daab>@@CAXPAUTimer@@@Z 10009cd0 f   Hub.obj
 0001:0000a830       ?<lambda_invoker_cdecl>@<lambda_7479d6ad99f4f9fb835149ccda6ec218>@@CAXPAX0_N0@Z 1000b830 f   WebSocket.obj
 0001:0000a830       ?<lambda_invoker_cdecl>@<lambda_e86e39c5b1bda0e3d4f0d669ac1ff167>@@CAXPAX0_N0@Z 1000b830 f   WebSocket.obj
 0001:0000a9d0       ?<lambda_invoker_cdecl>@<lambda_3cdd3b3e3c737021d14a5188e21e67cb>@@CAXPAU?$WebSocket@$00@uWS@@PAX_N1@Z 1000b9d0 f   WebSocket.obj
 0001:0000a9d0       ?<lambda_invoker_cdecl>@<lambda_f5f5575eada2f9d0cebb5f2f63e63da1>@@CAXPAU?$WebSocket@$0A@@uWS@@PAX_N1@Z 1000b9d0 f   WebSocket.obj
 0001:0000aa90       ?<lambda_invoker_cdecl>@<lambda_fb91fe531dde60145fb5f4cefc903e12>@@CAXPAUPoll@@@Z 1000ba90 f   WebSocket.obj
 0001:0000aa90       ?<lambda_invoker_cdecl>@<lambda_efe2050afab4b10cf9ba4195054ac35c>@@CAXPAUPoll@@@Z 1000ba90 f   WebSocket.obj
 0001:0000ab20       ?transform@WebSocketTransformer@?1??send@?$WebSocket@$00@uWS@@QAEXPBDIW4OpCode@4@P6AXPAU34@PAX_N3@Z3@Z@SAI0PADIUTransformData@?1??234@QAEX0I153@Z@@Z 1000bb20 f   WebSocket.obj
 0001:0000c210       ?<lambda_invoker_cdecl>@<lambda_a2940fa5af5ffae12a135b99d448b3a2>@@CAXPAUPoll@@@Z 1000d210 f   WebSocket.obj
 0001:0000c270       ?<lambda_invoker_cdecl>@<lambda_04605e5453ce2a2aff6f154379c92c95>@@CAXPAUTimer@@@Z 1000d270 f   WebSocket.obj
 0001:0000c4b0       ?<lambda_invoker_cdecl>@<lambda_e918d6156bdea0bc6310625e8a7648d6>@@CAXPAUPoll@@@Z 1000d4b0 f   WebSocket.obj
 0001:0000c510       ?<lambda_invoker_cdecl>@<lambda_b912e7c0768ebb70abf25331467a023a>@@CAXPAUTimer@@@Z 1000d510 f   WebSocket.obj
 0001:0000d47c       $LN25                      1000e47c     HTTPSocket.obj
 0001:0000d560       ?base64@uWS@@YAXPAEPAD@Z   1000e560 f   HTTPSocket.obj
 0001:0000e4d0       ?<lambda_invoker_cdecl>@<lambda_af07772f692af96c795a7d0ec87fb952>@@CAXPAUPoll@@@Z 1000f4d0 f   HTTPSocket.obj
 0001:0000e4d0       ?<lambda_invoker_cdecl>@<lambda_3714973f74a83d17c7635b2d55c4e5fc>@@CAXPAUPoll@@@Z 1000f4d0 f   HTTPSocket.obj
 0001:0000f520       ??R<lambda_7384acd41b1986b9bbdf31e4ce54301f>@@QBEXPAUuv_check_s@@@Z 10010520 f   addon.obj
 0001:0000f5a0       ?<lambda_invoker_cdecl>@<lambda_7384acd41b1986b9bbdf31e4ce54301f>@@CAXPAUuv_check_s@@@Z 100105a0 f   addon.obj
 0001:0000fbe0       ??R<lambda_14958bf5dc4f051e32ab96422140a561>@@QBEXPAX@Z 10010be0 f   addon.obj
 0001:0001042c       $LN196                     1001142c     addon.obj
 0001:00011180       ??R<lambda_af7a5422dd374fbb44bb0600bceb4c12>@@QBEXPAUHttpResponse@uWS@@UHttpRequest@2@PADII@Z 10012180 f   addon.obj
 0001:00011490       ??R<lambda_cbf472aa6ee717239cd6161d1e7aab15>@@QBEXPAUHttpResponse@uWS@@@Z 10012490 f   addon.obj
 0001:000115d0       ??R<lambda_ab21da79468cf75ef8a5b2c19fc9df60>@@QBEXPAUHttpResponse@uWS@@PADII@Z 100125d0 f   addon.obj
 0001:00011fa0       __register_uws             10012fa0 f   addon.obj
 0001:00014c40       ??R<lambda_208c1e08f92f7c47e87798a7b3d6644f>@@QBEXPAU?$WebSocket@$0A@@uWS@@UHttpRequest@2@@Z 10015c40 f   addon.obj
 0001:00014c40       ??R<lambda_133e58a517827c34a78e0f1d8439cbb2>@@QBEXPAU?$WebSocket@$00@uWS@@UHttpRequest@2@@Z 10015c40 f   addon.obj
 0001:00014d80       ??R<lambda_48a2ad8411dfb78ca19670ff520707ee>@@QBEXPAU?$WebSocket@$00@uWS@@PBDIW4OpCode@2@@Z 10015d80 f   addon.obj
 0001:00014d80       ??R<lambda_cd4883bb11e6c621b1acc92b6d8da8c1>@@QBEXPAU?$WebSocket@$0A@@uWS@@PBDIW4OpCode@2@@Z 10015d80 f   addon.obj
 0001:00014f10       ??R<lambda_e1637142ea344e884e17eb9d2de27d2d>@@QBEXPAU?$WebSocket@$00@uWS@@HPADI@Z 10015f10 f   addon.obj
 0001:00014f10       ??R<lambda_a9c374da5dc12dabd3c598763daba76e>@@QBEXPAU?$WebSocket@$0A@@uWS@@HPADI@Z 10015f10 f   addon.obj
 0001:000150d0       ??R<lambda_8f1b2285fb4d43b2e4da5a4614c9e8de>@@QBEXPAU?$WebSocket@$0A@@uWS@@PBDI@Z 100160d0 f   addon.obj
 0001:000150d0       ??R<lambda_1d46c80fc537237927264025b327cfb0>@@QBEXPAU?$WebSocket@$0A@@uWS@@PBDI@Z 100160d0 f   addon.obj
 0001:000150d0       ??R<lambda_cd9dafd5dd8557c825a5e1eed9936cb1>@@QBEXPAU?$WebSocket@$00@uWS@@PBDI@Z 100160d0 f   addon.obj
 0001:000150d0       ??R<lambda_99f67bed414616fd95dc4419d5bb6d86>@@QBEXPAU?$WebSocket@$00@uWS@@PBDI@Z 100160d0 f   addon.obj
 0001:00016bd0       ?load_exe_hook@@YGP6GHXZIPAUDelayLoadInfo@@@Z 10017bd0 f   win_delay_load_hook.obj
 0001:0001757f       ?mtx_do_lock@@YAHPAU_Mtx_internal_imp_t@@PBUxtime@@@Z 1001857f f   libcpmt:mutex.obj
 0001:00018a88       _memcpy_s                  10019a88 f   libcpmt:cout.obj
 0001:00018ecb       _tidy_global               10019ecb f   libcpmt:locale0.obj
 0001:00019283       _xtime_diff                1001a283 f   libcpmt:xtime.obj
 0001:00019367       ?initialize_pointers@@YAHXZ 1001a367 f   libcpmt:winapisupp.obj
 0001:0001a088       ?find_pe_section@@YAPAU_IMAGE_SECTION_HEADER@@QAEI@Z 1001b088 f   LIBCMT:utility.obj
 0001:0001a3b8       ?__scrt_initialize_thread_safe_statics@@YAHXZ 1001b3b8 f   LIBCMT:thread_safe_statics.obj
 0001:0001a478       ?__scrt_uninitialize_thread_safe_statics@@YAXXZ 1001b478 f   LIBCMT:thread_safe_statics.obj
 0001:0001a5d7       ?dllmain_crt_dispatch@@YGHQAUHINSTANCE__@@KQAX@Z 1001b5d7 f   LIBCMT:dll_dllmain.obj
 0001:0001a62a       ?dllmain_crt_process_attach@@YAHQAUHINSTANCE__@@QAX@Z 1001b62a f   LIBCMT:dll_dllmain.obj
 0001:0001a73c       ?dllmain_crt_process_detach@@YAH_N@Z 1001b73c f   LIBCMT:dll_dllmain.obj
 0001:0001a7b9       ?dllmain_dispatch@@YAHQAUHINSTANCE__@@KQAX@Z 1001b7b9 f   LIBCMT:dll_dllmain.obj
 0001:0001a8b5       ?dllmain_raw@@YGHQAUHINSTANCE__@@KQAX@Z 1001b8b5 f   LIBCMT:dll_dllmain.obj
 0001:0001aad0       $$000000                   1001bad0     LIBCMT:ulldvrm.obj
 0001:0001ab70       $$000000                   1001bb70     LIBCMT:alloca16.obj
 0001:0001aba0       $$000000                   1001bba0     LIBCMT:llmul.obj
 0001:0001abe0       $$000000                   1001bbe0     LIBCMT:ulldiv.obj
 0001:0001b160       $$000000                   1001c160     LIBCMT:_sehprolg4_.obj
 0001:0001b300       $$000000                   1001c300     LIBCMT:chkstk.obj
 0001:00022116       __catch$?GetInternalContext@SchedulerBase@details@Concurrency@@QAEPAVInternalContextBase@23@_N@Z$0 10023116 f   libconcrt:SchedulerBase.obj
 0001:00025a9f       _no_op_initialize          10026a9f f   libucrt:wsetlocale.obj
 0001:00027644       __catch$?_Initialize@SchedulerPolicy@Concurrency@@AAEXIPAPAD@Z$0 10028644 f   libconcrt:SchedulerPolicyBase.obj
 0001:0002776d       $LN30                      1002876d     libconcrt:SchedulerPolicyBase.obj
 0001:0002f003       __catch$?_StructuredChoreWrapper@_UnrealizedChore@details@Concurrency@@CAXPAV123@@Z$0 10030003 f   libconcrt:Chores.obj
 0001:0002f033       __catch$?_StructuredChoreWrapper@_UnrealizedChore@details@Concurrency@@CAXPAV123@@Z$1 10030033 f   libconcrt:Chores.obj
 0001:00031100       $$000000                   10032100     libvcruntime:memmove.obj
 0001:00031364       TrailingUpVec              10032364     libvcruntime:memmove.obj
 0001:00031410       TrailingDownVec            10032410     libvcruntime:memmove.obj
 0001:000316b0       $$000000                   100326b0     libvcruntime:memchr.obj
 0001:00031c30       $$000000                   10032c30     libvcruntime:memcpy.obj
 0001:00031e94       TrailingUpVec              10032e94     libvcruntime:memcpy.obj
 0001:00031f40       TrailingDownVec            10032f40     libvcruntime:memcpy.obj
 0001:0003226b       ?CallCatchBlock@@YAPAXPAUEHExceptionRecord@@PAUEHRegistrationNode@@PAU_CONTEXT@@PBU_s_FuncInfo@@PAXHK@Z 1003326b f   libvcruntime:frame.obj
 0001:00032427       ?CallUnexpected@@YAXPBU_s_ESTypeList@@@Z 10033427 f   libvcruntime:frame.obj
 0001:00032447       __catch$?CallUnexpected@@YAXPBU_s_ESTypeList@@@Z$0 10033447 f   libvcruntime:frame.obj
 0001:00032461       ?CatchIt@@YAXPAUEHExceptionRecord@@PAUEHRegistrationNode@@PAU_CONTEXT@@PAXPBU_s_FuncInfo@@PBU_s_HandlerType@@PBU_s_CatchableType@@PBU_s_TryBlockMapEntry@@H1E@Z 10033461 f   libvcruntime:frame.obj
 0001:000324dc       ?ExFilterRethrow@@YAHPAU_EXCEPTION_POINTERS@@@Z 100334dc f   libvcruntime:frame.obj
 0001:00032526       ?FindHandler@@YAXPAUEHExceptionRecord@@PAUEHRegistrationNode@@PAU_CONTEXT@@PAXPBU_s_FuncInfo@@EH1@Z 10033526 f   libvcruntime:frame.obj
 0001:0003288e       ?FindHandlerForForeignException@@YAXPAUEHExceptionRecord@@PAUEHRegistrationNode@@PAU_CONTEXT@@PAXPBU_s_FuncInfo@@HH1@Z 1003388e f   libvcruntime:frame.obj
 0001:000329a9       ?IsInExceptionSpec@@YAEPAUEHExceptionRecord@@PBU_s_ESTypeList@@@Z 100339a9 f   libvcruntime:frame.obj
 0001:00032a45       ?Is_bad_exception_allowed@@YAEPBU_s_ESTypeList@@@Z 10033a45 f   libvcruntime:frame.obj
 0001:00032f30       $$000000                   10033f30     libvcruntime:memset.obj
 0001:0003478a       $LN1281                    1003578a     libvcruntime:_memcmp_.obj
 0001:00034870       _ValidateLocalCookies      10035870 f   libvcruntime:_chandler4_.obj
 0001:00034a33       ?try_get_function@@YAPAXW4function_id@?A0x89697e75@@QBDQBW4module_id@2@2@Z 10035a33 f   libvcruntime:winapi_downlevel.obj
 0001:00034ad3       ?try_get_module@@YAPAUHINSTANCE__@@W4module_id@?A0x89697e75@@@Z 10035ad3 f   libvcruntime:winapi_downlevel.obj
 0001:00034d97       ?FindCompleteObject@@YAPAXPAPAX@Z 10035d97 f   libvcruntime:rtti.obj
 0001:00034db4       ?FindMITargetTypeInstance@@YAPBU_s_RTTIBaseClassDescriptor@@PAXPBU_s_RTTICompleteObjectLocator@@PAUTypeDescriptor@@H2@Z 10035db4 f   libvcruntime:rtti.obj
 0001:00034f01       ?FindSITargetTypeInstance@@YAPBU_s_RTTIBaseClassDescriptor@@PBU_s_RTTICompleteObjectLocator@@PAUTypeDescriptor@@1@Z 10035f01 f   libvcruntime:rtti.obj
 0001:00034fc4       ?FindVITargetTypeInstance@@YAPBU_s_RTTIBaseClassDescriptor@@PAXPBU_s_RTTICompleteObjectLocator@@PAUTypeDescriptor@@H2@Z 10035fc4 f   libvcruntime:rtti.obj
 0001:0003517b       ?PMDtoOffset@@YAHPAXABUPMD@@@Z 1003617b f   libvcruntime:rtti.obj
 0001:00035420       $$000000                   10036420     libvcruntime:lowhelpr.obj
 0001:00035500       $$000000                   10036500     libvcruntime:_exsup4_.obj
 0001:00035590       __unwind_handler4          10036590 f   libvcruntime:_exsup4_.obj
 0001:00035660       $$000000                   10036660     libvcruntime:_exsup_.obj
 0001:00035680       __unwind_handler           10036680 f   libvcruntime:_exsup_.obj
 0001:000366b0       $$000000                   100376b0     libucrt:strncmp.obj
 0001:000367f0       $$000000                   100377f0     libucrt:strcspn.obj
 0001:00036836       ??$common_vsprintf@Vformat_validation_base@__crt_stdio_output@@D@@YAH_KQADIQBDQAU__crt_locale_pointers@@1@Z 10037836 f   libucrt:output.obj
 0001:000369b2       ??$common_vsprintf@Vstandard_base@__crt_stdio_output@@D@@YAH_KQADIQBDQAU__crt_locale_pointers@@1@Z 100379b2 f   libucrt:output.obj
 0001:00036b2e       ??$common_vsprintf_s@D@@YAH_KQADIQBDQAU__crt_locale_pointers@@1@Z 10037b2e f   libucrt:output.obj
 0001:0003713f       $LN52                      1003813f     libucrt:output.obj
 0001:0003725b       $LN54                      1003825b     libucrt:output.obj
 0001:00037779       $LN19                      10038779     libucrt:output.obj
 0001:0003852e       _common_flush_all          1003952e f   libucrt:fflush.obj
 0001:000389e1       ?common_fseek@@YAHV__crt_stdio_stream@@_JH@Z 100399e1 f   libucrt:fseek.obj
 0001:00038a68       ?common_fseek_binary_mode_read_only_fast_track_nolock@@YA_NV__crt_stdio_stream@@_JH@Z 10039a68 f   libucrt:fseek.obj
 0001:00038b41       ?common_fseek_nolock@@YAHV__crt_stdio_stream@@_JH@Z 10039b41 f   libucrt:fseek.obj
 0001:00038cae       ??R<lambda_b51c0495177f500e782686251704ae76>@@QBEIXZ 10039cae f   libucrt:fwrite.obj
 0001:00038f3e       ??R<lambda_b721fa326cdb32351d23dfa67958c160>@@QBEHXZ 10039f3e f   libucrt:setvbuf.obj
 0001:00038fd8       ?set_buffer@@YAHV__crt_stdio_stream@@QADIH@Z 10039fd8 f   libucrt:setvbuf.obj
 0001:000391eb       _call_wsetlocale           1003a1eb f   libucrt:setlocale.obj
 0001:00039881       ?x_ismbbtype_l@@YAHPAU__crt_locale_pointers@@IHH@Z 1003a881 f   libucrt:ismbbyte.obj
 0001:00039e5e       _memcpy_s                  1003ae5e f   libucrt:strtod.obj
 0001:00039e5e       _memcpy_s                  1003ae5e f   libucrt:cfout.obj
 0001:00039e5e       _memcpy_s                  1003ae5e f   libucrt:mbctype.obj
 0001:00039ee0       $$000000                   1003aee0     libucrt:pow.obj
 0001:0003a185       ??$common_tox_l@$1?internal_isupper_l@@YA_NHQAU__crt_locale_pointers@@@Z$1?internal_map_lower@@YAHH0@Z@@YAHHKQAU__crt_locale_pointers@@@Z 1003b185 f   libucrt:tolower_toupper.obj
 0001:0003a2cf       ?internal_isupper_l@@YA_NHQAU__crt_locale_pointers@@@Z 1003b2cf f   libucrt:tolower_toupper.obj
 0001:0003a8b5       ?atexit_exception_filter@@YAHK@Z 1003b8b5 f   libucrt:exit.obj
 0001:0003a8c8       ?common_exit@@YAXHW4_crt_exit_cleanup_mode@@W4_crt_exit_return_mode@@@Z 1003b8c8 f   libucrt:exit.obj
 0001:0003a9e1       ?exit_or_terminate_process@@YAXI@Z 1003b9e1 f   libucrt:exit.obj
 0001:0003aa22       ?is_managed_app@@YA_NXZ    1003ba22 f   libucrt:exit.obj
 0001:0003aa66       ?try_cor_exit_process@@YAXI@Z 1003ba66 f   libucrt:exit.obj
 0001:0003ab0a       ??$common_configure_argv@D@@YAHW4_crt_argv_mode@@@Z 1003bb0a f   libucrt:argv_parsing.obj
 0001:0003ac2e       ??$parse_command_line@D@@YAXPADPAPAD0PAI2@Z 1003bc2e f   libucrt:argv_parsing.obj
 0001:0003ae03       ??$common_initialize_environment_nolock@D@@YAHXZ 1003be03 f   libucrt:environment_initialization.obj
 0001:0003ae5c       ??$create_environment@D@@YAQAPADQAD@Z 1003be5c f   libucrt:environment_initialization.obj
 0001:0003af2d       ??$free_environment@_W@@YAXQAPA_W@Z 1003bf2d f   libucrt:environment_initialization.obj
 0001:0003af2d       ??$free_environment@D@@YAXQAPAD@Z 1003bf2d f   libucrt:environment_initialization.obj
 0001:0003af9c       ??$uninitialize_environment_internal@D@@YAXAAPAPAD@Z 1003bf9c f   libucrt:environment_initialization.obj
 0001:0003afb7       ??$uninitialize_environment_internal@_W@@YAXAAPAPA_W@Z 1003bfb7 f   libucrt:environment_initialization.obj
 0001:0003b103       ??R<lambda_275893d493268fdec8709772e3fcec0e>@@QBEHXZ 1003c103 f   libucrt:onexit.obj
 0001:0003b223       ??R<lambda_4e60a939b0d047cfe11ddc22648dfba9>@@QBEHXZ 1003c223 f   libucrt:onexit.obj
 0001:0003b3f8       _initialize_global_variables 1003c3f8 f   libucrt:initialization.obj
 0001:0003b40a       _initialize_c              1003c40a f   libucrt:initialization.obj
 0001:0003b424       _uninitialize_environment  1003c424 f   libucrt:initialization.obj
 0001:0003b42c       _report_memory_leaks       1003c42c f   libucrt:initialization.obj
 0001:0003b42c       _initialize_environment    1003c42c f   libucrt:initialization.obj
 0001:0003b42c       _initialize_global_state_isolation 1003c42c f   libucrt:initialization.obj
 0001:0003b42c       _uninitialize_global_state_isolation 1003c42c f   libucrt:initialization.obj
 0001:0003b42c       _uninitialize_c            1003c42c f   libucrt:initialization.obj
 0001:0003b42f       _initialize_pointers       1003c42f f   libucrt:initialization.obj
 0001:0003b46c       _uninitialize_vcruntime    1003c46c f   libucrt:initialization.obj
 0001:0003b475       _uninitialize_allocated_memory 1003c475 f   libucrt:initialization.obj
 0001:0003b620       $$000000                   1003c620     libucrt:87ctran.obj
 0001:0003b6b0       $$000000                   1003c6b0     libucrt:sqrt.obj
 0001:0003b76a       ??$common_tcsncpy_s@_W@@YAHQA_WIQB_WI@Z 1003c76a f   libucrt:wcsncpy_s.obj
 0001:0003bb52       ?construct_ptd@@YAXQAU__acrt_ptd@@QAPAU__crt_locale_data@@@Z 1003cb52 f   libucrt:per_thread_data.obj
 0001:0003bbcb       ?destroy_fls@@YGXPAX@Z     1003cbcb f   libucrt:per_thread_data.obj
 0001:0003bbec       ?destroy_ptd@@YAXQAU__acrt_ptd@@@Z 1003cbec f   libucrt:per_thread_data.obj
 0001:0003bc95       ?replace_current_thread_locale_nolock@@YAXQAU__acrt_ptd@@QAU__crt_locale_data@@@Z 1003cc95 f   libucrt:per_thread_data.obj
 0001:0003bf5b       ??R<lambda_2af78c5f5901b1372d98f9ab3177dfa6>@@QBEXXZ 1003cf5b f   libucrt:wsetlocale.obj
 0001:0003bfb7       ??R<lambda_e378711a6f6581bf7f0efd7cdf97f5d9>@@QBEXXZ 1003cfb7 f   libucrt:wsetlocale.obj
 0001:0003c317       __copytlocinfo_nolock      1003d317 f   libucrt:wsetlocale.obj
 0001:0003c77e       __wsetlocale_get_all       1003d77e f   libucrt:wsetlocale.obj
 0001:0003c917       __wsetlocale_nolock        1003d917 f   libucrt:wsetlocale.obj
 0001:0003cbfc       __wsetlocale_set_cat       1003dbfc f   libucrt:wsetlocale.obj
 0001:0003d0a9       ?get_global_action_nolock@@YAPAP6AXH@ZH@Z 1003e0a9 f   libucrt:signal.obj
 0001:0003d0eb       ?siglookup@@YAPAU__crt_signal_action_t@@HQAU1@@Z 1003e0eb f   libucrt:signal.obj
 0001:0003d652       ?fp_format_a@@YAHQBNPADIQADIH_NIQAU__crt_locale_pointers@@@Z 1003e652 f   libucrt:cvt.obj
 0001:0003d955       ?fp_format_e@@YAHQBNQADI1IH_NIQAU__crt_locale_pointers@@@Z 1003e955 f   libucrt:cvt.obj
 0001:0003d9f0       ?fp_format_e_internal@@YAHQADIH_NIQAU_strflt@@1QAU__crt_locale_pointers@@@Z 1003e9f0 f   libucrt:cvt.obj
 0001:0003db3b       ?fp_format_f@@YAHQBNQADI1IHQAU__crt_locale_pointers@@@Z 1003eb3b f   libucrt:cvt.obj
 0001:0003dbc8       ?fp_format_f_internal@@YAHQADIHQAU_strflt@@_NQAU__crt_locale_pointers@@@Z 1003ebc8 f   libucrt:cvt.obj
 0001:0003dc9f       ?fp_format_g@@YAHQBNQADI1IH_NIQAU__crt_locale_pointers@@@Z 1003ec9f f   libucrt:cvt.obj
 0001:0003dd67       ?fp_format_nan_or_infinity@@YAHW4__acrt_fp_class@@_NPADI1@Z 1003ed67 f   libucrt:cvt.obj
 0001:0003de5f       ?shift_bytes@@YAXQADI0H@Z  1003ee5f f   libucrt:cvt.obj
 0001:0003e106       ?initialize_inherited_file_handles_nolock@@YAXXZ 1003f106 f   libucrt:ioinit.obj
 0001:0003e1bc       ?initialize_stdio_handles_nolock@@YAXXZ 1003f1bc f   libucrt:ioinit.obj
 0001:0003ebf9       ?<helper_func_stdcall>@<lambda_5a01b672d24c8480ee9d6bdb50dd3881>@@CGHPA_W@Z 1003fbf9 f   libucrt:winapi_thunks.obj
 0001:0003ed0a       ?try_get_CompareStringEx@@YAP6GHPB_WK0H0HPAU_nlsversioninfo@@PAXJ@ZXZ 1003fd0a f   libucrt:winapi_thunks.obj
 0001:0003ed24       ?try_get_function@@YAPAXW4function_id@?A0x352e5c4b@@QBDQBW4module_id@2@2@Z 1003fd24 f   libucrt:winapi_thunks.obj
 0001:0003edc0       ?try_get_module@@YAPAUHINSTANCE__@@W4module_id@?A0x352e5c4b@@@Z 1003fdc0 f   libucrt:winapi_thunks.obj
 0001:0003f7e3       ?write_double_translated_ansi_nolock@@YA?AUwrite_result@?A0x47fa6670@@HQBDI@Z 100407e3 f   libucrt:write.obj
 0001:0003f996       ?write_double_translated_unicode_nolock@@YA?AUwrite_result@?A0x47fa6670@@QBDI@Z 10040996 f   libucrt:write.obj
 0001:0003fa03       ?write_requires_double_translation_nolock@@YA_NH@Z 10040a03 f   libucrt:write.obj
 0001:0003fa79       ?write_text_ansi_nolock@@YA?AUwrite_result@?A0x47fa6670@@HQBDI@Z 10040a79 f   libucrt:write.obj
 0001:0003fb58       ?write_text_utf16le_nolock@@YA?AUwrite_result@?A0x47fa6670@@HQBDI@Z 10040b58 f   libucrt:write.obj
 0001:0003fc46       ?write_text_utf8_nolock@@YA?AUwrite_result@?A0x47fa6670@@HQBDI@Z 10040c46 f   libucrt:write.obj
 0001:0004006a       ??$common_refill_and_read_nolock@D@@YAHV__crt_stdio_stream@@@Z 1004106a f   libucrt:_filbuf.obj
 0001:000401f6       ??$common_ftell@_J@@YA_JV__crt_stdio_stream@@@Z 100411f6 f   libucrt:ftell.obj
 0001:00040272       ??$common_ftell_nolock@_J@@YA_JV__crt_stdio_stream@@@Z 10041272 f   libucrt:ftell.obj
 0001:00040407       ?common_ftell_read_mode_nolock@@YA_JV__crt_stdio_stream@@_J1@Z 10041407 f   libucrt:ftell.obj
 0001:0004058b       ?common_ftell_translated_utf8_nolock@@YA_JV__crt_stdio_stream@@_J@Z 1004158b f   libucrt:ftell.obj
 0001:0004073c       ??$common_flush_and_write_nolock@D@@YAHHV__crt_stdio_stream@@@Z 1004173c f   libucrt:_flsbuf.obj
 0001:0004084d       ??$write_buffer_nolock@D@@YA_NDV__crt_stdio_stream@@@Z 1004184d f   libucrt:_flsbuf.obj
 0001:00040924       ??$common_lseek@_J@@YA_JH_JH@Z 10041924 f   libucrt:lseek.obj
 0001:00040a29       ??$common_lseek_nolock@_J@@YA_JH_JH@Z 10041a29 f   libucrt:lseek.obj
 0001:00040b3a       ?_mbstowcs_l_helper@@YAIPA_WPBDIPAU__crt_locale_pointers@@@Z 10041b3a f   libucrt:mbstowcs.obj
 0001:00040db6       ?_wcstombs_l_helper@@YAIPADPB_WIPAU__crt_locale_pointers@@@Z 10041db6 f   libucrt:wcstombs.obj
 0001:00041104       ?InternalGetLocaleInfoA@@YAHQAU__crt_locale_pointers@@QB_WKQADH@Z 10042104 f   libucrt:getlocaleinfoa.obj
 0001:000414ce       ?__acrt_LCMapStringA_stat@@YAHPAU__crt_locale_pointers@@PB_WKPBDHPADHHH@Z 100424ce f   libucrt:lcmapstringa.obj
 0001:000417f0       $$000000                   100427f0     libucrt:pow_pentium4.obj
 0001:00042310       $$000000                   10043310     libucrt:87tran.obj
 0001:00042510       $$000000                   10043510     libucrt:87disp.obj
 0001:00042710       $$000000                   10043710     libucrt:genexcep.obj
 0001:00042770       $$000000                   10043770     libucrt:common.obj
 0001:00042c76       ?<helper_func_cdecl>@<lambda_62bb7ecb46d0a77b591a051c43eb5ad1>@@CAHPBX0@Z 10043c76 f   libucrt:argv_wildcards.obj
 0001:00042c8e       ??$common_expand_argv_wildcards@D@@YAHQAPADQAPAPAD@Z 10043c8e f   libucrt:argv_wildcards.obj
 0001:00042e1e       ??$copy_and_add_argument_to_buffer@D@@YAHQBD0IAAV?$argument_list@D@?A0xb0e4b824@@@Z 10043e1e f   libucrt:argv_wildcards.obj
 0001:00042eb4       ??$expand_argument_wildcards@D@@YAHQAD0AAV?$argument_list@D@?A0xb0e4b824@@@Z 10043eb4 f   libucrt:argv_wildcards.obj
 0001:0004318f       ??R<lambda_ad1ced32f4ac17aa236e5ef05d6b3b7c>@@QBEXXZ 1004418f f   libucrt:mbctype.obj
 0001:00043253       ?CPtoLocaleName@@YAPB_WH@Z 10044253 f   libucrt:mbctype.obj
 0001:00043291       ?getSystemCP@@YAHH@Z       10044291 f   libucrt:mbctype.obj
 0001:00043304       ?setSBCS@@YAXPAU__crt_multibyte_data@@@Z 10044304 f   libucrt:mbctype.obj
 0001:00043369       ?setSBUpLow@@YAXPAU__crt_multibyte_data@@@Z 10044369 f   libucrt:mbctype.obj
 0001:000434fd       ?setmbcp_internal@@YAHH_N@Z 100444fd f   libucrt:mbctype.obj
 0001:000438c8       ?find_end_of_double_null_terminated_sequence@@YAPB_WQB_W@Z 100448c8 f   libucrt:get_environment_from_os.obj
 0001:00043b80       $$000000                   10044b80     libucrt:exp_pentium4.obj
 0001:00043e40       $$000000                   10044e40     libucrt:87cdisp.obj
 0001:00044b95       ?free_crt_array_internal@@YAXQAPBXI@Z 10045b95 f   libucrt:inittime.obj
 0001:00044bd1       ?initialize_lc_time@@YA_NQAU__crt_lc_time_data@@QAU__crt_locale_data@@@Z 10045bd1 f   libucrt:inittime.obj
 0001:000450f5       _GetLocaleNameFromDefault  100460f5 f   libucrt:get_qualified_locale.obj
 0001:0004517e       _GetLocaleNameFromLangCountry 1004617e f   libucrt:get_qualified_locale.obj
 0001:00045218       _GetLocaleNameFromLanguage 10046218 f   libucrt:get_qualified_locale.obj
 0001:00045273       _GetPrimaryLen             10046273 f   libucrt:get_qualified_locale.obj
 0001:000452a7       _LangCountryEnumProcEx@12  100462a7 f   libucrt:get_qualified_locale.obj
 0001:00045591       _LanguageEnumProcEx@12     10046591 f   libucrt:get_qualified_locale.obj
 0001:00045652       _ProcessCodePage           10046652 f   libucrt:get_qualified_locale.obj
 0001:00045739       _TestDefaultCountry        10046739 f   libucrt:get_qualified_locale.obj
 0001:00045784       _TranslateName             10046784 f   libucrt:get_qualified_locale.obj
 0001:000459c2       _CountryEnumProc@4         100469c2 f   libucrt:getqloc_downlevel.obj
 0001:00045a6b       _GetLcidFromCountry        10046a6b f   libucrt:getqloc_downlevel.obj
 0001:00045ab6       _GetLcidFromLangCountry    10046ab6 f   libucrt:getqloc_downlevel.obj
 0001:00045b51       _GetLcidFromLanguage       10046b51 f   libucrt:getqloc_downlevel.obj
 0001:00045bb2       _GetPrimaryLen             10046bb2 f   libucrt:getqloc_downlevel.obj
 0001:00045bde       _LangCountryEnumProc@4     10046bde f   libucrt:getqloc_downlevel.obj
 0001:00045e2e       _LanguageEnumProc@4        10046e2e f   libucrt:getqloc_downlevel.obj
 0001:00045f06       _LcidFromHexString         10046f06 f   libucrt:getqloc_downlevel.obj
 0001:00045f57       _ProcessCodePage           10046f57 f   libucrt:getqloc_downlevel.obj
 0001:0004603a       _TestDefaultCountry        1004703a f   libucrt:getqloc_downlevel.obj
 0001:0004605e       _TestDefaultLanguage       1004705e f   libucrt:getqloc_downlevel.obj
 0001:000460ce       _TranslateName             100470ce f   libucrt:getqloc_downlevel.obj
 0001:00047a92       ?GetTableIndexFromLocaleName@@YAHPB_W@Z 10048a92 f   libucrt:lcidtoname_downlevel.obj
 0001:00047c69       ??$translate_text_mode_nolock@D@@YAHHQADI@Z 10048c69 f   libucrt:read.obj
 0001:00047dc0       ??$translate_text_mode_nolock@_W@@YAHHQA_WI@Z 10048dc0 f   libucrt:read.obj
 0001:00047f80       ?translate_ansi_or_utf8_nolock@@YAHHQADIQA_WI@Z 10048f80 f   libucrt:read.obj
 0001:000480d0       ?translate_utf16_from_console_nolock@@YAHHQA_WI@Z 100490d0 f   libucrt:read.obj
 0001:00048619       ??$common_tcsncpy_s@D@@YAHQADIQBDI@Z 10049619 f   libucrt:strncpy_s.obj
 0001:000486d5       ___get_abstract_control_sse2 100496d5 f   libucrt:_fenvutils.obj
 0001:00048752       ___get_abstract_control_x87 10049752 f   libucrt:_fenvutils.obj
 0001:000487c5       ___get_machine_control     100497c5 f   libucrt:_fenvutils.obj
 0001:00048836       ___get_machine_control_sse2 10049836 f   libucrt:_fenvutils.obj
 0001:000488b6       ___get_machine_status_sse2 100498b6 f   libucrt:_fenvutils.obj
 0001:00048917       ___get_machine_status_x87  10049917 f   libucrt:_fenvutils.obj
 0001:00048f70       ?shortsort@@YAXPAD0IP6AHPBX1@Z@Z 10049f70 f   libucrt:qsort.obj
 0001:00049010       ?swap@@YAXPAD0I@Z          1004a010 f   libucrt:qsort.obj
 0001:000493f0       $$000000                   1004a3f0     libucrt:strpbrk.obj
 0001:000494d4       ?initialize_multibyte@@YAHXZ 1004a4d4 f   libucrt:multibyte_initializer.obj
 0001:00049516       ??$common_xtox@K_W@@YAHKQA_WII_N@Z 1004a516 f   libucrt:xtoa.obj
 0001:000495a4       ??$common_xtox_s@K_W@@YAHKQA_WII_N@Z 1004a5a4 f   libucrt:xtoa.obj
 0001:000498b0       $$000000                   1004a8b0     libucrt:log10.obj
 0001:00049a00       $$000000                   1004aa00     libucrt:ceil_pentium4.obj
 0001:00049c80       $$000000                   1004ac80     libucrt:log10_pentium4.obj
 0001:00049fd0       $$000000                   1004afd0     libucrt:_strnicm.obj
 0001:0004a6db       __catch$??$allocate_shared@V__ExceptionPtr@@U?$_StaticAllocator@H@@AAPAUEHExceptionRecord@@_N@std@@YA?AV?$shared_ptr@V__ExceptionPtr@@@0@ABU?$_StaticAllocator@H@@AAPAUEHExceptionRecord@@$$QA_N@Z$0 1004b6db f i libcpmt:excptptr.obj
 0001:0004a9b8       __catch$?_CallCopyCtor@__ExceptionPtr@@ABEXPAX0IQBU_s_CatchableType@@@Z$0 1004b9b8 f   libcpmt:excptptr.obj
 0001:0004aa94       __catch$?_CopyException@__ExceptionPtr@@SA?AV?$shared_ptr@V__ExceptionPtr@@@std@@PBXPBU_s_ThrowInfo@@_N@Z$0 1004ba94 f   libcpmt:excptptr.obj
 0001:0004aac0       __catch$?_CopyException@__ExceptionPtr@@SA?AV?$shared_ptr@V__ExceptionPtr@@@std@@PBXPBU_s_ThrowInfo@@_N@Z$1 1004bac0 f   libcpmt:excptptr.obj
 0001:0004ab28       __catch$?_CurrentException@__ExceptionPtr@@SA?AV?$shared_ptr@V__ExceptionPtr@@@std@@XZ$0 1004bb28 f   libcpmt:excptptr.obj
 0001:0004ab52       __catch$?_CurrentException@__ExceptionPtr@@SA?AV?$shared_ptr@V__ExceptionPtr@@@std@@XZ$1 1004bb52 f   libcpmt:excptptr.obj
 0001:0004ad05       ?_StaticAlloc@@YAPAXI@Z    1004bd05 f   libcpmt:excptptr.obj
 0001:0004aea6       ?do_wait@@YAHPAU_Cnd_internal_imp_t@@PAU_Mtx_internal_imp_t@@PBUxtime@@@Z 1004bea6 f   libcpmt:cond.obj
 0001:0004b0a0       $$000000                   1004c0a0     LIBCMT:ullrem.obj
 0001:0004b120       $$000000                   1004c120     LIBCMT:_ftol2_.obj
 0001:0004b390       $$000000                   1004c390     LIBCMT:llshl.obj
 0001:0004b3b0       $$000000                   1004c3b0     LIBCMT:ullshr.obj
 0001:0004b3d0       $$000000                   1004c3d0     LIBCMT:_sehprolg4gs_.obj
 0001:0004b430       $$000000                   1004c430     LIBCMT:lldvrm.obj
 0001:0004b510       $$000000                   1004c510     LIBCMT:lldiv.obj
 0001:0004b5c0       $$000000                   1004c5c0     libvcruntime:strrchr.obj
 0001:0004b700       $$000000                   1004c700     libvcruntime:strchr.obj
 0001:0004b8d9       __unwindfunclet$??0system_error@std@@QAE@HABVerror_category@1@PBD@Z$0 1004c8d9 f   libcpmt:thread0.obj
 0001:0004b8d9       __unwindfunclet$?_Endwrite@?$basic_filebuf@DU?$char_traits@D@std@@@std@@IAE_NXZ$0 1004c8d9 f   libcpmt:cout.obj
 0001:0004b8e1       __ehhandler$?_Endwrite@?$basic_filebuf@DU?$char_traits@D@std@@@std@@IAE_NXZ 1004c8e1 f   libcpmt:cout.obj
 0001:0004b8e1       __ehhandler$??0system_error@std@@QAE@HABVerror_category@1@PBD@Z 1004c8e1 f   libcpmt:thread0.obj
 0001:0004b906       __unwindfunclet$?create_stl_critical_section@details@Concurrency@@YAXPAVstl_critical_section_interface@12@@Z$2 1004c906 f   libcpmt:mutex.obj
 0001:0004b906       __unwindfunclet$?create_stl_condition_variable@details@Concurrency@@YAXPAVstl_condition_variable_interface@12@@Z$2 1004c906 f   libcpmt:cond.obj
 0001:0004b914       __ehhandler$?create_stl_condition_variable@details@Concurrency@@YAXPAVstl_condition_variable_interface@12@@Z 1004c914 f   libcpmt:cond.obj
 0001:0004b914       __ehhandler$?create_stl_critical_section@details@Concurrency@@YAXPAVstl_critical_section_interface@12@@Z 1004c914 f   libcpmt:mutex.obj
 0001:0004b92f       __unwindfunclet$??$use_facet@V?$codecvt@DDU_Mbstatet@@@std@@@std@@YAABV?$codecvt@DDU_Mbstatet@@@0@ABVlocale@0@@Z$0 1004c92f f   libcpmt:cout.obj
 0001:0004b937       __ehhandler$??$use_facet@V?$codecvt@DDU_Mbstatet@@@std@@@std@@YAABV?$codecvt@DDU_Mbstatet@@@0@ABVlocale@0@@Z 1004c937 f   libcpmt:cout.obj
 0001:0004b952       __unwindfunclet$??0?$basic_ostream@DU?$char_traits@D@std@@@std@@QAE@PAV?$basic_streambuf@DU?$char_traits@D@std@@@1@_N@Z$0 1004c952 f   libcpmt:cout.obj
 0001:0004b96e       __ehhandler$??0?$basic_ostream@DU?$char_traits@D@std@@@std@@QAE@PAV?$basic_streambuf@DU?$char_traits@D@std@@@1@_N@Z 1004c96e f   libcpmt:cout.obj
 0001:0004b989       __ehhandler$??1?$basic_filebuf@DU?$char_traits@D@std@@@std@@UAE@XZ 1004c989 f   libcpmt:cout.obj
 0001:0004b989       __ehhandler$??1_Locimp@locale@std@@MAE@XZ 1004c989 f   libcpmt:locale0.obj
 0001:0004b989       __ehhandler$??1_Init_atexit@@QAE@XZ 1004c989 f   libcpmt:iosptrs.obj
 0001:0004b989       __ehhandler$??1ExternalContextBase@details@Concurrency@@UAE@XZ 1004c989 f   libconcrt:ExternalContextBase.obj
 0001:0004b989       __ehhandler$??1SchedulerProxy@details@Concurrency@@IAE@XZ 1004c989 f   libconcrt:SchedulerProxy.obj
 0001:0004b989       __ehhandler$??1InternalContextBase@details@Concurrency@@UAE@XZ 1004c989 f   libconcrt:InternalContextBase.obj
 0001:0004b989       __ehhandler$??1AllocatorBucket@details@Concurrency@@QAE@XZ 1004c989 f   libconcrt:SubAllocator.obj
 0001:0004b989       __ehhandler$??1VirtualProcessor@details@Concurrency@@UAE@XZ 1004c989 f   libconcrt:VirtualProcessor.obj
 0001:0004b9a4       __unwindfunclet$??1?$basic_ios@DU?$char_traits@D@std@@@std@@UAE@XZ$0 1004c9a4 f   libcpmt:cout.obj
 0001:0004b9a4       __unwindfunclet$??_D?$basic_ostream@DU?$char_traits@D@std@@@std@@QAEXXZ$2 1004c9a4 f   libcpmt:cout.obj
 0001:0004b9aa       __ehhandler$??_D?$basic_ostream@DU?$char_traits@D@std@@@std@@QAEXXZ 1004c9aa f   libcpmt:cout.obj
 0001:0004b9aa       __ehhandler$??1?$basic_ios@DU?$char_traits@D@std@@@std@@UAE@XZ 1004c9aa f   libcpmt:cout.obj
 0001:0004b9c5       __unwindfunclet$??_Gios_base@std@@UAEPAXI@Z$0 1004c9c5 f   libcpmt:cout.obj
 0001:0004b9c5       __unwindfunclet$??_GSubAllocator@details@Concurrency@@QAEPAXI@Z$0 1004c9c5 f   libconcrt:SchedulerBase.obj
 0001:0004b9c5       __unwindfunclet$??_G?$basic_ios@DU?$char_traits@D@std@@@std@@UAEPAXI@Z$1 1004c9c5 f   libcpmt:cout.obj
 0001:0004b9cb       __ehhandler$??_Gios_base@std@@UAEPAXI@Z 1004c9cb f   libcpmt:cout.obj
 0001:0004b9cb       __ehhandler$??_G?$basic_ios@DU?$char_traits@D@std@@@std@@UAEPAXI@Z 1004c9cb f   libcpmt:cout.obj
 0001:0004b9cb       __ehhandler$??_GSubAllocator@details@Concurrency@@QAEPAXI@Z 1004c9cb f   libconcrt:SchedulerBase.obj
 0001:0004b9e6       __unwindfunclet$?_Getcat@?$codecvt@DDU_Mbstatet@@@std@@SAIPAPBVfacet@locale@2@PBV42@@Z$0 1004c9e6 f   libcpmt:cout.obj
 0001:0004b9f3       __ehhandler$?_Getcat@?$codecvt@DDU_Mbstatet@@@std@@SAIPAPBVfacet@locale@2@PBV42@@Z 1004c9f3 f   libcpmt:cout.obj
 0001:0004ba0e       __unwindfunclet$?overflow@?$basic_filebuf@DU?$char_traits@D@std@@@std@@MAEHH@Z$0 1004ca0e f   libcpmt:cout.obj
 0001:0004ba16       __ehhandler$?overflow@?$basic_filebuf@DU?$char_traits@D@std@@@std@@MAEHH@Z 1004ca16 f   libcpmt:cout.obj
 0001:0004ba3b       __unwindfunclet$?uflow@?$basic_filebuf@DU?$char_traits@D@std@@@std@@MAEHXZ$0 1004ca3b f   libcpmt:cout.obj
 0001:0004ba43       __ehhandler$?uflow@?$basic_filebuf@DU?$char_traits@D@std@@@std@@MAEHXZ 1004ca43 f   libcpmt:cout.obj
 0001:0004ba68       __unwindfunclet$?_Init@locale@std@@CAPAV_Locimp@12@_N@Z$0 1004ca68 f   libcpmt:locale0.obj
 0001:0004ba70       __ehhandler$?_Init@locale@std@@CAPAV_Locimp@12@_N@Z 1004ca70 f   libcpmt:locale0.obj
 0001:0004ba8b       __unwindfunclet$?_Locimp_dtor@_Locimp@locale@std@@CAXPAV123@@Z$0 1004ca8b f   libcpmt:locale0.obj
 0001:0004ba93       __ehhandler$?_Locimp_dtor@_Locimp@locale@std@@CAXPAV123@@Z 1004ca93 f   libcpmt:locale0.obj
 0001:0004baae       __unwindfunclet$??0scoped_lock@critical_section@Concurrency@@QAE@AAV12@@Z$0 1004caae f   libconcrt:rtlocks.obj
 0001:0004babc       __ehhandler$??0scoped_lock@critical_section@Concurrency@@QAE@AAV12@@Z 1004cabc f   libconcrt:rtlocks.obj
 0001:0004bad7       __unwindfunclet$?try_lock_for@critical_section@Concurrency@@QAE_NI@Z$0 1004cad7 f   libconcrt:rtlocks.obj
 0001:0004bae4       __ehhandler$?try_lock_for@critical_section@Concurrency@@QAE_NI@Z 1004cae4 f   libconcrt:rtlocks.obj
 0001:0004baff       __unwindfunclet$??0ResourceManager@details@Concurrency@@AAE@XZ$0 1004caff f   libconcrt:ResourceManager.obj
 0001:0004bb0a       __unwindfunclet$??0ResourceManager@details@Concurrency@@AAE@XZ$1 1004cb0a f   libconcrt:ResourceManager.obj
 0001:0004bb15       __ehhandler$??0ResourceManager@details@Concurrency@@AAE@XZ 1004cb15 f   libconcrt:ResourceManager.obj
 0001:0004bb30       __unwindfunclet$?CaptureProcessAffinity@ResourceManager@details@Concurrency@@CAXXZ$2 1004cb30 f   libconcrt:ResourceManager.obj
 0001:0004bb3d       __ehhandler$?CaptureProcessAffinity@ResourceManager@details@Concurrency@@CAXXZ 1004cb3d f   libconcrt:ResourceManager.obj
 0001:0004bb62       __unwindfunclet$?CreateAllocatedNodeData@ResourceManager@details@Concurrency@@QAEPAUSchedulerNode@23@XZ$0 1004cb62 f   libconcrt:ResourceManager.obj
 0001:0004bb7f       __ehhandler$?CreateAllocatedNodeData@ResourceManager@details@Concurrency@@QAEPAUSchedulerNode@23@XZ 1004cb7f f   libconcrt:ResourceManager.obj
 0001:0004bb9a       __unwindfunclet$?CreateSchedulerProxy@ResourceManager@details@Concurrency@@AAEPAVSchedulerProxy@23@PAUIScheduler@3@@Z$0 1004cb9a f   libconcrt:ResourceManager.obj
 0001:0004bba2       __unwindfunclet$?CreateSchedulerProxy@ResourceManager@details@Concurrency@@AAEPAVSchedulerProxy@23@PAUIScheduler@3@@Z$1 1004cba2 f   libconcrt:ResourceManager.obj
 0001:0004bbb2       __ehhandler$?CreateSchedulerProxy@ResourceManager@details@Concurrency@@AAEPAVSchedulerProxy@23@PAUIScheduler@3@@Z 1004cbb2 f   libconcrt:ResourceManager.obj
 0001:0004bbcd       __unwindfunclet$?CreateSingleton@ResourceManager@details@Concurrency@@SAPAV123@XZ$0 1004cbcd f   libconcrt:ResourceManager.obj
 0001:0004bbd5       __unwindfunclet$?CreateSingleton@ResourceManager@details@Concurrency@@SAPAV123@XZ$1 1004cbd5 f   libconcrt:ResourceManager.obj
 0001:0004bbe5       __unwindfunclet$?CreateSingleton@ResourceManager@details@Concurrency@@SAPAV123@XZ$2 1004cbe5 f   libconcrt:ResourceManager.obj
 0001:0004bbf5       __ehhandler$?CreateSingleton@ResourceManager@details@Concurrency@@SAPAV123@XZ 1004cbf5 f   libconcrt:ResourceManager.obj
 0001:0004bc10       __unwindfunclet$?CurrentSubscriptionLevel@ResourceManager@details@Concurrency@@QAEIII@Z$1 1004cc10 f   libconcrt:ResourceManager.obj
 0001:0004bc10       __unwindfunclet$?DestroyExecutionResource@SchedulerProxy@details@Concurrency@@QAEXPAVExecutionResource@23@@Z$1 1004cc10 f   libconcrt:SchedulerProxy.obj
 0001:0004bc16       __ehhandler$?DestroyExecutionResource@SchedulerProxy@details@Concurrency@@QAEXPAVExecutionResource@23@@Z 1004cc16 f   libconcrt:SchedulerProxy.obj
 0001:0004bc16       __ehhandler$?CurrentSubscriptionLevel@ResourceManager@details@Concurrency@@QAEIII@Z 1004cc16 f   libconcrt:ResourceManager.obj
 0001:0004bc31       __unwindfunclet$?DynamicResourceManager@ResourceManager@details@Concurrency@@AAEXXZ$0 1004cc31 f   libconcrt:ResourceManager.obj
 0001:0004bc39       __unwindfunclet$?DynamicResourceManager@ResourceManager@details@Concurrency@@AAEXXZ$1 1004cc39 f   libconcrt:ResourceManager.obj
 0001:0004bc3f       __ehhandler$?DynamicResourceManager@ResourceManager@details@Concurrency@@AAEXXZ 1004cc3f f   libconcrt:ResourceManager.obj
 0001:0004bc5a       __unwindfunclet$?Release@ResourceManager@details@Concurrency@@UAEIXZ$0 1004cc5a f   libconcrt:ResourceManager.obj
 0001:0004bc62       __unwindfunclet$?Release@ResourceManager@details@Concurrency@@UAEIXZ$3 1004cc62 f   libconcrt:ResourceManager.obj
 0001:0004bc68       __ehhandler$?Release@ResourceManager@details@Concurrency@@UAEIXZ 1004cc68 f   libconcrt:ResourceManager.obj
 0001:0004bc83       __unwindfunclet$?DestroyVirtualProcessorRoot@SchedulerProxy@details@Concurrency@@QAEXPAVVirtualProcessorRoot@23@@Z$0 1004cc83 f   libconcrt:SchedulerProxy.obj
 0001:0004bc83       __unwindfunclet$?RemoveExecutionResource@ResourceManager@details@Concurrency@@QAEXPAVExecutionResource@23@@Z$0 1004cc83 f   libconcrt:ResourceManager.obj
 0001:0004bc8b       __unwindfunclet$?RemoveExecutionResource@ResourceManager@details@Concurrency@@QAEXPAVExecutionResource@23@@Z$1 1004cc8b f   libconcrt:ResourceManager.obj
 0001:0004bc8b       __unwindfunclet$?DestroyVirtualProcessorRoot@SchedulerProxy@details@Concurrency@@QAEXPAVVirtualProcessorRoot@23@@Z$1 1004cc8b f   libconcrt:SchedulerProxy.obj
 0001:0004bc91       __ehhandler$?DestroyVirtualProcessorRoot@SchedulerProxy@details@Concurrency@@QAEXPAVVirtualProcessorRoot@23@@Z 1004cc91 f   libconcrt:SchedulerProxy.obj
 0001:0004bc91       __ehhandler$?RemoveExecutionResource@ResourceManager@details@Concurrency@@QAEXPAVExecutionResource@23@@Z 1004cc91 f   libconcrt:ResourceManager.obj
 0001:0004bcac       __unwindfunclet$?RequestInitialVirtualProcessors@ResourceManager@details@Concurrency@@QAEPAUIExecutionResource@3@PAVSchedulerProxy@23@_N@Z$0 1004ccac f   libconcrt:ResourceManager.obj
 0001:0004bcb4       __unwindfunclet$?RequestInitialVirtualProcessors@ResourceManager@details@Concurrency@@QAEPAUIExecutionResource@3@PAVSchedulerProxy@23@_N@Z$1 1004ccb4 f   libconcrt:ResourceManager.obj
 0001:0004bcba       __unwindfunclet$?RequestInitialVirtualProcessors@ResourceManager@details@Concurrency@@QAEPAUIExecutionResource@3@PAVSchedulerProxy@23@_N@Z$2 1004ccba f   libconcrt:ResourceManager.obj
 0001:0004bcc0       __ehhandler$?RequestInitialVirtualProcessors@ResourceManager@details@Concurrency@@QAEPAUIExecutionResource@3@PAVSchedulerProxy@23@_N@Z 1004ccc0 f   libconcrt:ResourceManager.obj
 0001:0004bcdb       __unwindfunclet$?Shutdown@ResourceManager@details@Concurrency@@QAEXPAVSchedulerProxy@23@@Z$1 1004ccdb f   libconcrt:ResourceManager.obj
 0001:0004bce1       __ehhandler$?Shutdown@ResourceManager@details@Concurrency@@QAEXPAVSchedulerProxy@23@@Z 1004cce1 f   libconcrt:ResourceManager.obj
 0001:0004bcfc       __unwindfunclet$?CheckStaticConstruction@SchedulerBase@details@Concurrency@@CAXXZ$0 1004ccfc f   libconcrt:SchedulerBase.obj
 0001:0004bcfc       __unwindfunclet$?StaticDestruction@SchedulerBase@details@Concurrency@@CAXXZ$0 1004ccfc f   libconcrt:SchedulerBase.obj
 0001:0004bcfc       __unwindfunclet$?GetCoreCount@ResourceManager@details@Concurrency@@SAIXZ$0 1004ccfc f   libconcrt:ResourceManager.obj
 0001:0004bcfc       __unwindfunclet$?Version@ResourceManager@details@Concurrency@@SA?AW4OSVersion@IResourceManager@3@XZ$0 1004ccfc f   libconcrt:ResourceManager.obj
 0001:0004bcfc       __unwindfunclet$?GetNodeCount@ResourceManager@details@Concurrency@@SAIXZ$0 1004ccfc f   libconcrt:ResourceManager.obj
 0001:0004bcfc       __unwindfunclet$?_RegisterConcRTEventTracing@details@Concurrency@@YAXXZ$0 1004ccfc f   libconcrt:Trace.obj
 0001:0004bd04       __ehhandler$?GetNodeCount@ResourceManager@details@Concurrency@@SAIXZ 1004cd04 f   libconcrt:ResourceManager.obj
 0001:0004bd04       __ehhandler$?StaticDestruction@SchedulerBase@details@Concurrency@@CAXXZ 1004cd04 f   libconcrt:SchedulerBase.obj
 0001:0004bd04       __ehhandler$?CheckStaticConstruction@SchedulerBase@details@Concurrency@@CAXXZ 1004cd04 f   libconcrt:SchedulerBase.obj
 0001:0004bd04       __ehhandler$?Version@ResourceManager@details@Concurrency@@SA?AW4OSVersion@IResourceManager@3@XZ 1004cd04 f   libconcrt:ResourceManager.obj
 0001:0004bd04       __ehhandler$?_RegisterConcRTEventTracing@details@Concurrency@@YAXXZ 1004cd04 f   libconcrt:Trace.obj
 0001:0004bd04       __ehhandler$?GetCoreCount@ResourceManager@details@Concurrency@@SAIXZ 1004cd04 f   libconcrt:ResourceManager.obj
 0001:0004bd1f       __unwindfunclet$??0SchedulerBase@details@Concurrency@@QAE@ABVSchedulerPolicy@2@@Z$0 1004cd1f f   libconcrt:SchedulerBase.obj
 0001:0004bd27       __unwindfunclet$??0SchedulerBase@details@Concurrency@@QAE@ABVSchedulerPolicy@2@@Z$1 1004cd27 f   libconcrt:SchedulerBase.obj
 0001:0004bd32       __unwindfunclet$??0SchedulerBase@details@Concurrency@@QAE@ABVSchedulerPolicy@2@@Z$2 1004cd32 f   libconcrt:SchedulerBase.obj
 0001:0004bd3d       __unwindfunclet$??0SchedulerBase@details@Concurrency@@QAE@ABVSchedulerPolicy@2@@Z$3 1004cd3d f   libconcrt:SchedulerBase.obj
 0001:0004bd48       __unwindfunclet$??0SchedulerBase@details@Concurrency@@QAE@ABVSchedulerPolicy@2@@Z$4 1004cd48 f   libconcrt:SchedulerBase.obj
 0001:0004bd53       __unwindfunclet$??0SchedulerBase@details@Concurrency@@QAE@ABVSchedulerPolicy@2@@Z$5 1004cd53 f   libconcrt:SchedulerBase.obj
 0001:0004bd5e       __unwindfunclet$??0SchedulerBase@details@Concurrency@@QAE@ABVSchedulerPolicy@2@@Z$6 1004cd5e f   libconcrt:SchedulerBase.obj
 0001:0004bd69       __unwindfunclet$??0SchedulerBase@details@Concurrency@@QAE@ABVSchedulerPolicy@2@@Z$7 1004cd69 f   libconcrt:SchedulerBase.obj
 0001:0004bd77       __unwindfunclet$??0SchedulerBase@details@Concurrency@@QAE@ABVSchedulerPolicy@2@@Z$8 1004cd77 f   libconcrt:SchedulerBase.obj
 0001:0004bd85       __unwindfunclet$??0SchedulerBase@details@Concurrency@@QAE@ABVSchedulerPolicy@2@@Z$9 1004cd85 f   libconcrt:SchedulerBase.obj
 0001:0004bd93       __unwindfunclet$??0SchedulerBase@details@Concurrency@@QAE@ABVSchedulerPolicy@2@@Z$10 1004cd93 f   libconcrt:SchedulerBase.obj
 0001:0004bda1       __ehhandler$??0SchedulerBase@details@Concurrency@@QAE@ABVSchedulerPolicy@2@@Z 1004cda1 f   libconcrt:SchedulerBase.obj
 0001:0004bdbc       __unwindfunclet$?AddTail@?$SafeRWList@UListEntry@details@Concurrency@@VNoCount@CollectionTypes@23@V_ReaderWriterLock@23@@details@Concurrency@@QAEXPAUListEntry@23@@Z$1 1004cdbc f   libconcrt:ContextBase.obj
 0001:0004bdbc       __unwindfunclet$?Dequeue@?$SafeSQueue@VRealizedChore@details@Concurrency@@V_HyperNonReentrantLock@23@@details@Concurrency@@QAEPAVRealizedChore@23@XZ$1 1004cdbc f   libconcrt:ScheduleGroupBase.obj
 0001:0004bdbc       __unwindfunclet$??0?$basic_streambuf@DU?$char_traits@D@std@@@std@@IAE@XZ$0 1004cdbc f   libcpmt:cout.obj
 0001:0004bdbc       __unwindfunclet$?AddExecutionResource@SchedulerProxy@details@Concurrency@@QAEXPAVExecutionResource@23@@Z$1 1004cdbc f   libconcrt:SchedulerProxy.obj
 0001:0004bdbc       __unwindfunclet$?Enqueue@?$SafeSQueue@VRealizedChore@details@Concurrency@@V_HyperNonReentrantLock@23@@details@Concurrency@@QAEXPAVRealizedChore@23@@Z$1 1004cdbc f   libconcrt:ScheduleGroupBase.obj
 0001:0004bdbc       __unwindfunclet$?AddTail@?$SafeRWList@VWaitNode@SchedulerBase@details@Concurrency@@VNoCount@CollectionTypes@34@V_ReaderWriterLock@34@@details@Concurrency@@QAEXPAVWaitNode@SchedulerBase@23@@Z$1 1004cdbc f   libconcrt:SchedulerBase.obj
 0001:0004bdbc       __unwindfunclet$?_Init@ios_base@std@@IAEXXZ$0 1004cdbc f   libcpmt:cout.obj
 0001:0004bdbc       __unwindfunclet$?RemoveHead@?$SafeRWList@VWaitNode@SchedulerBase@details@Concurrency@@VNoCount@CollectionTypes@34@V_ReaderWriterLock@34@@details@Concurrency@@QAEPAVWaitNode@SchedulerBase@23@XZ$1 1004cdbc f   libconcrt:SchedulerBase.obj
 0001:0004bdbc       __unwindfunclet$?Dequeue@?$SafeSQueue@VInternalContextBase@details@Concurrency@@V_HyperNonReentrantLock@23@@details@Concurrency@@QAEPAVInternalContextBase@23@XZ$1 1004cdbc f   libconcrt:SchedulerBase.obj
 0001:0004bdbc       __unwindfunclet$?Remove@?$SafeRWList@UListEntry@details@Concurrency@@VNoCount@CollectionTypes@23@V_ReaderWriterLock@23@@details@Concurrency@@QAEXPAUListEntry@23@@Z$1 1004cdbc f   libconcrt:ContextBase.obj
 0001:0004bdbc       __unwindfunclet$?MarkDetachment@?$WorkStealingQueue@V_UnrealizedChore@details@Concurrency@@V_CriticalNonReentrantLock@23@@details@Concurrency@@QAEXXZ$1 1004cdbc f   libconcrt:ScheduleGroupBase.obj
 0001:0004bdbc       __unwindfunclet$?Enqueue@?$SafeSQueue@VInternalContextBase@details@Concurrency@@V_HyperNonReentrantLock@23@@details@Concurrency@@QAEXPAVInternalContextBase@23@@Z$1 1004cdbc f   libconcrt:CacheLocalScheduleGroup.obj
 0001:0004bdc2       __ehhandler$?AddExecutionResource@SchedulerProxy@details@Concurrency@@QAEXPAVExecutionResource@23@@Z 1004cdc2 f   libconcrt:SchedulerProxy.obj
 0001:0004bdc2       __ehhandler$?RemoveHead@?$SafeRWList@VWaitNode@SchedulerBase@details@Concurrency@@VNoCount@CollectionTypes@34@V_ReaderWriterLock@34@@details@Concurrency@@QAEPAVWaitNode@SchedulerBase@23@XZ 1004cdc2 f   libconcrt:SchedulerBase.obj
 0001:0004bdc2       __ehhandler$?Enqueue@?$SafeSQueue@VRealizedChore@details@Concurrency@@V_HyperNonReentrantLock@23@@details@Concurrency@@QAEXPAVRealizedChore@23@@Z 1004cdc2 f   libconcrt:ScheduleGroupBase.obj
 0001:0004bdc2       __ehhandler$?_Init@ios_base@std@@IAEXXZ 1004cdc2 f   libcpmt:cout.obj
 0001:0004bdc2       __ehhandler$?Dequeue@?$SafeSQueue@VInternalContextBase@details@Concurrency@@V_HyperNonReentrantLock@23@@details@Concurrency@@QAEPAVInternalContextBase@23@XZ 1004cdc2 f   libconcrt:SchedulerBase.obj
 0001:0004bdc2       __ehhandler$?AddTail@?$SafeRWList@VWaitNode@SchedulerBase@details@Concurrency@@VNoCount@CollectionTypes@34@V_ReaderWriterLock@34@@details@Concurrency@@QAEXPAVWaitNode@SchedulerBase@23@@Z 1004cdc2 f   libconcrt:SchedulerBase.obj
 0001:0004bdc2       __ehhandler$?Dequeue@?$SafeSQueue@VRealizedChore@details@Concurrency@@V_HyperNonReentrantLock@23@@details@Concurrency@@QAEPAVRealizedChore@23@XZ 1004cdc2 f   libconcrt:ScheduleGroupBase.obj
 0001:0004bdc2       __ehhandler$??0?$basic_streambuf@DU?$char_traits@D@std@@@std@@IAE@XZ 1004cdc2 f   libcpmt:cout.obj
 0001:0004bdc2       __ehhandler$?Remove@?$SafeRWList@UListEntry@details@Concurrency@@VNoCount@CollectionTypes@23@V_ReaderWriterLock@23@@details@Concurrency@@QAEXPAUListEntry@23@@Z 1004cdc2 f   libconcrt:ContextBase.obj
 0001:0004bdc2       __ehhandler$?AddTail@?$SafeRWList@UListEntry@details@Concurrency@@VNoCount@CollectionTypes@23@V_ReaderWriterLock@23@@details@Concurrency@@QAEXPAUListEntry@23@@Z 1004cdc2 f   libconcrt:ContextBase.obj
 0001:0004bdc2       __ehhandler$?MarkDetachment@?$WorkStealingQueue@V_UnrealizedChore@details@Concurrency@@V_CriticalNonReentrantLock@23@@details@Concurrency@@QAEXXZ 1004cdc2 f   libconcrt:ScheduleGroupBase.obj
 0001:0004bdc2       __ehhandler$?Enqueue@?$SafeSQueue@VInternalContextBase@details@Concurrency@@V_HyperNonReentrantLock@23@@details@Concurrency@@QAEXPAVInternalContextBase@23@@Z 1004cdc2 f   libconcrt:CacheLocalScheduleGroup.obj
 0001:0004bddd       __unwindfunclet$?AllocateSegment@CacheLocalScheduleGroup@details@Concurrency@@MAEPAVScheduleGroupSegmentBase@23@PAVSchedulingRing@23@PAVlocation@3@@Z$0 1004cddd f   libconcrt:SchedulerBase.obj
 0001:0004bded       __ehhandler$?AllocateSegment@CacheLocalScheduleGroup@details@Concurrency@@MAEPAVScheduleGroupSegmentBase@23@PAVSchedulingRing@23@PAVlocation@3@@Z 1004cded f   libconcrt:SchedulerBase.obj
 0001:0004be08       __unwindfunclet$?AllocateSegment@FairScheduleGroup@details@Concurrency@@MAEPAVScheduleGroupSegmentBase@23@PAVSchedulingRing@23@PAVlocation@3@@Z$0 1004ce08 f   libconcrt:SchedulerBase.obj
 0001:0004be18       __ehhandler$?AllocateSegment@FairScheduleGroup@details@Concurrency@@MAEPAVScheduleGroupSegmentBase@23@PAVSchedulingRing@23@PAVlocation@3@@Z 1004ce18 f   libconcrt:SchedulerBase.obj
 0001:0004be33       __unwindfunclet$?GetBitSet@SchedulerBase@details@Concurrency@@QAE?AVQuickBitSet@23@PBVlocation@3@@Z$0 1004ce33 f   libconcrt:SchedulerBase.obj
 0001:0004be4c       __ehhandler$?GetBitSet@SchedulerBase@details@Concurrency@@QAE?AVQuickBitSet@23@PBVlocation@3@@Z 1004ce4c f   libconcrt:SchedulerBase.obj
 0001:0004be67       __unwindfunclet$?GetDefaultScheduler@SchedulerBase@details@Concurrency@@CAPAV123@XZ$0 1004ce67 f   libconcrt:SchedulerBase.obj
 0001:0004be6f       __unwindfunclet$?GetDefaultScheduler@SchedulerBase@details@Concurrency@@CAPAV123@XZ$1 1004ce6f f   libconcrt:SchedulerBase.obj
 0001:0004be77       __ehhandler$?GetDefaultScheduler@SchedulerBase@details@Concurrency@@CAPAV123@XZ 1004ce77 f   libconcrt:SchedulerBase.obj
 0001:0004be92       __unwindfunclet$?GetExternalContext@SchedulerBase@details@Concurrency@@AAEPAVExternalContextBase@23@_N@Z$0 1004ce92 f   libconcrt:SchedulerBase.obj
 0001:0004bea2       __ehhandler$?GetExternalContext@SchedulerBase@details@Concurrency@@AAEPAVExternalContextBase@23@_N@Z 1004cea2 f   libconcrt:SchedulerBase.obj
 0001:0004bebd       __ehhandler$?GetInternalContext@SchedulerBase@details@Concurrency@@QAEPAVInternalContextBase@23@_N@Z 1004cebd f   libconcrt:SchedulerBase.obj
 0001:0004bed8       __unwindfunclet$?GetSubAllocator@SchedulerBase@details@Concurrency@@SAPAVSubAllocator@23@_N@Z$0 1004ced8 f   libconcrt:SchedulerBase.obj
 0001:0004bee8       __ehhandler$?GetSubAllocator@SchedulerBase@details@Concurrency@@SAPAVSubAllocator@23@_N@Z 1004cee8 f   libconcrt:SchedulerBase.obj
 0001:0004bf03       __unwindfunclet$?Initialize@SchedulerBase@details@Concurrency@@AAEXXZ$0 1004cf03 f   libconcrt:SchedulerBase.obj
 0001:0004bf2c       __unwindfunclet$?Initialize@SchedulerBase@details@Concurrency@@AAEXXZ$1 1004cf2c f   libconcrt:SchedulerBase.obj
 0001:0004bf34       __unwindfunclet$?Initialize@SchedulerBase@details@Concurrency@@AAEXXZ$2 1004cf34 f   libconcrt:SchedulerBase.obj
 0001:0004bf44       __unwindfunclet$?Initialize@SchedulerBase@details@Concurrency@@AAEXXZ$3 1004cf44 f   libconcrt:SchedulerBase.obj
 0001:0004bf54       __ehhandler$?Initialize@SchedulerBase@details@Concurrency@@AAEXXZ 1004cf54 f   libconcrt:SchedulerBase.obj
 0001:0004bf6f       __unwindfunclet$?InternalCreateScheduleGroup@SchedulerBase@details@Concurrency@@AAEPAVScheduleGroup@3@PAVlocation@3@@Z$0 1004cf6f f   libconcrt:SchedulerBase.obj
 0001:0004bf7c       __unwindfunclet$?InternalCreateScheduleGroup@SchedulerBase@details@Concurrency@@AAEPAVScheduleGroup@3@PAVlocation@3@@Z$1 1004cf7c f   libconcrt:SchedulerBase.obj
 0001:0004bf89       __ehhandler$?InternalCreateScheduleGroup@SchedulerBase@details@Concurrency@@AAEPAVScheduleGroup@3@PAVlocation@3@@Z 1004cf89 f   libconcrt:SchedulerBase.obj
 0001:0004bfa4       __unwindfunclet$??0MultiWaitBlockHolder@details@Concurrency@@QAE@_NI00@Z$0 1004cfa4 f   libconcrt:event.obj
 0001:0004bfb5       __unwindfunclet$??0MultiWaitBlockHolder@details@Concurrency@@QAE@_NI00@Z$1 1004cfb5 f   libconcrt:event.obj
 0001:0004bfc6       __ehhandler$??0MultiWaitBlockHolder@details@Concurrency@@QAE@_NI00@Z 1004cfc6 f   libconcrt:event.obj
 0001:0004bfe1       __ehhandler$??1?$Mailbox@V_UnrealizedChore@details@Concurrency@@@details@Concurrency@@QAE@XZ 1004cfe1 f   libconcrt:ScheduleGroupBase.obj
 0001:0004bfe1       __ehhandler$??1_Condition_variable@details@Concurrency@@QAE@XZ 1004cfe1 f   libconcrt:event.obj
 0001:0004bfe1       __ehhandler$??1_Fac_node@std@@QAE@XZ 1004cfe1 f   libcpmt:locale0.obj
 0001:0004bfe1       __ehhandler$??_EGlobalCore@details@Concurrency@@QAEPAXI@Z 1004cfe1 f   libcpmt:mutex.obj
 0001:0004bfe1       __ehhandler$??1SchedulerBase@details@Concurrency@@UAE@XZ 1004cfe1 f   libconcrt:SchedulerBase.obj
 0001:0004bfe1       __ehhandler$??_ENumaInformation@SchedulerBase@details@Concurrency@@QAEPAXI@Z 1004cfe1 f   libconcrt:SchedulerBase.obj
 0001:0004bfe1       __ehhandler$??1__ExceptionPtr@@QAE@XZ 1004cfe1 f   libcpmt:excptptr.obj
 0001:0004bfe1       __ehhandler$??1ThreadProxy@details@Concurrency@@UAE@XZ 1004cfe1 f   libconcrt:ThreadProxy.obj
 0001:0004bfe1       __ehhandler$??_EGlobalNode@details@Concurrency@@QAEPAXI@Z 1004cfe1 f   libconcrt:ResourceManager.obj
 0001:0004bffc       __ehhandler$??1ResourceManager@details@Concurrency@@AAE@XZ 1004cffc f   libconcrt:ResourceManager.obj
 0001:0004bffc       __ehhandler$??1event@Concurrency@@QAE@XZ 1004cffc f   libconcrt:event.obj
 0001:0004bffc       __ehhandler$??1ThreadProxyFactoryManager@details@Concurrency@@QAE@XZ 1004cffc f   libconcrt:ThreadProxyFactoryManager.obj
 0001:0004c017       __unwindfunclet$?notify_one@_Condition_variable@details@Concurrency@@QAEXXZ$0 1004d017 f   libconcrt:event.obj
 0001:0004c01f       __ehhandler$?notify_one@_Condition_variable@details@Concurrency@@QAEXXZ 1004d01f f   libconcrt:event.obj
 0001:0004c03a       __unwindfunclet$?set@event@Concurrency@@QAEXXZ$0 1004d03a f   libconcrt:event.obj
 0001:0004c042       __unwindfunclet$?set@event@Concurrency@@QAEXXZ$1 1004d042 f   libconcrt:event.obj
 0001:0004c04a       __ehhandler$?set@event@Concurrency@@QAEXXZ 1004d04a f   libconcrt:event.obj
 0001:0004c06f       __unwindfunclet$?wait@_Condition_variable@details@Concurrency@@QAEXAAVcritical_section@3@@Z$0 1004d06f f   libconcrt:event.obj
 0001:0004c077       __ehhandler$?wait@_Condition_variable@details@Concurrency@@QAEXAAVcritical_section@3@@Z 1004d077 f   libconcrt:event.obj
 0001:0004c092       __unwindfunclet$?wait@event@Concurrency@@QAEII@Z$0 1004d092 f   libconcrt:event.obj
 0001:0004c09a       __ehhandler$?wait@event@Concurrency@@QAEII@Z 1004d09a f   libconcrt:event.obj
 0001:0004c0b5       __unwindfunclet$?wait_for@_Condition_variable@details@Concurrency@@QAE_NAAVcritical_section@3@I@Z$0 1004d0b5 f   libconcrt:event.obj
 0001:0004c0c2       __unwindfunclet$?wait_for@_Condition_variable@details@Concurrency@@QAE_NAAVcritical_section@3@I@Z$1 1004d0c2 f   libconcrt:event.obj
 0001:0004c0ca       __ehhandler$?wait_for@_Condition_variable@details@Concurrency@@QAE_NAAVcritical_section@3@I@Z 1004d0ca f   libconcrt:event.obj
 0001:0004c0e5       __unwindfunclet$?wait_for_multiple@event@Concurrency@@SAIPAPAV12@I_NI@Z$0 1004d0e5 f   libconcrt:event.obj
 0001:0004c0ed       __unwindfunclet$?wait_for_multiple@event@Concurrency@@SAIPAPAV12@I_NI@Z$1 1004d0ed f   libconcrt:event.obj
 0001:0004c0f8       __ehhandler$?wait_for_multiple@event@Concurrency@@SAIPAPAV12@I_NI@Z 1004d0f8 f   libconcrt:event.obj
 0001:0004c116       __unwindfunclet$??0ContextBase@details@Concurrency@@QAE@PAVSchedulerBase@12@_N@Z$0 1004d116 f   libconcrt:ContextBase.obj
 0001:0004c11e       __unwindfunclet$??0ContextBase@details@Concurrency@@QAE@PAVSchedulerBase@12@_N@Z$1 1004d11e f   libconcrt:ContextBase.obj
 0001:0004c12c       __unwindfunclet$??0ContextBase@details@Concurrency@@QAE@PAVSchedulerBase@12@_N@Z$2 1004d12c f   libconcrt:ContextBase.obj
 0001:0004c13a       __ehhandler$??0ContextBase@details@Concurrency@@QAE@PAVSchedulerBase@12@_N@Z 1004d13a f   libconcrt:ContextBase.obj
 0001:0004c155       __ehhandler$??1_Scoped_lock@_NonReentrantBlockingLock@details@Concurrency@@QAE@XZ 1004d155 f   libconcrt:ResourceManager.obj
 0001:0004c155       __ehhandler$??1_Scoped_lock_read@?$SafeRWList@UListEntry@details@Concurrency@@VNoCount@CollectionTypes@23@V_ReaderWriterLock@23@@details@Concurrency@@QAE@XZ 1004d155 f   libconcrt:ContextBase.obj
 0001:0004c155       __ehhandler$??1ScopedCriticalRegion@ContextBase@details@Concurrency@@QAE@XZ 1004d155 f   libconcrt:InternalContextBase.obj
 0001:0004c155       __ehhandler$??1_Scoped_lock@_CriticalNonReentrantLock@details@Concurrency@@QAE@XZ 1004d155 f   libconcrt:ContextBase.obj
 0001:0004c155       __ehhandler$??1?$unique_lock@Vmutex@std@@@std@@QAE@XZ 1004d155 f   libconcrt:TaskCollection.obj
 0001:0004c155       __ehhandler$??1scoped_lock@critical_section@Concurrency@@QAE@XZ 1004d155 f   libconcrt:rtlocks.obj
 0001:0004c155       __ehhandler$??1?$lock_guard@Vmutex@std@@@std@@QAE@XZ 1004d155 f   libconcrt:TaskCollection.obj
 0001:0004c155       __ehhandler$??1_Scoped_lock@_HyperNonReentrantLock@details@Concurrency@@QAE@XZ 1004d155 f   libconcrt:SchedulerBase.obj
 0001:0004c155       __ehhandler$??1_Scoped_lock@_ReentrantBlockingLock@details@Concurrency@@QAE@XZ 1004d155 f   libconcrt:SchedulerProxy.obj
 0001:0004c170       __unwindfunclet$?CancelStealers@ContextBase@details@Concurrency@@QAEXPAV_TaskCollectionBase@23@@Z$0 1004d170 f   libconcrt:ContextBase.obj
 0001:0004c178       __unwindfunclet$?CancelStealers@ContextBase@details@Concurrency@@QAEXPAV_TaskCollectionBase@23@@Z$1 1004d178 f   libconcrt:ContextBase.obj
 0001:0004c17e       __ehhandler$?CancelStealers@ContextBase@details@Concurrency@@QAEXPAV_TaskCollectionBase@23@@Z 1004d17e f   libconcrt:ContextBase.obj
 0001:0004c199       __unwindfunclet$?CreateWorkQueue@ContextBase@details@Concurrency@@QAEXXZ$0 1004d199 f   libconcrt:ContextBase.obj
 0001:0004c1a6       __ehhandler$?CreateWorkQueue@ContextBase@details@Concurrency@@QAEXXZ 1004d1a6 f   libconcrt:ContextBase.obj
 0001:0004c1c1       __unwindfunclet$?SyncPop@?$WorkStealingQueue@V_UnrealizedChore@details@Concurrency@@V_CriticalNonReentrantLock@23@@details@Concurrency@@AAEPAV_UnrealizedChore@23@XZ$0 1004d1c1 f   libconcrt:ContextBase.obj
 0001:0004c1c9       __unwindfunclet$?SyncPop@?$WorkStealingQueue@V_UnrealizedChore@details@Concurrency@@V_CriticalNonReentrantLock@23@@details@Concurrency@@AAEPAV_UnrealizedChore@23@XZ$2 1004d1c9 f   libconcrt:ContextBase.obj
 0001:0004c1cf       __ehhandler$?SyncPop@?$WorkStealingQueue@V_UnrealizedChore@details@Concurrency@@V_CriticalNonReentrantLock@23@@details@Concurrency@@AAEPAV_UnrealizedChore@23@XZ 1004d1cf f   libconcrt:ContextBase.obj
 0001:0004c1ea       __unwindfunclet$??0_TaskCollection@details@Concurrency@@AAE@PAV012@_N@Z$0 1004d1ea f   libconcrt:TaskCollection.obj
 0001:0004c1f5       __ehhandler$??0_TaskCollection@details@Concurrency@@AAE@PAV012@_N@Z 1004d1f5 f   libconcrt:TaskCollection.obj
 0001:0004c210       __ehhandler$??1_TaskCollection@details@Concurrency@@QAE@XZ 1004d210 f   libconcrt:TaskCollection.obj
 0001:0004c22b       __unwindfunclet$?_Alias@_TaskCollection@details@Concurrency@@AAEPAV123@XZ$0 1004d22b f   libconcrt:TaskCollection.obj
 0001:0004c23b       __ehhandler$?_Alias@_TaskCollection@details@Concurrency@@AAEPAV123@XZ 1004d23b f   libconcrt:TaskCollection.obj
 0001:0004c256       __unwindfunclet$?_CancelStolenContexts@_TaskCollection@details@Concurrency@@AAEX_N0@Z$0 1004d256 f   libconcrt:TaskCollection.obj
 0001:0004c25e       __unwindfunclet$?_CancelStolenContexts@_TaskCollection@details@Concurrency@@AAEX_N0@Z$1 1004d25e f   libconcrt:TaskCollection.obj
 0001:0004c264       __ehhandler$?_CancelStolenContexts@_TaskCollection@details@Concurrency@@AAEX_N0@Z 1004d264 f   libconcrt:TaskCollection.obj
 0001:0004c27f       __unwindfunclet$?_DeregisterCallback@_CancellationTokenState@details@Concurrency@@QAEXPAV_CancellationTokenRegistration@23@@Z$0 1004d27f f   libconcrt:TaskCollection.obj
 0001:0004c287       __unwindfunclet$?_DeregisterCallback@_CancellationTokenState@details@Concurrency@@QAEXPAV_CancellationTokenRegistration@23@@Z$7 1004d287 f   libconcrt:TaskCollection.obj
 0001:0004c28d       __unwindfunclet$?_DeregisterCallback@_CancellationTokenState@details@Concurrency@@QAEXPAV_CancellationTokenRegistration@23@@Z$1 1004d28d f   libconcrt:TaskCollection.obj
 0001:0004c295       __unwindfunclet$?_DeregisterCallback@_CancellationTokenState@details@Concurrency@@QAEXPAV_CancellationTokenRegistration@23@@Z$12 1004d295 f   libconcrt:TaskCollection.obj
 0001:0004c29b       __ehhandler$?_DeregisterCallback@_CancellationTokenState@details@Concurrency@@QAEXPAV_CancellationTokenRegistration@23@@Z 1004d29b f   libconcrt:TaskCollection.obj
 0001:0004c2b6       __unwindfunclet$?_FullAliasWait@_TaskCollection@details@Concurrency@@AAEXPAV123@@Z$0 1004d2b6 f   libconcrt:TaskCollection.obj
 0001:0004c2be       __ehhandler$?_FullAliasWait@_TaskCollection@details@Concurrency@@AAEXPAV123@@Z 1004d2be f   libconcrt:TaskCollection.obj
 0001:0004c2e3       __unwindfunclet$?_Initialize@_TaskCollection@details@Concurrency@@AAEXXZ$0 1004d2e3 f   libconcrt:TaskCollection.obj
 0001:0004c2f5       __ehhandler$?_Initialize@_TaskCollection@details@Concurrency@@AAEXXZ 1004d2f5 f   libconcrt:TaskCollection.obj
 0001:0004c310       __unwindfunclet$?_Invoke@_CancellationTokenRegistration@details@Concurrency@@AAEXXZ$2 1004d310 f   libconcrt:TaskCollection.obj
 0001:0004c316       __unwindfunclet$?_Invoke@_CancellationTokenRegistration@details@Concurrency@@AAEXXZ$4 1004d316 f   libconcrt:TaskCollection.obj
 0001:0004c31c       __ehhandler$?_Invoke@_CancellationTokenRegistration@details@Concurrency@@AAEXXZ 1004d31c f   libconcrt:TaskCollection.obj
 0001:0004c337       __unwindfunclet$?_RegisterCallback@_CancellationTokenState@details@Concurrency@@QAEXPAV_CancellationTokenRegistration@23@@Z$0 1004d337 f   libconcrt:TaskCollection.obj
 0001:0004c33f       __unwindfunclet$?_RegisterCallback@_CancellationTokenState@details@Concurrency@@QAEXPAV_CancellationTokenRegistration@23@@Z$12 1004d33f f   libconcrt:TaskCollection.obj
 0001:0004c345       __ehhandler$?_RegisterCallback@_CancellationTokenState@details@Concurrency@@QAEXPAV_CancellationTokenRegistration@23@@Z 1004d345 f   libconcrt:TaskCollection.obj
 0001:0004c360       __ehhandler$?_Initialize@SchedulerPolicy@Concurrency@@AAEXIPAPAD@Z 1004d360 f   libconcrt:SchedulerPolicyBase.obj
 0001:0004c37b       __unwindfunclet$??0SchedulerProxy@details@Concurrency@@QAE@PAUIScheduler@2@PAVResourceManager@12@ABVSchedulerPolicy@2@@Z$0 1004d37b f   libconcrt:SchedulerProxy.obj
 0001:0004c386       __unwindfunclet$??0SchedulerProxy@details@Concurrency@@QAE@PAUIScheduler@2@PAVResourceManager@12@ABVSchedulerPolicy@2@@Z$1 1004d386 f   libconcrt:SchedulerProxy.obj
 0001:0004c396       __ehhandler$??0SchedulerProxy@details@Concurrency@@QAE@PAUIScheduler@2@PAVResourceManager@12@ABVSchedulerPolicy@2@@Z 1004d396 f   libconcrt:SchedulerProxy.obj
 0001:0004c3b1       __unwindfunclet$?AddVirtualProcessorRoots@SchedulerProxy@details@Concurrency@@QAEXPAPAUIVirtualProcessorRoot@3@I@Z$0 1004d3b1 f   libconcrt:SchedulerProxy.obj
 0001:0004c3b9       __unwindfunclet$?AddVirtualProcessorRoots@SchedulerProxy@details@Concurrency@@QAEXPAPAUIVirtualProcessorRoot@3@I@Z$1 1004d3b9 f   libconcrt:SchedulerProxy.obj
 0001:0004c3bf       __ehhandler$?AddVirtualProcessorRoots@SchedulerProxy@details@Concurrency@@QAEXPAPAUIVirtualProcessorRoot@3@I@Z 1004d3bf f   libconcrt:SchedulerProxy.obj
 0001:0004c3da       __unwindfunclet$?CreateOversubscriber@SchedulerProxy@details@Concurrency@@UAEPAUIVirtualProcessorRoot@3@PAUIExecutionResource@3@@Z$0 1004d3da f   libconcrt:SchedulerProxy.obj
 0001:0004c3e2       __unwindfunclet$?CreateOversubscriber@SchedulerProxy@details@Concurrency@@UAEPAUIVirtualProcessorRoot@3@PAUIExecutionResource@3@@Z$1 1004d3e2 f   libconcrt:SchedulerProxy.obj
 0001:0004c3e8       __ehhandler$?CreateOversubscriber@SchedulerProxy@details@Concurrency@@UAEPAUIVirtualProcessorRoot@3@PAUIExecutionResource@3@@Z 1004d3e8 f   libconcrt:SchedulerProxy.obj
 0001:0004c403       __unwindfunclet$?CreateVirtualProcessorRoot@SchedulerProxy@details@Concurrency@@UAEPAVVirtualProcessorRoot@23@PAUSchedulerNode@23@I@Z$0 1004d403 f   libconcrt:SchedulerProxy.obj
 0001:0004c410       __ehhandler$?CreateVirtualProcessorRoot@SchedulerProxy@details@Concurrency@@UAEPAVVirtualProcessorRoot@23@PAUSchedulerNode@23@I@Z 1004d410 f   libconcrt:SchedulerProxy.obj
 0001:0004c42b       __unwindfunclet$?CreateExternalThreadResource@SchedulerProxy@details@Concurrency@@QAEPAVExecutionResource@23@PAUSchedulerNode@23@I@Z$0 1004d42b f   libconcrt:SchedulerProxy.obj
 0001:0004c42b       __unwindfunclet$?GetResourceForNewSubscription@SchedulerProxy@details@Concurrency@@QAEPAVExecutionResource@23@PAV423@@Z$0 1004d42b f   libconcrt:SchedulerProxy.obj
 0001:0004c438       __ehhandler$?GetResourceForNewSubscription@SchedulerProxy@details@Concurrency@@QAEPAVExecutionResource@23@PAV423@@Z 1004d438 f   libconcrt:SchedulerProxy.obj
 0001:0004c438       __ehhandler$?CreateExternalThreadResource@SchedulerProxy@details@Concurrency@@QAEPAVExecutionResource@23@PAUSchedulerNode@23@I@Z 1004d438 f   libconcrt:SchedulerProxy.obj
 0001:0004c453       __unwindfunclet$?RemoveCore@SchedulerProxy@details@Concurrency@@QAEXPAUSchedulerNode@23@I@Z$0 1004d453 f   libconcrt:SchedulerProxy.obj
 0001:0004c45b       __unwindfunclet$?RemoveCore@SchedulerProxy@details@Concurrency@@QAEXPAUSchedulerNode@23@I@Z$1 1004d45b f   libconcrt:SchedulerProxy.obj
 0001:0004c461       __ehhandler$?RemoveCore@SchedulerProxy@details@Concurrency@@QAEXPAUSchedulerNode@23@I@Z 1004d461 f   libconcrt:SchedulerProxy.obj
 0001:0004c47c       __unwindfunclet$?SendCoreNotification@SchedulerProxy@details@Concurrency@@QAEXPAUSchedulerCore@23@_N@Z$0 1004d47c f   libconcrt:SchedulerProxy.obj
 0001:0004c484       __unwindfunclet$?SendCoreNotification@SchedulerProxy@details@Concurrency@@QAEXPAUSchedulerCore@23@_N@Z$1 1004d484 f   libconcrt:SchedulerProxy.obj
 0001:0004c48a       __ehhandler$?SendCoreNotification@SchedulerProxy@details@Concurrency@@QAEXPAUSchedulerCore@23@_N@Z 1004d48a f   libconcrt:SchedulerProxy.obj
 0001:0004c4af       __unwindfunclet$??0ThreadProxyFactoryManager@details@Concurrency@@QAE@XZ$0 1004d4af f   libconcrt:ThreadProxyFactoryManager.obj
 0001:0004c4ba       __ehhandler$??0ThreadProxyFactoryManager@details@Concurrency@@QAE@XZ 1004d4ba f   libconcrt:ThreadProxyFactoryManager.obj
 0001:0004c4d5       __unwindfunclet$?Create@FreeThreadProxyFactory@details@Concurrency@@EAEPAVFreeThreadProxy@23@I@Z$0 1004d4d5 f   libconcrt:ThreadProxyFactoryManager.obj
 0001:0004c4e2       __ehhandler$?Create@FreeThreadProxyFactory@details@Concurrency@@EAEPAVFreeThreadProxy@23@I@Z 1004d4e2 f   libconcrt:ThreadProxyFactoryManager.obj
 0001:0004c4fd       __unwindfunclet$?SubscribeCurrentThread@ResourceManager@details@Concurrency@@QAEPAVExecutionResource@23@PAVSchedulerProxy@23@@Z$0 1004d4fd f   libconcrt:ResourceManager.obj
 0001:0004c4fd       __unwindfunclet$?GetFreeThreadProxyFactory@ThreadProxyFactoryManager@details@Concurrency@@QAEPAVFreeThreadProxyFactory@23@XZ$0 1004d4fd f   libconcrt:ThreadProxyFactoryManager.obj
 0001:0004c505       __unwindfunclet$?GetFreeThreadProxyFactory@ThreadProxyFactoryManager@details@Concurrency@@QAEPAVFreeThreadProxyFactory@23@XZ$1 1004d505 f   libconcrt:ThreadProxyFactoryManager.obj
 0001:0004c505       __unwindfunclet$?SubscribeCurrentThread@ResourceManager@details@Concurrency@@QAEPAVExecutionResource@23@PAVSchedulerProxy@23@@Z$1 1004d505 f   libconcrt:ResourceManager.obj
 0001:0004c50b       __ehhandler$?GetFreeThreadProxyFactory@ThreadProxyFactoryManager@details@Concurrency@@QAEPAVFreeThreadProxyFactory@23@XZ 1004d50b f   libconcrt:ThreadProxyFactoryManager.obj
 0001:0004c50b       __ehhandler$?SubscribeCurrentThread@ResourceManager@details@Concurrency@@QAEPAVExecutionResource@23@PAVSchedulerProxy@23@@Z 1004d50b f   libconcrt:ResourceManager.obj
 0001:0004c526       __unwindfunclet$??0SchedulingNode@details@Concurrency@@QAE@ABVQuickBitSet@12@KPAVSchedulingRing@12@@Z$0 1004d526 f   libconcrt:SchedulingNode.obj
 0001:0004c531       __unwindfunclet$??0SchedulingNode@details@Concurrency@@QAE@ABVQuickBitSet@12@KPAVSchedulingRing@12@@Z$1 1004d531 f   libconcrt:SchedulingNode.obj
 0001:0004c53c       __ehhandler$??0SchedulingNode@details@Concurrency@@QAE@ABVQuickBitSet@12@KPAVSchedulingRing@12@@Z 1004d53c f   libconcrt:SchedulingNode.obj
 0001:0004c557       __unwindfunclet$?Alloc@InternalContextBase@details@Concurrency@@UAEPAXI@Z$0 1004d557 f   libconcrt:InternalContextBase.obj
 0001:0004c55f       __unwindfunclet$?Alloc@InternalContextBase@details@Concurrency@@UAEPAXI@Z$1 1004d55f f   libconcrt:InternalContextBase.obj
 0001:0004c565       __ehhandler$?Alloc@InternalContextBase@details@Concurrency@@UAEPAXI@Z 1004d565 f   libconcrt:InternalContextBase.obj
 0001:0004c580       __unwindfunclet$?Dispatch@InternalContextBase@details@Concurrency@@UAEXPAUDispatchState@3@@Z$0 1004d580 f   libconcrt:InternalContextBase.obj
 0001:0004c599       __ehhandler$?Dispatch@InternalContextBase@details@Concurrency@@UAEXPAUDispatchState@3@@Z 1004d599 f   libconcrt:InternalContextBase.obj
 0001:0004c5b4       __unwindfunclet$?GrowAndPush@?$StructuredWorkStealingQueue@VInternalContextBase@details@Concurrency@@V_HyperNonReentrantLock@23@@details@Concurrency@@AAEXPAVInternalContextBase@23@VSlot@?$Mailbox@VInternalContextBase@details@Concurrency@@@23@@Z$0 1004d5b4 f   libconcrt:InternalContextBase.obj
 0001:0004c5d1       __unwindfunclet$?GrowAndPush@?$StructuredWorkStealingQueue@VInternalContextBase@details@Concurrency@@V_HyperNonReentrantLock@23@@details@Concurrency@@AAEXPAVInternalContextBase@23@VSlot@?$Mailbox@VInternalContextBase@details@Concurrency@@@23@@Z$2 1004d5d1 f   libconcrt:InternalContextBase.obj
 0001:0004c5d7       __ehhandler$?GrowAndPush@?$StructuredWorkStealingQueue@VInternalContextBase@details@Concurrency@@V_HyperNonReentrantLock@23@@details@Concurrency@@AAEXPAVInternalContextBase@23@VSlot@?$Mailbox@VInternalContextBase@details@Concurrency@@@23@@Z 1004d5d7 f   libconcrt:InternalContextBase.obj
 0001:0004c5f2       __unwindfunclet$??0SchedulingRing@details@Concurrency@@QAE@PAVSchedulerBase@12@H@Z$0 1004d5f2 f   libconcrt:SchedulingRing.obj
 0001:0004c5fd       __unwindfunclet$??0SchedulingRing@details@Concurrency@@QAE@PAVSchedulerBase@12@H@Z$1 1004d5fd f   libconcrt:SchedulingRing.obj
 0001:0004c608       __ehhandler$??0SchedulingRing@details@Concurrency@@QAE@PAVSchedulerBase@12@H@Z 1004d608 f   libconcrt:SchedulingRing.obj
 0001:0004c623       __unwindfunclet$??0?$Mailbox@V_UnrealizedChore@details@Concurrency@@@details@Concurrency@@QAE@PAVSchedulerBase@12@ABVQuickBitSet@12@_NI@Z$0 1004d623 f   libconcrt:ScheduleGroupBase.obj
 0001:0004c62e       __unwindfunclet$??0?$Mailbox@V_UnrealizedChore@details@Concurrency@@@details@Concurrency@@QAE@PAVSchedulerBase@12@ABVQuickBitSet@12@_NI@Z$1 1004d62e f   libconcrt:ScheduleGroupBase.obj
 0001:0004c63b       __ehhandler$??0?$Mailbox@V_UnrealizedChore@details@Concurrency@@@details@Concurrency@@QAE@PAVSchedulerBase@12@ABVQuickBitSet@12@_NI@Z 1004d63b f   libconcrt:ScheduleGroupBase.obj
 0001:0004c656       __unwindfunclet$??0ScheduleGroupBase@details@Concurrency@@QAE@PAVSchedulerBase@12@PAVlocation@2@@Z$0 1004d656 f   libconcrt:ScheduleGroupBase.obj
 0001:0004c65e       __ehhandler$??0ScheduleGroupBase@details@Concurrency@@QAE@PAVSchedulerBase@12@PAVlocation@2@@Z 1004d65e f   libconcrt:ScheduleGroupBase.obj
 0001:0004c679       __unwindfunclet$??0ScheduleGroupSegmentBase@details@Concurrency@@IAE@PAVScheduleGroupBase@12@PAVSchedulingRing@12@PAVlocation@2@@Z$0 1004d679 f   libconcrt:ScheduleGroupBase.obj
 0001:0004c684       __unwindfunclet$??0ScheduleGroupSegmentBase@details@Concurrency@@IAE@PAVScheduleGroupBase@12@PAVSchedulingRing@12@PAVlocation@2@@Z$1 1004d684 f   libconcrt:ScheduleGroupBase.obj
 0001:0004c68c       __unwindfunclet$??0ScheduleGroupSegmentBase@details@Concurrency@@IAE@PAVScheduleGroupBase@12@PAVSchedulingRing@12@PAVlocation@2@@Z$2 1004d68c f   libconcrt:ScheduleGroupBase.obj
 0001:0004c697       __unwindfunclet$??0ScheduleGroupSegmentBase@details@Concurrency@@IAE@PAVScheduleGroupBase@12@PAVSchedulingRing@12@PAVlocation@2@@Z$3 1004d697 f   libconcrt:ScheduleGroupBase.obj
 0001:0004c6a2       __unwindfunclet$??0ScheduleGroupSegmentBase@details@Concurrency@@IAE@PAVScheduleGroupBase@12@PAVSchedulingRing@12@PAVlocation@2@@Z$4 1004d6a2 f   libconcrt:ScheduleGroupBase.obj
 0001:0004c6b0       __ehhandler$??0ScheduleGroupSegmentBase@details@Concurrency@@IAE@PAVScheduleGroupBase@12@PAVSchedulingRing@12@PAVlocation@2@@Z 1004d6b0 f   libconcrt:ScheduleGroupBase.obj
 0001:0004c6cb       __unwindfunclet$??0Segment@?$Mailbox@V_UnrealizedChore@details@Concurrency@@@details@Concurrency@@QAE@PAVSchedulerBase@23@ABVQuickBitSet@23@II@Z$0 1004d6cb f   libconcrt:ScheduleGroupBase.obj
 0001:0004c6d6       __ehhandler$??0Segment@?$Mailbox@V_UnrealizedChore@details@Concurrency@@@details@Concurrency@@QAE@PAVSchedulerBase@23@ABVQuickBitSet@23@II@Z 1004d6d6 f   libconcrt:ScheduleGroupBase.obj
 0001:0004c6f1       __unwindfunclet$?DemandInitialize@?$Mailbox@V_UnrealizedChore@details@Concurrency@@@details@Concurrency@@AAEXXZ$0 1004d6f1 f   libconcrt:ScheduleGroupBase.obj
 0001:0004c6fe       __ehhandler$?DemandInitialize@?$Mailbox@V_UnrealizedChore@details@Concurrency@@@details@Concurrency@@AAEXXZ 1004d6fe f   libconcrt:ScheduleGroupBase.obj
 0001:0004c719       __unwindfunclet$?Grow@?$Mailbox@V_UnrealizedChore@details@Concurrency@@@details@Concurrency@@AAEPAUSegment@123@PAU4123@@Z$0 1004d719 f   libconcrt:ScheduleGroupBase.obj
 0001:0004c726       __ehhandler$?Grow@?$Mailbox@V_UnrealizedChore@details@Concurrency@@@details@Concurrency@@AAEPAUSegment@123@PAU4123@@Z 1004d726 f   libconcrt:ScheduleGroupBase.obj
 0001:0004c741       __unwindfunclet$??0ExternalContextBase@details@Concurrency@@QAE@PAVSchedulerBase@12@_N@Z$0 1004d741 f   libconcrt:ExternalContextBase.obj
 0001:0004c749       __ehhandler$??0ExternalContextBase@details@Concurrency@@QAE@PAVSchedulerBase@12@_N@Z 1004d749 f   libconcrt:ExternalContextBase.obj
 0001:0004c764       __unwindfunclet$?Create@ThreadScheduler@details@Concurrency@@SAPAV123@ABVSchedulerPolicy@3@@Z$0 1004d764 f   libconcrt:ThreadScheduler.obj
 0001:0004c774       __ehhandler$?Create@ThreadScheduler@details@Concurrency@@SAPAV123@ABVSchedulerPolicy@3@@Z 1004d774 f   libconcrt:ThreadScheduler.obj
 0001:0004c78f       __unwindfunclet$?CreateInternalContext@ThreadScheduler@details@Concurrency@@MAEPAVInternalContextBase@23@XZ$0 1004d78f f   libconcrt:ThreadScheduler.obj
 0001:0004c79f       __ehhandler$?CreateInternalContext@ThreadScheduler@details@Concurrency@@MAEPAVInternalContextBase@23@XZ 1004d79f f   libconcrt:ThreadScheduler.obj
 0001:0004c7ba       __unwindfunclet$?CreateVirtualProcessor@ThreadScheduler@details@Concurrency@@UAEPAVVirtualProcessor@23@PAVSchedulingNode@23@PAUIVirtualProcessorRoot@3@@Z$0 1004d7ba f   libconcrt:ThreadScheduler.obj
 0001:0004c7ca       __ehhandler$?CreateVirtualProcessor@ThreadScheduler@details@Concurrency@@UAEPAVVirtualProcessor@23@PAVSchedulingNode@23@PAUIVirtualProcessorRoot@3@@Z 1004d7ca f   libconcrt:ThreadScheduler.obj
 0001:0004c7e5       __unwindfunclet$?_RethrowException@_TaskCollectionBase@details@Concurrency@@IAEXXZ$0 1004d7e5 f   libconcrt:TaskCollectionBase.obj
 0001:0004c7ed       __ehhandler$?_RethrowException@_TaskCollectionBase@details@Concurrency@@IAEXXZ 1004d7ed f   libconcrt:TaskCollectionBase.obj
 0001:0004c808       __unwindfunclet$?rethrow_exception@std@@YAXVexception_ptr@1@@Z$0 1004d808 f   libconcrt:TaskCollectionBase.obj
 0001:0004c810       __ehhandler$?rethrow_exception@std@@YAXVexception_ptr@1@@Z 1004d810 f   libconcrt:TaskCollectionBase.obj
 0001:0004c82b       __unwindfunclet$??0WorkQueue@details@Concurrency@@QAE@XZ$0 1004d82b f   libconcrt:WorkQueue.obj
 0001:0004c833       __unwindfunclet$??0WorkQueue@details@Concurrency@@QAE@XZ$1 1004d833 f   libconcrt:WorkQueue.obj
 0001:0004c83e       __ehhandler$??0WorkQueue@details@Concurrency@@QAE@XZ 1004d83e f   libconcrt:WorkQueue.obj
 0001:0004c859       __unwindfunclet$?Steal@?$StructuredWorkStealingQueue@VInternalContextBase@details@Concurrency@@V_HyperNonReentrantLock@23@@details@Concurrency@@QAEPAVInternalContextBase@23@_N@Z$0 1004d859 f   libconcrt:SchedulingNode.obj
 0001:0004c859       __unwindfunclet$?Steal@WorkQueue@details@Concurrency@@QAEPAV_UnrealizedChore@23@_N@Z$0 1004d859 f   libconcrt:WorkQueue.obj
 0001:0004c861       __unwindfunclet$?Steal@WorkQueue@details@Concurrency@@QAEPAV_UnrealizedChore@23@_N@Z$1 1004d861 f   libconcrt:WorkQueue.obj
 0001:0004c861       __unwindfunclet$?Steal@?$StructuredWorkStealingQueue@VInternalContextBase@details@Concurrency@@V_HyperNonReentrantLock@23@@details@Concurrency@@QAEPAVInternalContextBase@23@_N@Z$1 1004d861 f   libconcrt:SchedulingNode.obj
 0001:0004c867       __ehhandler$?Steal@?$StructuredWorkStealingQueue@VInternalContextBase@details@Concurrency@@V_HyperNonReentrantLock@23@@details@Concurrency@@QAEPAVInternalContextBase@23@_N@Z 1004d867 f   libconcrt:SchedulingNode.obj
 0001:0004c867       __ehhandler$?Steal@WorkQueue@details@Concurrency@@QAEPAV_UnrealizedChore@23@_N@Z 1004d867 f   libconcrt:WorkQueue.obj
 0001:0004c882       __unwindfunclet$?Sweep@?$WorkStealingQueue@V_UnrealizedChore@details@Concurrency@@V_CriticalNonReentrantLock@23@@details@Concurrency@@QAEXP6A_NPAV_UnrealizedChore@23@PAX@Z12@Z$0 1004d882 f   libconcrt:WorkQueue.obj
 0001:0004c88a       __unwindfunclet$?Sweep@?$WorkStealingQueue@V_UnrealizedChore@details@Concurrency@@V_CriticalNonReentrantLock@23@@details@Concurrency@@QAEXP6A_NPAV_UnrealizedChore@23@PAX@Z12@Z$1 1004d88a f   libconcrt:WorkQueue.obj
 0001:0004c890       __ehhandler$?Sweep@?$WorkStealingQueue@V_UnrealizedChore@details@Concurrency@@V_CriticalNonReentrantLock@23@@details@Concurrency@@QAEXP6A_NPAV_UnrealizedChore@23@PAX@Z12@Z 1004d890 f   libconcrt:WorkQueue.obj
 0001:0004c8ab       __ehhandler$?_StructuredChoreWrapper@_UnrealizedChore@details@Concurrency@@CAXPAV123@@Z 1004d8ab f   libconcrt:Chores.obj
 0001:0004c8c6       __unwindfunclet$??0ThreadVirtualProcessor@details@Concurrency@@QAE@PAVSchedulingNode@12@PAUIVirtualProcessorRoot@2@@Z$0 1004d8c6 f   libconcrt:ThreadVirtualProcessor.obj
 0001:0004c8ce       __ehhandler$??0ThreadVirtualProcessor@details@Concurrency@@QAE@PAVSchedulingNode@12@PAUIVirtualProcessorRoot@2@@Z 1004d8ce f   libconcrt:ThreadVirtualProcessor.obj
 0001:0004c8e9       __ehhandler$?CallUnexpected@@YAXPBU_s_ESTypeList@@@Z 1004d8e9 f   libvcruntime:frame.obj
 0001:0004c904       __unwindfunclet$??$?0AAPAUEHExceptionRecord@@_N@?$_Ref_count_obj@V__ExceptionPtr@@@std@@QAE@AAPAUEHExceptionRecord@@$$QA_N@Z$0 1004d904 f   libcpmt:excptptr.obj
 0001:0004c90c       __unwindfunclet$??$?0AAPAUEHExceptionRecord@@_N@?$_Ref_count_obj@V__ExceptionPtr@@@std@@QAE@AAPAUEHExceptionRecord@@$$QA_N@Z$1 1004d90c f   libcpmt:excptptr.obj
 0001:0004c91e       __ehhandler$??$?0AAPAUEHExceptionRecord@@_N@?$_Ref_count_obj@V__ExceptionPtr@@@std@@QAE@AAPAUEHExceptionRecord@@$$QA_N@Z 1004d91e f   libcpmt:excptptr.obj
 0001:0004c939       __unwindfunclet$??$?0AAPAUEHExceptionRecord@@_N@?$_Ref_count_obj_alloc@V__ExceptionPtr@@U?$_StaticAllocator@H@@@std@@QAE@ABU?$_StaticAllocator@H@@AAPAUEHExceptionRecord@@$$QA_N@Z$0 1004d939 f   libcpmt:excptptr.obj
 0001:0004c941       __unwindfunclet$??$?0AAPAUEHExceptionRecord@@_N@?$_Ref_count_obj_alloc@V__ExceptionPtr@@U?$_StaticAllocator@H@@@std@@QAE@ABU?$_StaticAllocator@H@@AAPAUEHExceptionRecord@@$$QA_N@Z$1 1004d941 f   libcpmt:excptptr.obj
 0001:0004c94f       __ehhandler$??$?0AAPAUEHExceptionRecord@@_N@?$_Ref_count_obj_alloc@V__ExceptionPtr@@U?$_StaticAllocator@H@@@std@@QAE@ABU?$_StaticAllocator@H@@AAPAUEHExceptionRecord@@$$QA_N@Z 1004d94f f   libcpmt:excptptr.obj
 0001:0004c96a       __unwindfunclet$??$allocate_shared@V__ExceptionPtr@@U?$_StaticAllocator@H@@AAPAUEHExceptionRecord@@_N@std@@YA?AV?$shared_ptr@V__ExceptionPtr@@@0@ABU?$_StaticAllocator@H@@AAPAUEHExceptionRecord@@$$QA_N@Z$13 1004d96a f   libcpmt:excptptr.obj
 0001:0004c978       __ehhandler$??$allocate_shared@V__ExceptionPtr@@U?$_StaticAllocator@H@@AAPAUEHExceptionRecord@@_N@std@@YA?AV?$shared_ptr@V__ExceptionPtr@@@0@ABU?$_StaticAllocator@H@@AAPAUEHExceptionRecord@@$$QA_N@Z 1004d978 f   libcpmt:excptptr.obj
 0001:0004c993       __unwindfunclet$??$make_shared@V__ExceptionPtr@@AAPAUEHExceptionRecord@@_N@std@@YA?AV?$shared_ptr@V__ExceptionPtr@@@0@AAPAUEHExceptionRecord@@$$QA_N@Z$0 1004d993 f   libcpmt:excptptr.obj
 0001:0004c9a0       __ehhandler$??$make_shared@V__ExceptionPtr@@AAPAUEHExceptionRecord@@_N@std@@YA?AV?$shared_ptr@V__ExceptionPtr@@@0@AAPAUEHExceptionRecord@@$$QA_N@Z 1004d9a0 f   libcpmt:excptptr.obj
 0001:0004c9bb       __ehhandler$?_CallCopyCtor@__ExceptionPtr@@ABEXPAX0IQBU_s_CatchableType@@@Z 1004d9bb f   libcpmt:excptptr.obj
 0001:0004c9d6       __ehhandler$?_CopyException@__ExceptionPtr@@SA?AV?$shared_ptr@V__ExceptionPtr@@@std@@PBXPBU_s_ThrowInfo@@_N@Z 1004d9d6 f   libcpmt:excptptr.obj
 0001:0004c9f1       __ehhandler$?_CurrentException@__ExceptionPtr@@SA?AV?$shared_ptr@V__ExceptionPtr@@@std@@XZ 1004d9f1 f   libcpmt:excptptr.obj
 0001:0004ca0c       __unwindfunclet$?_InitBadAllocException@__ExceptionPtr@@CA?AV?$shared_ptr@V__ExceptionPtr@@@std@@XZ$0 1004da0c f   libcpmt:excptptr.obj
 0001:0004ca14       __ehhandler$?_InitBadAllocException@__ExceptionPtr@@CA?AV?$shared_ptr@V__ExceptionPtr@@@std@@XZ 1004da14 f   libcpmt:excptptr.obj
 0001:0004ca30       ??__Finit@TLS@uS@@YAXXZ    1004da30 f   Networking.obj
 0001:0004ca40       ??__FwindowsInit@uS@@YAXXZ 1004da40 f   Networking.obj
 0001:0004ca50       ??__Fhub@@YAXXZ            1004da50 f   addon.obj
 0001:0004ca60       ??__Fnoop@@YAXXZ           1004da60 f   addon.obj
 0001:0004ca70       ??__FresTemplate@@YAXXZ    1004da70 f   addon.obj
 0001:0004ca80       ??__FreqTemplate@@YAXXZ    1004da80 f   addon.obj
 0001:0004ca90       ??__FhttpPersistent@@YAXXZ 1004da90 f   addon.obj
 0001:0004caa2       ??__Finitlocks@std@@YAXXZ  1004daa2 f   libcpmt:xlock.obj
 0001:0004caac       ??__Fcout@std@@YAXXZ       1004daac f   libcpmt:cout.obj
 0001:0004cab6       ??__Ffout@std@@YAXXZ       1004dab6 f   libcpmt:cout.obj
 0001:0004cac0       ??__Finitlocks@@YAXXZ      1004dac0 f   libcpmt:cout.obj
 0001:0004caca       ??__F_Fac_tidy_reg@std@@YAXXZ 1004daca f   libcpmt:locale0.obj
 0001:0004cad4       ??__Fclassic_locale@std@@YAXXZ 1004dad4 f   libcpmt:locale0.obj
 0001:0004cade       ??__Fcerr@std@@YAXXZ       1004dade f   libcpmt:cerr.obj
 0001:0004cae8       ??__Fferr@std@@YAXXZ       1004dae8 f   libcpmt:cerr.obj
 0001:0004caf2       ??__Finitlocks@@YAXXZ      1004daf2 f   libcpmt:cerr.obj
 0001:0004cafc       ??__Finit_atexit@@YAXXZ    1004dafc f   libcpmt:iosptrs.obj
 0001:0004cb06       ??__Finitlocks@std@@YAXXZ  1004db06 f   libcpmt:iosptrs.obj
 0001:0004cb10       ??__Fs_defaultWaiterPool@platform@details@Concurrency@@YAXXZ 1004db10 f   libconcrt:Platform.obj
 0001:0004cb1a       ??__F?m_badAllocExceptionPtr@__ExceptionPtr@@0V?$shared_ptr@V__ExceptionPtr@@@std@@A@@YAXXZ 1004db1a f   libcpmt:excptptr.obj
 0002:00000224       ?initlocks$initializer$@std@@3P6AXXZA 1004e224     libcpmt:xlock.obj
 0002:00000228       ?initlocks$initializer$@@3P6AXXZA 1004e228     libcpmt:cout.obj
 0002:0000022c       ?fout$initializer$@std@@3P6AXXZA 1004e22c     libcpmt:cout.obj
 0002:00000230       ?cout$initializer$@std@@3P6AXXZA 1004e230     libcpmt:cout.obj
 0002:00000234       ?init_cout$initializer$@std@@3P6AXXZA 1004e234     libcpmt:cout.obj
 0002:00000238       ?initlocks$initializer$@@3P6AXXZA 1004e238     libcpmt:cerr.obj
 0002:0000023c       ?ferr$initializer$@std@@3P6AXXZA 1004e23c     libcpmt:cerr.obj
 0002:00000240       ?cerr$initializer$@std@@3P6AXXZA 1004e240     libcpmt:cerr.obj
 0002:00000244       ?init_cerr$initializer$@std@@3P6AXXZA 1004e244     libcpmt:cerr.obj
 0002:00000248       ?initlocks$initializer$@std@@3P6AXXZA 1004e248     libcpmt:iosptrs.obj
 0002:0000024c       ?init_atexit$initializer$@@3P6AXXZA 1004e24c     libcpmt:iosptrs.obj
 0002:00000250       ??s_cookie$initializer$@Security@details@Concurrency@@2P6AXXZA@@3P6AXXZA 1004e250     libconcrt:staticinits.obj
 0002:00000254       ??s_subAllocatorFreePool$initializer$@SchedulerBase@details@Concurrency@@0P6AXXZA@@3P6AXXZA 1004e254     libconcrt:staticinits.obj
 0002:00000258       ?_Fac_tidy_reg$initializer$@std@@3P6AXXZA 1004e258     libcpmt:locale0.obj
 0002:0000025c       ?classic_locale$initializer$@std@@3P6AXXZA 1004e25c     libcpmt:locale0.obj
 0002:00000260       ?s_defaultWaiterPool$initializer$@platform@details@Concurrency@@3P6AXXZA 1004e260     libconcrt:Platform.obj
 0002:00000264       ?g_DebugOutFilePtr$initializer$@details@Concurrency@@3P6AXXZA 1004e264     libconcrt:utils.obj
 0002:00000268       ??m_badAllocExceptionPtr$initializer$@__ExceptionPtr@@0P6AXXZA@@3P6AXXZA 1004e268     libcpmt:excptptr.obj
 0002:00000270       ?init$initializer$@TLS@uS@@3P6AXXZA 1004e270     Networking.obj
 0002:00000274       ?windowsInit$initializer$@uS@@3P6AXXZA 1004e274     Networking.obj
 0002:00000278       ?hub$initializer$@@3P6AXXZA 1004e278     addon.obj
 0002:0000027c       ?noop$initializer$@@3P6AXXZA 1004e27c     addon.obj
 0002:00000280       ?reqTemplate$initializer$@@3P6AXXZA 1004e280     addon.obj
 0002:00000284       ?resTemplate$initializer$@@3P6AXXZA 1004e284     addon.obj
 0002:00000288       ?httpPersistent$initializer$@@3P6AXXZA 1004e288     addon.obj
 0002:00000294       ?pinit@@3P6AHXZA           1004e294     libcpmt:winapisupp.obj
 0002:00000298       ?__scrt_initialize_tss_var@@3P6AHXZA 1004e298     LIBCMT:thread_safe_statics.obj
 0002:000002bc       ?pterm@@3P6AXXZA           1004e2bc     libconcrt:utils.obj
 0002:00000384       ?msgs@@3QBQBDB             1004e384     libcpmt:thread0.obj
 0002:000003a0       ?codes@@3QBHB              1004e3a0     libcpmt:thread0.obj
 0002:00000a00       ?_Win_errtab@std@@3QBU_Win_errtab_t@1@B 1004ea00     libcpmt:syserror.obj
 0002:00000c50       ?_Sys_errtab@std@@3QBU_Sys_errtab_t@1@B 1004ec50     libcpmt:syserror.obj
 0002:000014c0       _digits                    1004f4c0     libcpmt:xstoul.obj
 0002:000014e8       _ndigs                     1004f4e8     libcpmt:xstoul.obj
 0002:00001510       _digits                    1004f510     libcpmt:xstoull.obj
 0002:00001538       _ndigs                     1004f538     libcpmt:xstoull.obj
 0002:00001560       ?LcidToLocaleNameTable@@3QBULcidToLocaleName@@B 1004f560     libcpmt:winapinls.obj
 0002:00001c80       ?LocaleNameToIndexTable@@3QBULocaleNameIndex@@B 1004fc80     libcpmt:winapinls.obj
 0002:0000361c       _GS_ExceptionPointers      1005161c     LIBCMT:gs_report.obj
 0002:00004390       ?ExceptionTemplate@?1??_CxxThrowException@@9@8@4UEHExceptionRecord@@B 10052390     libvcruntime:throw.obj
 0002:000043d0       ?module_names@?A0x89697e75@@3QBQB_WB 100523d0     libvcruntime:winapi_downlevel.obj
 0002:00004480       ?candidate_modules@?1??try_get_FlsAlloc@@YAP6GKP6GXPAX@Z@ZXZ@4QBW4module_id@?A0x89697e75@@B 10052480     libvcruntime:winapi_downlevel.obj
 0002:00004488       ?candidate_modules@?1??try_get_FlsFree@@YAP6GHK@ZXZ@4QBW4module_id@?A0x89697e75@@B 10052488     libvcruntime:winapi_downlevel.obj
 0002:00004490       ?candidate_modules@?1??try_get_FlsGetValue@@YAP6GPAXK@ZXZ@4QBW4module_id@?A0x89697e75@@B 10052490     libvcruntime:winapi_downlevel.obj
 0002:00004498       ?candidate_modules@?1??try_get_FlsSetValue@@YAP6GHKPAX@ZXZ@4QBW4module_id@?A0x89697e75@@B 10052498     libvcruntime:winapi_downlevel.obj
 0002:000044a0       ?candidate_modules@?1??try_get_InitializeCriticalSectionEx@@YAP6GHPAU_RTL_CRITICAL_SECTION@@KK@ZXZ@4QBW4module_id@?A0x89697e75@@B 100524a0     libvcruntime:winapi_downlevel.obj
 0002:000044f8       ?tokenTable@@3QBQBDB       100524f8     libvcruntime:undname.obj
 0002:00004530       ?nameTable@@3QBQBDB        10052530     libvcruntime:undname.obj
 0002:00004674       ?rttiTable@@3QBQBDB        10052674     libvcruntime:undname.obj
 0002:00004c50       _errtable                  10052c50     libucrt:errno.obj
 0002:00006070       POW_name                   10054070     libucrt:pow.obj
 0002:00006148       ___acrt_initializers       10054148     libucrt:initialization.obj
 0002:000061c0       _NAME_                     100541c0     libucrt:sqrt.obj
 0002:00006290       __first_127char            10054290     libucrt:wsetlocale.obj
 0002:000068d8       ?_names@?1??_get_fname@@9@9 100548d8     libucrt:fpexcept.obj
 0002:00006a00       _over                      10054a00     libucrt:fpctrl.obj
 0002:00006a0c       _under                     10054a0c     libucrt:fpctrl.obj
 0002:00006a18       _module_names              10054a18     libucrt:winapi_thunks.obj
 0002:00006eb8       ?candidate_modules@?1??try_get_CompareStringEx@@YAP6GHPB_WK0H0HPAU_nlsversioninfo@@PAXJ@ZXZ@4QBW4module_id@?A0x352e5c4b@@B 10054eb8     libucrt:winapi_thunks.obj
 0002:00006ec0       ?candidate_modules@?1??try_get_EnumSystemLocalesEx@@YAP6GHP6GHPA_WKJ@ZKJPAX@ZXZ@4QBW4module_id@?A0x352e5c4b@@B 10054ec0     libucrt:winapi_thunks.obj
 0002:00006edc       ?candidate_modules@?1??try_get_FlsAlloc@@YAP6GKP6GXPAX@Z@ZXZ@4QBW4module_id@?A0x352e5c4b@@B 10054edc     libucrt:winapi_thunks.obj
 0002:00006ee4       ?candidate_modules@?1??try_get_FlsFree@@YAP6GHK@ZXZ@4QBW4module_id@?A0x352e5c4b@@B 10054ee4     libucrt:winapi_thunks.obj
 0002:00006eec       ?candidate_modules@?1??try_get_FlsGetValue@@YAP6GPAXK@ZXZ@4QBW4module_id@?A0x352e5c4b@@B 10054eec     libucrt:winapi_thunks.obj
 0002:00006ef4       ?candidate_modules@?1??try_get_FlsSetValue@@YAP6GHKPAX@ZXZ@4QBW4module_id@?A0x352e5c4b@@B 10054ef4     libucrt:winapi_thunks.obj
 0002:00006efc       ?candidate_modules@?1??try_get_GetCurrentPackageId@@YAP6GJPAIPAE@ZXZ@4QBW4module_id@?A0x352e5c4b@@B 10054efc     libucrt:winapi_thunks.obj
 0002:00006f04       ?candidate_modules@?1??try_get_GetLocaleInfoEx@@YAP6GHPB_WKPA_WH@ZXZ@4QBW4module_id@?A0x352e5c4b@@B 10054f04     libucrt:winapi_thunks.obj
 0002:00006f0c       ?candidate_modules@?1??try_get_GetUserDefaultLocaleName@@YAP6GHPA_WH@ZXZ@4QBW4module_id@?A0x352e5c4b@@B 10054f0c     libucrt:winapi_thunks.obj
 0002:00006f30       ?candidate_modules@?1??try_get_InitializeCriticalSectionEx@@YAP6GHPAU_RTL_CRITICAL_SECTION@@KK@ZXZ@4QBW4module_id@?A0x352e5c4b@@B 10054f30     libucrt:winapi_thunks.obj
 0002:00006f38       ?candidate_modules@?1??try_get_IsValidLocaleName@@YAP6GHPB_W@ZXZ@4QBW4module_id@?A0x352e5c4b@@B 10054f38     libucrt:winapi_thunks.obj
 0002:00006f54       ?candidate_modules@?1??try_get_LCMapStringEx@@YAP6GHPB_WK0HPA_WHPAU_nlsversioninfo@@PAXJ@ZXZ@4QBW4module_id@?A0x352e5c4b@@B 10054f54     libucrt:winapi_thunks.obj
 0002:00006f5c       ?candidate_modules@?1??try_get_LCIDToLocaleName@@YAP6GHKPA_WHK@ZXZ@4QBW4module_id@?A0x352e5c4b@@B 10054f5c     libucrt:winapi_thunks.obj
 0002:00006f78       ?candidate_modules@?1??try_get_LocaleNameToLCID@@YAP6GKPB_WK@ZXZ@4QBW4module_id@?A0x352e5c4b@@B 10054f78     libucrt:winapi_thunks.obj
 0002:00006fa0       Shifter                    10054fa0     libucrt:pow_pentium4.obj
 0002:00006fb0       SIGMASK                    10054fb0     libucrt:pow_pentium4.obj
 0002:00006fc0       ONEMASK                    10054fc0     libucrt:pow_pentium4.obj
 0002:00006fd0       ABSVALMASK                 10054fd0     libucrt:pow_pentium4.obj
 0002:00006fe0       cev                        10054fe0     libucrt:pow_pentium4.obj
 0002:00007008       HALFSIG                    10055008     libucrt:pow_pentium4.obj
 0002:00007010       LHN                        10055010     libucrt:pow_pentium4.obj
 0002:00007018       sNaN                       10055018     libucrt:pow_pentium4.obj
 0002:00007020       INF                        10055020     libucrt:pow_pentium4.obj
 0002:00007028       NEG_INF                    10055028     libucrt:pow_pentium4.obj
 0002:00007030       NEG_ZERO                   10055030     libucrt:pow_pentium4.obj
 0002:00007038       NEG_BIG                    10055038     libucrt:pow_pentium4.obj
 0002:00007040       POS_BIG                    10055040     libucrt:pow_pentium4.obj
 0002:00007048       EMIN                       10055048     libucrt:pow_pentium4.obj
 0002:00007050       QIND                       10055050     libucrt:pow_pentium4.obj
 0002:0000707e       _log2max                   1005507e     libucrt:87tran.obj
 0002:00007088       _smallarg                  10055088     libucrt:87tran.obj
 0002:00007092       _half                      10055092     libucrt:87tran.obj
 0002:000070de       One                        100550de     libucrt:87disp.obj
 0002:000070e6       Three                      100550e6     libucrt:87disp.obj
 0002:000070ee       XAMtoTagTab                100550ee     libucrt:87disp.obj
 0002:00007100       One                        10055100     libucrt:common.obj
 0002:00007114       DblMax                     10055114     libucrt:common.obj
 0002:0000711c       DblMin                     1005511c     libucrt:common.obj
 0002:00007124       IeeeAdjO                   10055124     libucrt:common.obj
 0002:0000712c       IeeeAdjU                   1005512c     libucrt:common.obj
 0002:00007134       _infinity                  10055134     libucrt:common.obj
 0002:0000713c       _zero                      1005513c     libucrt:common.obj
 0002:00007150       __mb_locale_names          10055150     libucrt:mbctype.obj
 0002:00007160       smask                      10055160     libucrt:exp_pentium4.obj
 0002:00007170       emask                      10055170     libucrt:exp_pentium4.obj
 0002:00007180       mmask                      10055180     libucrt:exp_pentium4.obj
 0002:00007190       bias                       10055190     libucrt:exp_pentium4.obj
 0002:000071a0       Shifter                    100551a0     libucrt:exp_pentium4.obj
 0002:000071b0       twom60                     100551b0     libucrt:exp_pentium4.obj
 0002:000071c0       cv                         100551c0     libucrt:exp_pentium4.obj
 0002:00007210       ONE_val                    10055210     libucrt:exp_pentium4.obj
 0002:00007218       EMIN                       10055218     libucrt:exp_pentium4.obj
 0002:00007220       MAX_ARG                    10055220     libucrt:exp_pentium4.obj
 0002:00007228       MIN_ARG                    10055228     libucrt:exp_pentium4.obj
 0002:00007230       INF                        10055230     libucrt:exp_pentium4.obj
 0002:00007238       ZERO                       10055238     libucrt:exp_pentium4.obj
 0002:00007240       XMAX                       10055240     libucrt:exp_pentium4.obj
 0002:00007248       XMIN                       10055248     libucrt:exp_pentium4.obj
 0002:00007250       Sm_Thres                   10055250     libucrt:exp_pentium4.obj
 0002:00007258       Del_Thres                  10055258     libucrt:exp_pentium4.obj
 0002:00007260       DblMax                     10055260     libucrt:87cdisp.obj
 0002:00007268       DblMin                     10055268     libucrt:87cdisp.obj
 0002:00007270       IeeeAdjO                   10055270     libucrt:87cdisp.obj
 0002:00007278       IeeeAdjU                   10055278     libucrt:87cdisp.obj
 0002:00007280       _infinity                  10055280     libucrt:87cdisp.obj
 0002:00007288       _zero                      10055288     libucrt:87cdisp.obj
 0002:00008068       _LcidToLocaleNameTable     10056068     libucrt:lcidtoname_downlevel.obj
 0002:00008788       _LocaleNameToIndexTable    10056788     libucrt:lcidtoname_downlevel.obj
 0002:0000cb30       LOG_name                   1005ab30     libucrt:log10.obj
 0002:0000cb40       _One                       1005ab40     libucrt:ceil_pentium4.obj
 0002:0000cb50       _Bns                       1005ab50     libucrt:ceil_pentium4.obj
 0002:0000cb60       _Zero                      1005ab60     libucrt:ceil_pentium4.obj
 0002:0000cb70       _S                         1005ab70     libucrt:ceil_pentium4.obj
 0002:0000cb80       _NegZero                   1005ab80     libucrt:ceil_pentium4.obj
 0002:0000cba0       emask                      1005aba0     libucrt:log10_pentium4.obj
 0002:0000cbb0       CC                         1005abb0     libucrt:log10_pentium4.obj
 0002:0000cbc0       Magic                      1005abc0     libucrt:log10_pentium4.obj
 0002:0000cbd0       hi_mask                    1005abd0     libucrt:log10_pentium4.obj
 0002:0000cbe0       LOG10_2                    1005abe0     libucrt:log10_pentium4.obj
 0002:0000cbf0       place_L                    1005abf0     libucrt:log10_pentium4.obj
 0002:0000cc10       One                        1005ac10     libucrt:log10_pentium4.obj
 0002:0000cc20       Zero                       1005ac20     libucrt:log10_pentium4.obj
 0002:0000cc30       Two52                      1005ac30     libucrt:log10_pentium4.obj
 0002:0000cc40       Infs                       1005ac40     libucrt:log10_pentium4.obj
 0002:0000cc50       NaN                        1005ac50     libucrt:log10_pentium4.obj
 0002:0000cc60       coeff                      1005ac60     libucrt:log10_pentium4.obj
 0002:00010bf0       __unwindtable$?_Endwrite@?$basic_filebuf@DU?$char_traits@D@std@@@std@@IAE_NXZ 1005ebf0     libcpmt:cout.obj
 0002:00010bf0       __unwindtable$??0system_error@std@@QAE@HABVerror_category@1@PBD@Z 1005ebf0     libcpmt:thread0.obj
 0002:00010bf8       __ehfuncinfo$?_Endwrite@?$basic_filebuf@DU?$char_traits@D@std@@@std@@IAE_NXZ 1005ebf8     libcpmt:cout.obj
 0002:00010bf8       __ehfuncinfo$??0system_error@std@@QAE@HABVerror_category@1@PBD@Z 1005ebf8     libcpmt:thread0.obj
 0002:00010c78       __unwindtable$?create_stl_critical_section@details@Concurrency@@YAXPAVstl_critical_section_interface@12@@Z 1005ec78     libcpmt:mutex.obj
 0002:00010c78       __unwindtable$?create_stl_condition_variable@details@Concurrency@@YAXPAVstl_condition_variable_interface@12@@Z 1005ec78     libcpmt:cond.obj
 0002:00010c80       __ehfuncinfo$?create_stl_condition_variable@details@Concurrency@@YAXPAVstl_condition_variable_interface@12@@Z 1005ec80     libcpmt:cond.obj
 0002:00010c80       __ehfuncinfo$?create_stl_critical_section@details@Concurrency@@YAXPAVstl_critical_section_interface@12@@Z 1005ec80     libcpmt:mutex.obj
 0002:00010ca4       __ehfuncinfo$??1ResourceManager@details@Concurrency@@AAE@XZ 1005eca4     libconcrt:ResourceManager.obj
 0002:00010ca4       __ehfuncinfo$??_EGlobalCore@details@Concurrency@@QAEPAXI@Z 1005eca4     libcpmt:mutex.obj
 0002:00010ca4       __ehfuncinfo$??1_Scoped_lock@_HyperNonReentrantLock@details@Concurrency@@QAE@XZ 1005eca4     libconcrt:SchedulerBase.obj
 0002:00010ca4       __ehfuncinfo$??1_TaskCollection@details@Concurrency@@QAE@XZ 1005eca4     libconcrt:TaskCollection.obj
 0002:00010ca4       __ehfuncinfo$??1AllocatorBucket@details@Concurrency@@QAE@XZ 1005eca4     libconcrt:SubAllocator.obj
 0002:00010ca4       __ehfuncinfo$??1__ExceptionPtr@@QAE@XZ 1005eca4     libcpmt:excptptr.obj
 0002:00010ca4       __ehfuncinfo$??1_Scoped_lock@_NonReentrantBlockingLock@details@Concurrency@@QAE@XZ 1005eca4     libconcrt:ResourceManager.obj
 0002:00010ca4       __ehfuncinfo$??1ScopedCriticalRegion@ContextBase@details@Concurrency@@QAE@XZ 1005eca4     libconcrt:InternalContextBase.obj
 0002:00010ca4       __ehfuncinfo$??1?$lock_guard@Vmutex@std@@@std@@QAE@XZ 1005eca4     libconcrt:TaskCollection.obj
 0002:00010ca4       __ehfuncinfo$??1?$unique_lock@Vmutex@std@@@std@@QAE@XZ 1005eca4     libconcrt:TaskCollection.obj
 0002:00010ca4       __ehfuncinfo$??1_Locimp@locale@std@@MAE@XZ 1005eca4     libcpmt:locale0.obj
 0002:00010ca4       __ehfuncinfo$??1_Fac_node@std@@QAE@XZ 1005eca4     libcpmt:locale0.obj
 0002:00010ca4       __ehfuncinfo$??1_Condition_variable@details@Concurrency@@QAE@XZ 1005eca4     libconcrt:event.obj
 0002:00010ca4       __ehfuncinfo$??1ExternalContextBase@details@Concurrency@@UAE@XZ 1005eca4     libconcrt:ExternalContextBase.obj
 0002:00010ca4       __ehfuncinfo$??1InternalContextBase@details@Concurrency@@UAE@XZ 1005eca4     libconcrt:InternalContextBase.obj
 0002:00010ca4       __ehfuncinfo$??1SchedulerProxy@details@Concurrency@@IAE@XZ 1005eca4     libconcrt:SchedulerProxy.obj
 0002:00010ca4       __ehfuncinfo$??1?$basic_filebuf@DU?$char_traits@D@std@@@std@@UAE@XZ 1005eca4     libcpmt:cout.obj
 0002:00010ca4       __ehfuncinfo$??1ThreadProxyFactoryManager@details@Concurrency@@QAE@XZ 1005eca4     libconcrt:ThreadProxyFactoryManager.obj
 0002:00010ca4       __ehfuncinfo$??1ThreadProxy@details@Concurrency@@UAE@XZ 1005eca4     libconcrt:ThreadProxy.obj
 0002:00010ca4       __ehfuncinfo$??1scoped_lock@critical_section@Concurrency@@QAE@XZ 1005eca4     libconcrt:rtlocks.obj
 0002:00010ca4       __ehfuncinfo$??1?$Mailbox@V_UnrealizedChore@details@Concurrency@@@details@Concurrency@@QAE@XZ 1005eca4     libconcrt:ScheduleGroupBase.obj
 0002:00010ca4       __ehfuncinfo$??1event@Concurrency@@QAE@XZ 1005eca4     libconcrt:event.obj
 0002:00010ca4       __ehfuncinfo$??1SchedulerBase@details@Concurrency@@UAE@XZ 1005eca4     libconcrt:SchedulerBase.obj
 0002:00010ca4       __ehfuncinfo$??1_Scoped_lock@_CriticalNonReentrantLock@details@Concurrency@@QAE@XZ 1005eca4     libconcrt:ContextBase.obj
 0002:00010ca4       __ehfuncinfo$??1_Scoped_lock@_ReentrantBlockingLock@details@Concurrency@@QAE@XZ 1005eca4     libconcrt:SchedulerProxy.obj
 0002:00010ca4       __ehfuncinfo$??1VirtualProcessor@details@Concurrency@@UAE@XZ 1005eca4     libconcrt:VirtualProcessor.obj
 0002:00010ca4       __ehfuncinfo$??1_Scoped_lock_read@?$SafeRWList@UListEntry@details@Concurrency@@VNoCount@CollectionTypes@23@V_ReaderWriterLock@23@@details@Concurrency@@QAE@XZ 1005eca4     libconcrt:ContextBase.obj
 0002:00010ca4       __ehfuncinfo$??_ENumaInformation@SchedulerBase@details@Concurrency@@QAEPAXI@Z 1005eca4     libconcrt:SchedulerBase.obj
 0002:00010ca4       __ehfuncinfo$??1_Init_atexit@@QAE@XZ 1005eca4     libcpmt:iosptrs.obj
 0002:00010ca4       __ehfuncinfo$??_EGlobalNode@details@Concurrency@@QAEPAXI@Z 1005eca4     libconcrt:ResourceManager.obj
 0002:00010cc8       __unwindtable$?overflow@?$basic_filebuf@DU?$char_traits@D@std@@@std@@MAEHH@Z 1005ecc8     libcpmt:cout.obj
 0002:00010cd0       __ehfuncinfo$?overflow@?$basic_filebuf@DU?$char_traits@D@std@@@std@@MAEHH@Z 1005ecd0     libcpmt:cout.obj
 0002:00010cf4       __unwindtable$?uflow@?$basic_filebuf@DU?$char_traits@D@std@@@std@@MAEHXZ 1005ecf4     libcpmt:cout.obj
 0002:00010cfc       __ehfuncinfo$?uflow@?$basic_filebuf@DU?$char_traits@D@std@@@std@@MAEHXZ 1005ecfc     libcpmt:cout.obj
 0002:00010d20       __unwindtable$??_Gios_base@std@@UAEPAXI@Z 1005ed20     libcpmt:cout.obj
 0002:00010d20       __unwindtable$??_G?$basic_ios@DU?$char_traits@D@std@@@std@@UAEPAXI@Z 1005ed20     libcpmt:cout.obj
 0002:00010d20       __unwindtable$??_GSubAllocator@details@Concurrency@@QAEPAXI@Z 1005ed20     libconcrt:SchedulerBase.obj
 0002:00010d28       __ehfuncinfo$??_G?$basic_ios@DU?$char_traits@D@std@@@std@@UAEPAXI@Z 1005ed28     libcpmt:cout.obj
 0002:00010d28       __ehfuncinfo$??_Gios_base@std@@UAEPAXI@Z 1005ed28     libcpmt:cout.obj
 0002:00010d28       __ehfuncinfo$??_GSubAllocator@details@Concurrency@@QAEPAXI@Z 1005ed28     libconcrt:SchedulerBase.obj
 0002:00010d4c       __unwindtable$??0?$basic_ostream@DU?$char_traits@D@std@@@std@@QAE@PAV?$basic_streambuf@DU?$char_traits@D@std@@@1@_N@Z 1005ed4c     libcpmt:cout.obj
 0002:00010d54       __ehfuncinfo$??0?$basic_ostream@DU?$char_traits@D@std@@@std@@QAE@PAV?$basic_streambuf@DU?$char_traits@D@std@@@1@_N@Z 1005ed54     libcpmt:cout.obj
 0002:00010d78       __unwindtable$??1?$basic_ios@DU?$char_traits@D@std@@@std@@UAE@XZ 1005ed78     libcpmt:cout.obj
 0002:00010d78       __unwindtable$??_D?$basic_ostream@DU?$char_traits@D@std@@@std@@QAEXXZ 1005ed78     libcpmt:cout.obj
 0002:00010d80       __ehfuncinfo$??1?$basic_ios@DU?$char_traits@D@std@@@std@@UAE@XZ 1005ed80     libcpmt:cout.obj
 0002:00010d80       __ehfuncinfo$??_D?$basic_ostream@DU?$char_traits@D@std@@@std@@QAEXXZ 1005ed80     libcpmt:cout.obj
 0002:00010da4       __unwindtable$??$use_facet@V?$codecvt@DDU_Mbstatet@@@std@@@std@@YAABV?$codecvt@DDU_Mbstatet@@@0@ABVlocale@0@@Z 1005eda4     libcpmt:cout.obj
 0002:00010dac       __ehfuncinfo$??$use_facet@V?$codecvt@DDU_Mbstatet@@@std@@@std@@YAABV?$codecvt@DDU_Mbstatet@@@0@ABVlocale@0@@Z 1005edac     libcpmt:cout.obj
 0002:00010dd0       __unwindtable$?_Getcat@?$codecvt@DDU_Mbstatet@@@std@@SAIPAPBVfacet@locale@2@PBV42@@Z 1005edd0     libcpmt:cout.obj
 0002:00010dd8       __ehfuncinfo$?_Getcat@?$codecvt@DDU_Mbstatet@@@std@@SAIPAPBVfacet@locale@2@PBV42@@Z 1005edd8     libcpmt:cout.obj
 0002:00010e34       __unwindtable$?_Locimp_dtor@_Locimp@locale@std@@CAXPAV123@@Z 1005ee34     libcpmt:locale0.obj
 0002:00010e3c       __ehfuncinfo$?_Locimp_dtor@_Locimp@locale@std@@CAXPAV123@@Z 1005ee3c     libcpmt:locale0.obj
 0002:00010e60       __unwindtable$?_Init@locale@std@@CAPAV_Locimp@12@_N@Z 1005ee60     libcpmt:locale0.obj
 0002:00010e68       __ehfuncinfo$?_Init@locale@std@@CAPAV_Locimp@12@_N@Z 1005ee68     libcpmt:locale0.obj
 0002:00010e90       __sehtable$___scrt_is_nonwritable_in_current_image 1005ee90     LIBCMT:utility.obj
 0002:00010eb0       __sehtable$?dllmain_crt_process_attach@@YAHQAUHINSTANCE__@@QAX@Z 1005eeb0     LIBCMT:dll_dllmain.obj
 0002:00010ed0       __sehtable$?dllmain_crt_process_detach@@YAH_N@Z 1005eed0     LIBCMT:dll_dllmain.obj
 0002:00010ef0       __sehtable$?dllmain_dispatch@@YAHQAUHINSTANCE__@@KQAX@Z 1005eef0     LIBCMT:dll_dllmain.obj
 0002:00010f10       __sehtable$??_M@YGXPAXIIP6EX0@Z@Z 1005ef10     LIBCMT:ehvecdtr.obj
 0002:00010f30       __sehtable$?__ArrayUnwind@@YGXPAXIIP6EX0@Z@Z 1005ef30     LIBCMT:ehvecdtr.obj
 0002:00010f88       __unwindtable$?try_lock_for@critical_section@Concurrency@@QAE_NI@Z 1005ef88     libconcrt:rtlocks.obj
 0002:00010f90       __ehfuncinfo$?try_lock_for@critical_section@Concurrency@@QAE_NI@Z 1005ef90     libconcrt:rtlocks.obj
 0002:00010fb4       __unwindtable$??0scoped_lock@critical_section@Concurrency@@QAE@AAV12@@Z 1005efb4     libconcrt:rtlocks.obj
 0002:00010fbc       __ehfuncinfo$??0scoped_lock@critical_section@Concurrency@@QAE@AAV12@@Z 1005efbc     libconcrt:rtlocks.obj
 0002:00011050       __unwindtable$?Release@ResourceManager@details@Concurrency@@UAEIXZ 1005f050     libconcrt:ResourceManager.obj
 0002:00011060       __ehfuncinfo$?Release@ResourceManager@details@Concurrency@@UAEIXZ 1005f060     libconcrt:ResourceManager.obj
 0002:00011084       __unwindtable$?CreateSingleton@ResourceManager@details@Concurrency@@SAPAV123@XZ 1005f084     libconcrt:ResourceManager.obj
 0002:0001109c       __ehfuncinfo$?CreateSingleton@ResourceManager@details@Concurrency@@SAPAV123@XZ 1005f09c     libconcrt:ResourceManager.obj
 0002:000110c0       __unwindtable$?GetCoreCount@ResourceManager@details@Concurrency@@SAIXZ 1005f0c0     libconcrt:ResourceManager.obj
 0002:000110c0       __unwindtable$?_RegisterConcRTEventTracing@details@Concurrency@@YAXXZ 1005f0c0     libconcrt:Trace.obj
 0002:000110c0       __unwindtable$?StaticDestruction@SchedulerBase@details@Concurrency@@CAXXZ 1005f0c0     libconcrt:SchedulerBase.obj
 0002:000110c0       __unwindtable$?GetNodeCount@ResourceManager@details@Concurrency@@SAIXZ 1005f0c0     libconcrt:ResourceManager.obj
 0002:000110c0       __unwindtable$?CheckStaticConstruction@SchedulerBase@details@Concurrency@@CAXXZ 1005f0c0     libconcrt:SchedulerBase.obj
 0002:000110c0       __unwindtable$?Version@ResourceManager@details@Concurrency@@SA?AW4OSVersion@IResourceManager@3@XZ 1005f0c0     libconcrt:ResourceManager.obj
 0002:000110c8       __ehfuncinfo$?_RegisterConcRTEventTracing@details@Concurrency@@YAXXZ 1005f0c8     libconcrt:Trace.obj
 0002:000110c8       __ehfuncinfo$?Version@ResourceManager@details@Concurrency@@SA?AW4OSVersion@IResourceManager@3@XZ 1005f0c8     libconcrt:ResourceManager.obj
 0002:000110c8       __ehfuncinfo$?StaticDestruction@SchedulerBase@details@Concurrency@@CAXXZ 1005f0c8     libconcrt:SchedulerBase.obj
 0002:000110c8       __ehfuncinfo$?GetNodeCount@ResourceManager@details@Concurrency@@SAIXZ 1005f0c8     libconcrt:ResourceManager.obj
 0002:000110c8       __ehfuncinfo$?GetCoreCount@ResourceManager@details@Concurrency@@SAIXZ 1005f0c8     libconcrt:ResourceManager.obj
 0002:000110c8       __ehfuncinfo$?CheckStaticConstruction@SchedulerBase@details@Concurrency@@CAXXZ 1005f0c8     libconcrt:SchedulerBase.obj
 0002:000110ec       __unwindtable$?DestroyVirtualProcessorRoot@SchedulerProxy@details@Concurrency@@QAEXPAVVirtualProcessorRoot@23@@Z 1005f0ec     libconcrt:SchedulerProxy.obj
 0002:000110ec       __unwindtable$?RemoveExecutionResource@ResourceManager@details@Concurrency@@QAEXPAVExecutionResource@23@@Z 1005f0ec     libconcrt:ResourceManager.obj
 0002:000110fc       __ehfuncinfo$?RemoveExecutionResource@ResourceManager@details@Concurrency@@QAEXPAVExecutionResource@23@@Z 1005f0fc     libconcrt:ResourceManager.obj
 0002:000110fc       __ehfuncinfo$?DestroyVirtualProcessorRoot@SchedulerProxy@details@Concurrency@@QAEXPAVVirtualProcessorRoot@23@@Z 1005f0fc     libconcrt:SchedulerProxy.obj
 0002:00011120       __unwindtable$?Shutdown@ResourceManager@details@Concurrency@@QAEXPAVSchedulerProxy@23@@Z 1005f120     libconcrt:ResourceManager.obj
 0002:00011128       __ehfuncinfo$?Shutdown@ResourceManager@details@Concurrency@@QAEXPAVSchedulerProxy@23@@Z 1005f128     libconcrt:ResourceManager.obj
 0002:0001114c       __unwindtable$?RequestInitialVirtualProcessors@ResourceManager@details@Concurrency@@QAEPAUIExecutionResource@3@PAVSchedulerProxy@23@_N@Z 1005f14c     libconcrt:ResourceManager.obj
 0002:00011164       __ehfuncinfo$?RequestInitialVirtualProcessors@ResourceManager@details@Concurrency@@QAEPAUIExecutionResource@3@PAVSchedulerProxy@23@_N@Z 1005f164     libconcrt:ResourceManager.obj
 0002:00011188       __unwindtable$?CurrentSubscriptionLevel@ResourceManager@details@Concurrency@@QAEIII@Z 1005f188     libconcrt:ResourceManager.obj
 0002:00011188       __unwindtable$?DestroyExecutionResource@SchedulerProxy@details@Concurrency@@QAEXPAVExecutionResource@23@@Z 1005f188     libconcrt:SchedulerProxy.obj
 0002:00011190       __ehfuncinfo$?CurrentSubscriptionLevel@ResourceManager@details@Concurrency@@QAEIII@Z 1005f190     libconcrt:ResourceManager.obj
 0002:00011190       __ehfuncinfo$?DestroyExecutionResource@SchedulerProxy@details@Concurrency@@QAEXPAVExecutionResource@23@@Z 1005f190     libconcrt:SchedulerProxy.obj
 0002:000111b4       __unwindtable$?CreateAllocatedNodeData@ResourceManager@details@Concurrency@@QAEPAUSchedulerNode@23@XZ 1005f1b4     libconcrt:ResourceManager.obj
 0002:000111bc       __ehfuncinfo$?CreateAllocatedNodeData@ResourceManager@details@Concurrency@@QAEPAUSchedulerNode@23@XZ 1005f1bc     libconcrt:ResourceManager.obj
 0002:000111e0       __unwindtable$??0ResourceManager@details@Concurrency@@AAE@XZ 1005f1e0     libconcrt:ResourceManager.obj
 0002:000111f0       __ehfuncinfo$??0ResourceManager@details@Concurrency@@AAE@XZ 1005f1f0     libconcrt:ResourceManager.obj
 0002:00011214       __unwindtable$?CaptureProcessAffinity@ResourceManager@details@Concurrency@@CAXXZ 1005f214     libconcrt:ResourceManager.obj
 0002:0001121c       __ehfuncinfo$?CaptureProcessAffinity@ResourceManager@details@Concurrency@@CAXXZ 1005f21c     libconcrt:ResourceManager.obj
 0002:00011240       __unwindtable$?CreateSchedulerProxy@ResourceManager@details@Concurrency@@AAEPAVSchedulerProxy@23@PAUIScheduler@3@@Z 1005f240     libconcrt:ResourceManager.obj
 0002:00011250       __ehfuncinfo$?CreateSchedulerProxy@ResourceManager@details@Concurrency@@AAEPAVSchedulerProxy@23@PAUIScheduler@3@@Z 1005f250     libconcrt:ResourceManager.obj
 0002:00011274       __unwindtable$?DynamicResourceManager@ResourceManager@details@Concurrency@@AAEXXZ 1005f274     libconcrt:ResourceManager.obj
 0002:00011284       __ehfuncinfo$?DynamicResourceManager@ResourceManager@details@Concurrency@@AAEXXZ 1005f284     libconcrt:ResourceManager.obj
 0002:00011318       __ehfuncinfo$??0SchedulerBase@details@Concurrency@@QAE@ABVSchedulerPolicy@2@@Z 1005f318     libconcrt:SchedulerBase.obj
 0002:0001133c       __unwindtable$??0SchedulerBase@details@Concurrency@@QAE@ABVSchedulerPolicy@2@@Z 1005f33c     libconcrt:SchedulerBase.obj
 0002:00011394       __catchsym$?GetInternalContext@SchedulerBase@details@Concurrency@@QAEPAVInternalContextBase@23@_N@Z$2 1005f394     libconcrt:SchedulerBase.obj
 0002:000113a4       __unwindtable$?GetInternalContext@SchedulerBase@details@Concurrency@@QAEPAVInternalContextBase@23@_N@Z 1005f3a4     libconcrt:SchedulerBase.obj
 0002:000113b4       __tryblocktable$?GetInternalContext@SchedulerBase@details@Concurrency@@QAEPAVInternalContextBase@23@_N@Z 1005f3b4     libconcrt:SchedulerBase.obj
 0002:000113c8       __ehfuncinfo$?GetInternalContext@SchedulerBase@details@Concurrency@@QAEPAVInternalContextBase@23@_N@Z 1005f3c8     libconcrt:SchedulerBase.obj
 0002:000113ec       __unwindtable$?GetSubAllocator@SchedulerBase@details@Concurrency@@SAPAVSubAllocator@23@_N@Z 1005f3ec     libconcrt:SchedulerBase.obj
 0002:000113f4       __ehfuncinfo$?GetSubAllocator@SchedulerBase@details@Concurrency@@SAPAVSubAllocator@23@_N@Z 1005f3f4     libconcrt:SchedulerBase.obj
 0002:00011418       __unwindtable$?GetBitSet@SchedulerBase@details@Concurrency@@QAE?AVQuickBitSet@23@PBVlocation@3@@Z 1005f418     libconcrt:SchedulerBase.obj
 0002:00011420       __ehfuncinfo$?GetBitSet@SchedulerBase@details@Concurrency@@QAE?AVQuickBitSet@23@PBVlocation@3@@Z 1005f420     libconcrt:SchedulerBase.obj
 0002:00011444       __unwindtable$?AddTail@?$SafeRWList@UListEntry@details@Concurrency@@VNoCount@CollectionTypes@23@V_ReaderWriterLock@23@@details@Concurrency@@QAEXPAUListEntry@23@@Z 1005f444     libconcrt:ContextBase.obj
 0002:00011444       __unwindtable$?Enqueue@?$SafeSQueue@VInternalContextBase@details@Concurrency@@V_HyperNonReentrantLock@23@@details@Concurrency@@QAEXPAVInternalContextBase@23@@Z 1005f444     libconcrt:CacheLocalScheduleGroup.obj
 0002:00011444       __unwindtable$?Remove@?$SafeRWList@UListEntry@details@Concurrency@@VNoCount@CollectionTypes@23@V_ReaderWriterLock@23@@details@Concurrency@@QAEXPAUListEntry@23@@Z 1005f444     libconcrt:ContextBase.obj
 0002:00011444       __unwindtable$?Dequeue@?$SafeSQueue@VRealizedChore@details@Concurrency@@V_HyperNonReentrantLock@23@@details@Concurrency@@QAEPAVRealizedChore@23@XZ 1005f444     libconcrt:ScheduleGroupBase.obj
 0002:00011444       __unwindtable$?Dequeue@?$SafeSQueue@VInternalContextBase@details@Concurrency@@V_HyperNonReentrantLock@23@@details@Concurrency@@QAEPAVInternalContextBase@23@XZ 1005f444     libconcrt:SchedulerBase.obj
 0002:00011444       __unwindtable$?_Init@ios_base@std@@IAEXXZ 1005f444     libcpmt:cout.obj
 0002:00011444       __unwindtable$?RemoveHead@?$SafeRWList@VWaitNode@SchedulerBase@details@Concurrency@@VNoCount@CollectionTypes@34@V_ReaderWriterLock@34@@details@Concurrency@@QAEPAVWaitNode@SchedulerBase@23@XZ 1005f444     libconcrt:SchedulerBase.obj
 0002:00011444       __unwindtable$?AddTail@?$SafeRWList@VWaitNode@SchedulerBase@details@Concurrency@@VNoCount@CollectionTypes@34@V_ReaderWriterLock@34@@details@Concurrency@@QAEXPAVWaitNode@SchedulerBase@23@@Z 1005f444     libconcrt:SchedulerBase.obj
 0002:00011444       __unwindtable$??0?$basic_streambuf@DU?$char_traits@D@std@@@std@@IAE@XZ 1005f444     libcpmt:cout.obj
 0002:00011444       __unwindtable$?MarkDetachment@?$WorkStealingQueue@V_UnrealizedChore@details@Concurrency@@V_CriticalNonReentrantLock@23@@details@Concurrency@@QAEXXZ 1005f444     libconcrt:ScheduleGroupBase.obj
 0002:00011444       __unwindtable$?AddExecutionResource@SchedulerProxy@details@Concurrency@@QAEXPAVExecutionResource@23@@Z 1005f444     libconcrt:SchedulerProxy.obj
 0002:00011444       __unwindtable$?Enqueue@?$SafeSQueue@VRealizedChore@details@Concurrency@@V_HyperNonReentrantLock@23@@details@Concurrency@@QAEXPAVRealizedChore@23@@Z 1005f444     libconcrt:ScheduleGroupBase.obj
 0002:0001144c       __ehfuncinfo$?Enqueue@?$SafeSQueue@VRealizedChore@details@Concurrency@@V_HyperNonReentrantLock@23@@details@Concurrency@@QAEXPAVRealizedChore@23@@Z 1005f44c     libconcrt:ScheduleGroupBase.obj
 0002:0001144c       __ehfuncinfo$?AddTail@?$SafeRWList@UListEntry@details@Concurrency@@VNoCount@CollectionTypes@23@V_ReaderWriterLock@23@@details@Concurrency@@QAEXPAUListEntry@23@@Z 1005f44c     libconcrt:ContextBase.obj
 0002:0001144c       __ehfuncinfo$?AddTail@?$SafeRWList@VWaitNode@SchedulerBase@details@Concurrency@@VNoCount@CollectionTypes@34@V_ReaderWriterLock@34@@details@Concurrency@@QAEXPAVWaitNode@SchedulerBase@23@@Z 1005f44c     libconcrt:SchedulerBase.obj
 0002:0001144c       __ehfuncinfo$?RemoveHead@?$SafeRWList@VWaitNode@SchedulerBase@details@Concurrency@@VNoCount@CollectionTypes@34@V_ReaderWriterLock@34@@details@Concurrency@@QAEPAVWaitNode@SchedulerBase@23@XZ 1005f44c     libconcrt:SchedulerBase.obj
 0002:0001144c       __ehfuncinfo$?_Init@ios_base@std@@IAEXXZ 1005f44c     libcpmt:cout.obj
 0002:0001144c       __ehfuncinfo$?Dequeue@?$SafeSQueue@VRealizedChore@details@Concurrency@@V_HyperNonReentrantLock@23@@details@Concurrency@@QAEPAVRealizedChore@23@XZ 1005f44c     libconcrt:ScheduleGroupBase.obj
 0002:0001144c       __ehfuncinfo$?Enqueue@?$SafeSQueue@VInternalContextBase@details@Concurrency@@V_HyperNonReentrantLock@23@@details@Concurrency@@QAEXPAVInternalContextBase@23@@Z 1005f44c     libconcrt:CacheLocalScheduleGroup.obj
 0002:0001144c       __ehfuncinfo$??0?$basic_streambuf@DU?$char_traits@D@std@@@std@@IAE@XZ 1005f44c     libcpmt:cout.obj
 0002:0001144c       __ehfuncinfo$?Dequeue@?$SafeSQueue@VInternalContextBase@details@Concurrency@@V_HyperNonReentrantLock@23@@details@Concurrency@@QAEPAVInternalContextBase@23@XZ 1005f44c     libconcrt:SchedulerBase.obj
 0002:0001144c       __ehfuncinfo$?Remove@?$SafeRWList@UListEntry@details@Concurrency@@VNoCount@CollectionTypes@23@V_ReaderWriterLock@23@@details@Concurrency@@QAEXPAUListEntry@23@@Z 1005f44c     libconcrt:ContextBase.obj
 0002:0001144c       __ehfuncinfo$?AddExecutionResource@SchedulerProxy@details@Concurrency@@QAEXPAVExecutionResource@23@@Z 1005f44c     libconcrt:SchedulerProxy.obj
 0002:0001144c       __ehfuncinfo$?MarkDetachment@?$WorkStealingQueue@V_UnrealizedChore@details@Concurrency@@V_CriticalNonReentrantLock@23@@details@Concurrency@@QAEXXZ 1005f44c     libconcrt:ScheduleGroupBase.obj
 0002:00011470       __unwindtable$?Initialize@SchedulerBase@details@Concurrency@@AAEXXZ 1005f470     libconcrt:SchedulerBase.obj
 0002:00011490       __ehfuncinfo$?Initialize@SchedulerBase@details@Concurrency@@AAEXXZ 1005f490     libconcrt:SchedulerBase.obj
 0002:000114b4       __unwindtable$?GetExternalContext@SchedulerBase@details@Concurrency@@AAEPAVExternalContextBase@23@_N@Z 1005f4b4     libconcrt:SchedulerBase.obj
 0002:000114bc       __ehfuncinfo$?GetExternalContext@SchedulerBase@details@Concurrency@@AAEPAVExternalContextBase@23@_N@Z 1005f4bc     libconcrt:SchedulerBase.obj
 0002:000114e0       __unwindtable$?GetDefaultScheduler@SchedulerBase@details@Concurrency@@CAPAV123@XZ 1005f4e0     libconcrt:SchedulerBase.obj
 0002:000114f0       __ehfuncinfo$?GetDefaultScheduler@SchedulerBase@details@Concurrency@@CAPAV123@XZ 1005f4f0     libconcrt:SchedulerBase.obj
 0002:00011514       __unwindtable$?InternalCreateScheduleGroup@SchedulerBase@details@Concurrency@@AAEPAVScheduleGroup@3@PAVlocation@3@@Z 1005f514     libconcrt:SchedulerBase.obj
 0002:00011524       __ehfuncinfo$?InternalCreateScheduleGroup@SchedulerBase@details@Concurrency@@AAEPAVScheduleGroup@3@PAVlocation@3@@Z 1005f524     libconcrt:SchedulerBase.obj
 0002:00011548       __unwindtable$?AllocateSegment@CacheLocalScheduleGroup@details@Concurrency@@MAEPAVScheduleGroupSegmentBase@23@PAVSchedulingRing@23@PAVlocation@3@@Z 1005f548     libconcrt:SchedulerBase.obj
 0002:00011550       __ehfuncinfo$?AllocateSegment@CacheLocalScheduleGroup@details@Concurrency@@MAEPAVScheduleGroupSegmentBase@23@PAVSchedulingRing@23@PAVlocation@3@@Z 1005f550     libconcrt:SchedulerBase.obj
 0002:00011574       __unwindtable$?AllocateSegment@FairScheduleGroup@details@Concurrency@@MAEPAVScheduleGroupSegmentBase@23@PAVSchedulingRing@23@PAVlocation@3@@Z 1005f574     libconcrt:SchedulerBase.obj
 0002:0001157c       __ehfuncinfo$?AllocateSegment@FairScheduleGroup@details@Concurrency@@MAEPAVScheduleGroupSegmentBase@23@PAVSchedulingRing@23@PAVlocation@3@@Z 1005f57c     libconcrt:SchedulerBase.obj
 0002:00011610       __unwindtable$?wait@event@Concurrency@@QAEII@Z 1005f610     libconcrt:event.obj
 0002:00011618       __ehfuncinfo$?wait@event@Concurrency@@QAEII@Z 1005f618     libconcrt:event.obj
 0002:0001163c       __unwindtable$?set@event@Concurrency@@QAEXXZ 1005f63c     libconcrt:event.obj
 0002:0001164c       __ehfuncinfo$?set@event@Concurrency@@QAEXXZ 1005f64c     libconcrt:event.obj
 0002:00011670       __unwindtable$?wait_for_multiple@event@Concurrency@@SAIPAPAV12@I_NI@Z 1005f670     libconcrt:event.obj
 0002:00011680       __ehfuncinfo$?wait_for_multiple@event@Concurrency@@SAIPAPAV12@I_NI@Z 1005f680     libconcrt:event.obj
 0002:000116a4       __unwindtable$?wait@_Condition_variable@details@Concurrency@@QAEXAAVcritical_section@3@@Z 1005f6a4     libconcrt:event.obj
 0002:000116ac       __ehfuncinfo$?wait@_Condition_variable@details@Concurrency@@QAEXAAVcritical_section@3@@Z 1005f6ac     libconcrt:event.obj
 0002:000116d0       __unwindtable$?wait_for@_Condition_variable@details@Concurrency@@QAE_NAAVcritical_section@3@I@Z 1005f6d0     libconcrt:event.obj
 0002:000116e0       __ehfuncinfo$?wait_for@_Condition_variable@details@Concurrency@@QAE_NAAVcritical_section@3@I@Z 1005f6e0     libconcrt:event.obj
 0002:00011704       __unwindtable$?notify_one@_Condition_variable@details@Concurrency@@QAEXXZ 1005f704     libconcrt:event.obj
 0002:0001170c       __ehfuncinfo$?notify_one@_Condition_variable@details@Concurrency@@QAEXXZ 1005f70c     libconcrt:event.obj
 0002:00011730       __unwindtable$??0MultiWaitBlockHolder@details@Concurrency@@QAE@_NI00@Z 1005f730     libconcrt:event.obj
 0002:00011740       __ehfuncinfo$??0MultiWaitBlockHolder@details@Concurrency@@QAE@_NI00@Z 1005f740     libconcrt:event.obj
 0002:00011764       __unwindtable$?SyncPop@?$WorkStealingQueue@V_UnrealizedChore@details@Concurrency@@V_CriticalNonReentrantLock@23@@details@Concurrency@@AAEPAV_UnrealizedChore@23@XZ 1005f764     libconcrt:ContextBase.obj
 0002:0001177c       __ehfuncinfo$?SyncPop@?$WorkStealingQueue@V_UnrealizedChore@details@Concurrency@@V_CriticalNonReentrantLock@23@@details@Concurrency@@AAEPAV_UnrealizedChore@23@XZ 1005f77c     libconcrt:ContextBase.obj
 0002:000117a0       __unwindtable$??0ContextBase@details@Concurrency@@QAE@PAVSchedulerBase@12@_N@Z 1005f7a0     libconcrt:ContextBase.obj
 0002:000117b8       __ehfuncinfo$??0ContextBase@details@Concurrency@@QAE@PAVSchedulerBase@12@_N@Z 1005f7b8     libconcrt:ContextBase.obj
 0002:000117dc       __unwindtable$?CreateWorkQueue@ContextBase@details@Concurrency@@QAEXXZ 1005f7dc     libconcrt:ContextBase.obj
 0002:000117e4       __ehfuncinfo$?CreateWorkQueue@ContextBase@details@Concurrency@@QAEXXZ 1005f7e4     libconcrt:ContextBase.obj
 0002:00011808       __sehtable$?DetachStealers@ContextBase@details@Concurrency@@QAEXXZ 1005f808     libconcrt:ContextBase.obj
 0002:00011830       __unwindtable$?CancelStealers@ContextBase@details@Concurrency@@QAEXPAV_TaskCollectionBase@23@@Z 1005f830     libconcrt:ContextBase.obj
 0002:00011840       __ehfuncinfo$?CancelStealers@ContextBase@details@Concurrency@@QAEXPAV_TaskCollectionBase@23@@Z 1005f840     libconcrt:ContextBase.obj
 0002:00011864       __unwindtable$??0_TaskCollection@details@Concurrency@@AAE@PAV012@_N@Z 1005f864     libconcrt:TaskCollection.obj
 0002:0001186c       __ehfuncinfo$??0_TaskCollection@details@Concurrency@@AAE@PAV012@_N@Z 1005f86c     libconcrt:TaskCollection.obj
 0002:00011890       __unwindtable$?_Alias@_TaskCollection@details@Concurrency@@AAEPAV123@XZ 1005f890     libconcrt:TaskCollection.obj
 0002:00011898       __ehfuncinfo$?_Alias@_TaskCollection@details@Concurrency@@AAEPAV123@XZ 1005f898     libconcrt:TaskCollection.obj
 0002:000118bc       __unwindtable$?_FullAliasWait@_TaskCollection@details@Concurrency@@AAEXPAV123@@Z 1005f8bc     libconcrt:TaskCollection.obj
 0002:000118c4       __ehfuncinfo$?_FullAliasWait@_TaskCollection@details@Concurrency@@AAEXPAV123@@Z 1005f8c4     libconcrt:TaskCollection.obj
 0002:000118e8       __unwindtable$?_CancelStolenContexts@_TaskCollection@details@Concurrency@@AAEX_N0@Z 1005f8e8     libconcrt:TaskCollection.obj
 0002:000118f8       __ehfuncinfo$?_CancelStolenContexts@_TaskCollection@details@Concurrency@@AAEX_N0@Z 1005f8f8     libconcrt:TaskCollection.obj
 0002:0001191c       __unwindtable$?_Initialize@_TaskCollection@details@Concurrency@@AAEXXZ 1005f91c     libconcrt:TaskCollection.obj
 0002:00011924       __ehfuncinfo$?_Initialize@_TaskCollection@details@Concurrency@@AAEXXZ 1005f924     libconcrt:TaskCollection.obj
 0002:00011948       __unwindtable$?_Invoke@_CancellationTokenRegistration@details@Concurrency@@AAEXXZ 1005f948     libconcrt:TaskCollection.obj
 0002:00011958       __ehfuncinfo$?_Invoke@_CancellationTokenRegistration@details@Concurrency@@AAEXXZ 1005f958     libconcrt:TaskCollection.obj
 0002:0001197c       __unwindtable$?_RegisterCallback@_CancellationTokenState@details@Concurrency@@QAEXPAV_CancellationTokenRegistration@23@@Z 1005f97c     libconcrt:TaskCollection.obj
 0002:0001198c       __ehfuncinfo$?_RegisterCallback@_CancellationTokenState@details@Concurrency@@QAEXPAV_CancellationTokenRegistration@23@@Z 1005f98c     libconcrt:TaskCollection.obj
 0002:000119b0       __unwindtable$?_DeregisterCallback@_CancellationTokenState@details@Concurrency@@QAEXPAV_CancellationTokenRegistration@23@@Z 1005f9b0     libconcrt:TaskCollection.obj
 0002:000119d0       __ehfuncinfo$?_DeregisterCallback@_CancellationTokenState@details@Concurrency@@QAEXPAV_CancellationTokenRegistration@23@@Z 1005f9d0     libconcrt:TaskCollection.obj
 0002:00011a64       __catchsym$?_Initialize@SchedulerPolicy@Concurrency@@AAEXIPAPAD@Z$2 1005fa64     libconcrt:SchedulerPolicyBase.obj
 0002:00011a74       __unwindtable$?_Initialize@SchedulerPolicy@Concurrency@@AAEXIPAPAD@Z 1005fa74     libconcrt:SchedulerPolicyBase.obj
 0002:00011a84       __tryblocktable$?_Initialize@SchedulerPolicy@Concurrency@@AAEXIPAPAD@Z 1005fa84     libconcrt:SchedulerPolicyBase.obj
 0002:00011a98       __ehfuncinfo$?_Initialize@SchedulerPolicy@Concurrency@@AAEXIPAPAD@Z 1005fa98     libconcrt:SchedulerPolicyBase.obj
 0002:00011b64       __unwindtable$??0SchedulerProxy@details@Concurrency@@QAE@PAUIScheduler@2@PAVResourceManager@12@ABVSchedulerPolicy@2@@Z 1005fb64     libconcrt:SchedulerProxy.obj
 0002:00011b74       __ehfuncinfo$??0SchedulerProxy@details@Concurrency@@QAE@PAUIScheduler@2@PAVResourceManager@12@ABVSchedulerPolicy@2@@Z 1005fb74     libconcrt:SchedulerProxy.obj
 0002:00011b98       __unwindtable$?CreateOversubscriber@SchedulerProxy@details@Concurrency@@UAEPAUIVirtualProcessorRoot@3@PAUIExecutionResource@3@@Z 1005fb98     libconcrt:SchedulerProxy.obj
 0002:00011ba8       __ehfuncinfo$?CreateOversubscriber@SchedulerProxy@details@Concurrency@@UAEPAUIVirtualProcessorRoot@3@PAUIExecutionResource@3@@Z 1005fba8     libconcrt:SchedulerProxy.obj
 0002:00011bcc       __unwindtable$?CreateVirtualProcessorRoot@SchedulerProxy@details@Concurrency@@UAEPAVVirtualProcessorRoot@23@PAUSchedulerNode@23@I@Z 1005fbcc     libconcrt:SchedulerProxy.obj
 0002:00011bd4       __ehfuncinfo$?CreateVirtualProcessorRoot@SchedulerProxy@details@Concurrency@@UAEPAVVirtualProcessorRoot@23@PAUSchedulerNode@23@I@Z 1005fbd4     libconcrt:SchedulerProxy.obj
 0002:00011bf8       __unwindtable$?AddVirtualProcessorRoots@SchedulerProxy@details@Concurrency@@QAEXPAPAUIVirtualProcessorRoot@3@I@Z 1005fbf8     libconcrt:SchedulerProxy.obj
 0002:00011c08       __ehfuncinfo$?AddVirtualProcessorRoots@SchedulerProxy@details@Concurrency@@QAEXPAPAUIVirtualProcessorRoot@3@I@Z 1005fc08     libconcrt:SchedulerProxy.obj
 0002:00011c2c       __unwindtable$?RemoveCore@SchedulerProxy@details@Concurrency@@QAEXPAUSchedulerNode@23@I@Z 1005fc2c     libconcrt:SchedulerProxy.obj
 0002:00011c3c       __ehfuncinfo$?RemoveCore@SchedulerProxy@details@Concurrency@@QAEXPAUSchedulerNode@23@I@Z 1005fc3c     libconcrt:SchedulerProxy.obj
 0002:00011c60       __unwindtable$?SendCoreNotification@SchedulerProxy@details@Concurrency@@QAEXPAUSchedulerCore@23@_N@Z 1005fc60     libconcrt:SchedulerProxy.obj
 0002:00011c70       __ehfuncinfo$?SendCoreNotification@SchedulerProxy@details@Concurrency@@QAEXPAUSchedulerCore@23@_N@Z 1005fc70     libconcrt:SchedulerProxy.obj
 0002:00011c94       __unwindtable$?CreateExternalThreadResource@SchedulerProxy@details@Concurrency@@QAEPAVExecutionResource@23@PAUSchedulerNode@23@I@Z 1005fc94     libconcrt:SchedulerProxy.obj
 0002:00011c94       __unwindtable$?GetResourceForNewSubscription@SchedulerProxy@details@Concurrency@@QAEPAVExecutionResource@23@PAV423@@Z 1005fc94     libconcrt:SchedulerProxy.obj
 0002:00011c9c       __ehfuncinfo$?CreateExternalThreadResource@SchedulerProxy@details@Concurrency@@QAEPAVExecutionResource@23@PAUSchedulerNode@23@I@Z 1005fc9c     libconcrt:SchedulerProxy.obj
 0002:00011c9c       __ehfuncinfo$?GetResourceForNewSubscription@SchedulerProxy@details@Concurrency@@QAEPAVExecutionResource@23@PAV423@@Z 1005fc9c     libconcrt:SchedulerProxy.obj
 0002:00011cc0       __unwindtable$?Create@FreeThreadProxyFactory@details@Concurrency@@EAEPAVFreeThreadProxy@23@I@Z 1005fcc0     libconcrt:ThreadProxyFactoryManager.obj
 0002:00011cc8       __ehfuncinfo$?Create@FreeThreadProxyFactory@details@Concurrency@@EAEPAVFreeThreadProxy@23@I@Z 1005fcc8     libconcrt:ThreadProxyFactoryManager.obj
 0002:00011cec       __unwindtable$??0ThreadProxyFactoryManager@details@Concurrency@@QAE@XZ 1005fcec     libconcrt:ThreadProxyFactoryManager.obj
 0002:00011cf4       __ehfuncinfo$??0ThreadProxyFactoryManager@details@Concurrency@@QAE@XZ 1005fcf4     libconcrt:ThreadProxyFactoryManager.obj
 0002:00011d18       __unwindtable$?SubscribeCurrentThread@ResourceManager@details@Concurrency@@QAEPAVExecutionResource@23@PAVSchedulerProxy@23@@Z 1005fd18     libconcrt:ResourceManager.obj
 0002:00011d18       __unwindtable$?GetFreeThreadProxyFactory@ThreadProxyFactoryManager@details@Concurrency@@QAEPAVFreeThreadProxyFactory@23@XZ 1005fd18     libconcrt:ThreadProxyFactoryManager.obj
 0002:00011d28       __ehfuncinfo$?SubscribeCurrentThread@ResourceManager@details@Concurrency@@QAEPAVExecutionResource@23@PAVSchedulerProxy@23@@Z 1005fd28     libconcrt:ResourceManager.obj
 0002:00011d28       __ehfuncinfo$?GetFreeThreadProxyFactory@ThreadProxyFactoryManager@details@Concurrency@@QAEPAVFreeThreadProxyFactory@23@XZ 1005fd28     libconcrt:ThreadProxyFactoryManager.obj
 0002:00011d4c       __unwindtable$??0SchedulingNode@details@Concurrency@@QAE@ABVQuickBitSet@12@KPAVSchedulingRing@12@@Z 1005fd4c     libconcrt:SchedulingNode.obj
 0002:00011d5c       __ehfuncinfo$??0SchedulingNode@details@Concurrency@@QAE@ABVQuickBitSet@12@KPAVSchedulingRing@12@@Z 1005fd5c     libconcrt:SchedulingNode.obj
 0002:00011d80       __unwindtable$?GrowAndPush@?$StructuredWorkStealingQueue@VInternalContextBase@details@Concurrency@@V_HyperNonReentrantLock@23@@details@Concurrency@@AAEXPAVInternalContextBase@23@VSlot@?$Mailbox@VInternalContextBase@details@Concurrency@@@23@@Z 1005fd80     libconcrt:InternalContextBase.obj
 0002:00011d90       __ehfuncinfo$?GrowAndPush@?$StructuredWorkStealingQueue@VInternalContextBase@details@Concurrency@@V_HyperNonReentrantLock@23@@details@Concurrency@@AAEXPAVInternalContextBase@23@VSlot@?$Mailbox@VInternalContextBase@details@Concurrency@@@23@@Z 1005fd90     libconcrt:InternalContextBase.obj
 0002:00011db4       __unwindtable$?Dispatch@InternalContextBase@details@Concurrency@@UAEXPAUDispatchState@3@@Z 1005fdb4     libconcrt:InternalContextBase.obj
 0002:00011dbc       __ehfuncinfo$?Dispatch@InternalContextBase@details@Concurrency@@UAEXPAUDispatchState@3@@Z 1005fdbc     libconcrt:InternalContextBase.obj
 0002:00011de0       __unwindtable$?Alloc@InternalContextBase@details@Concurrency@@UAEPAXI@Z 1005fde0     libconcrt:InternalContextBase.obj
 0002:00011df0       __ehfuncinfo$?Alloc@InternalContextBase@details@Concurrency@@UAEPAXI@Z 1005fdf0     libconcrt:InternalContextBase.obj
 0002:00011ef4       __unwindtable$??0SchedulingRing@details@Concurrency@@QAE@PAVSchedulerBase@12@H@Z 1005fef4     libconcrt:SchedulingRing.obj
 0002:00011f04       __ehfuncinfo$??0SchedulingRing@details@Concurrency@@QAE@PAVSchedulerBase@12@H@Z 1005ff04     libconcrt:SchedulingRing.obj
 0002:00011f28       __unwindtable$??0?$Mailbox@V_UnrealizedChore@details@Concurrency@@@details@Concurrency@@QAE@PAVSchedulerBase@12@ABVQuickBitSet@12@_NI@Z 1005ff28     libconcrt:ScheduleGroupBase.obj
 0002:00011f38       __ehfuncinfo$??0?$Mailbox@V_UnrealizedChore@details@Concurrency@@@details@Concurrency@@QAE@PAVSchedulerBase@12@ABVQuickBitSet@12@_NI@Z 1005ff38     libconcrt:ScheduleGroupBase.obj
 0002:00011f5c       __unwindtable$?Grow@?$Mailbox@V_UnrealizedChore@details@Concurrency@@@details@Concurrency@@AAEPAUSegment@123@PAU4123@@Z 1005ff5c     libconcrt:ScheduleGroupBase.obj
 0002:00011f64       __ehfuncinfo$?Grow@?$Mailbox@V_UnrealizedChore@details@Concurrency@@@details@Concurrency@@AAEPAUSegment@123@PAU4123@@Z 1005ff64     libconcrt:ScheduleGroupBase.obj
 0002:00011f88       __unwindtable$?DemandInitialize@?$Mailbox@V_UnrealizedChore@details@Concurrency@@@details@Concurrency@@AAEXXZ 1005ff88     libconcrt:ScheduleGroupBase.obj
 0002:00011f90       __ehfuncinfo$?DemandInitialize@?$Mailbox@V_UnrealizedChore@details@Concurrency@@@details@Concurrency@@AAEXXZ 1005ff90     libconcrt:ScheduleGroupBase.obj
 0002:00011fb4       __ehfuncinfo$??0ScheduleGroupSegmentBase@details@Concurrency@@IAE@PAVScheduleGroupBase@12@PAVSchedulingRing@12@PAVlocation@2@@Z 1005ffb4     libconcrt:ScheduleGroupBase.obj
 0002:00011fd8       __unwindtable$??0ScheduleGroupSegmentBase@details@Concurrency@@IAE@PAVScheduleGroupBase@12@PAVSchedulingRing@12@PAVlocation@2@@Z 1005ffd8     libconcrt:ScheduleGroupBase.obj
 0002:00012008       __unwindtable$??0ScheduleGroupBase@details@Concurrency@@QAE@PAVSchedulerBase@12@PAVlocation@2@@Z 10060008     libconcrt:ScheduleGroupBase.obj
 0002:00012010       __ehfuncinfo$??0ScheduleGroupBase@details@Concurrency@@QAE@PAVSchedulerBase@12@PAVlocation@2@@Z 10060010     libconcrt:ScheduleGroupBase.obj
 0002:00012034       __unwindtable$??0Segment@?$Mailbox@V_UnrealizedChore@details@Concurrency@@@details@Concurrency@@QAE@PAVSchedulerBase@23@ABVQuickBitSet@23@II@Z 10060034     libconcrt:ScheduleGroupBase.obj
 0002:0001203c       __ehfuncinfo$??0Segment@?$Mailbox@V_UnrealizedChore@details@Concurrency@@@details@Concurrency@@QAE@PAVSchedulerBase@23@ABVQuickBitSet@23@II@Z 1006003c     libconcrt:ScheduleGroupBase.obj
 0002:00012060       __unwindtable$??0ExternalContextBase@details@Concurrency@@QAE@PAVSchedulerBase@12@_N@Z 10060060     libconcrt:ExternalContextBase.obj
 0002:00012068       __ehfuncinfo$??0ExternalContextBase@details@Concurrency@@QAE@PAVSchedulerBase@12@_N@Z 10060068     libconcrt:ExternalContextBase.obj
 0002:0001208c       __unwindtable$?Create@ThreadScheduler@details@Concurrency@@SAPAV123@ABVSchedulerPolicy@3@@Z 1006008c     libconcrt:ThreadScheduler.obj
 0002:00012094       __ehfuncinfo$?Create@ThreadScheduler@details@Concurrency@@SAPAV123@ABVSchedulerPolicy@3@@Z 10060094     libconcrt:ThreadScheduler.obj
 0002:000120b8       __unwindtable$?CreateVirtualProcessor@ThreadScheduler@details@Concurrency@@UAEPAVVirtualProcessor@23@PAVSchedulingNode@23@PAUIVirtualProcessorRoot@3@@Z 100600b8     libconcrt:ThreadScheduler.obj
 0002:000120c0       __ehfuncinfo$?CreateVirtualProcessor@ThreadScheduler@details@Concurrency@@UAEPAVVirtualProcessor@23@PAVSchedulingNode@23@PAUIVirtualProcessorRoot@3@@Z 100600c0     libconcrt:ThreadScheduler.obj
 0002:000120e4       __unwindtable$?CreateInternalContext@ThreadScheduler@details@Concurrency@@MAEPAVInternalContextBase@23@XZ 100600e4     libconcrt:ThreadScheduler.obj
 0002:000120ec       __ehfuncinfo$?CreateInternalContext@ThreadScheduler@details@Concurrency@@MAEPAVInternalContextBase@23@XZ 100600ec     libconcrt:ThreadScheduler.obj
 0002:00012110       __unwindtable$?rethrow_exception@std@@YAXVexception_ptr@1@@Z 10060110     libconcrt:TaskCollectionBase.obj
 0002:00012118       __ehfuncinfo$?rethrow_exception@std@@YAXVexception_ptr@1@@Z 10060118     libconcrt:TaskCollectionBase.obj
 0002:0001213c       __unwindtable$?_RethrowException@_TaskCollectionBase@details@Concurrency@@IAEXXZ 1006013c     libconcrt:TaskCollectionBase.obj
 0002:00012144       __ehfuncinfo$?_RethrowException@_TaskCollectionBase@details@Concurrency@@IAEXXZ 10060144     libconcrt:TaskCollectionBase.obj
 0002:00012168       __unwindtable$??0WorkQueue@details@Concurrency@@QAE@XZ 10060168     libconcrt:WorkQueue.obj
 0002:00012178       __ehfuncinfo$??0WorkQueue@details@Concurrency@@QAE@XZ 10060178     libconcrt:WorkQueue.obj
 0002:0001219c       __unwindtable$?Steal@?$StructuredWorkStealingQueue@VInternalContextBase@details@Concurrency@@V_HyperNonReentrantLock@23@@details@Concurrency@@QAEPAVInternalContextBase@23@_N@Z 1006019c     libconcrt:SchedulingNode.obj
 0002:0001219c       __unwindtable$?Steal@WorkQueue@details@Concurrency@@QAEPAV_UnrealizedChore@23@_N@Z 1006019c     libconcrt:WorkQueue.obj
 0002:000121ac       __ehfuncinfo$?Steal@?$StructuredWorkStealingQueue@VInternalContextBase@details@Concurrency@@V_HyperNonReentrantLock@23@@details@Concurrency@@QAEPAVInternalContextBase@23@_N@Z 100601ac     libconcrt:SchedulingNode.obj
 0002:000121ac       __ehfuncinfo$?Steal@WorkQueue@details@Concurrency@@QAEPAV_UnrealizedChore@23@_N@Z 100601ac     libconcrt:WorkQueue.obj
 0002:000121d0       __sehtable$?TryToSteal@WorkQueue@details@Concurrency@@QAEPAV_UnrealizedChore@23@_NAA_N@Z 100601d0     libconcrt:WorkQueue.obj
 0002:000121ec       __unwindtable$?Sweep@?$WorkStealingQueue@V_UnrealizedChore@details@Concurrency@@V_CriticalNonReentrantLock@23@@details@Concurrency@@QAEXP6A_NPAV_UnrealizedChore@23@PAX@Z12@Z 100601ec     libconcrt:WorkQueue.obj
 0002:000121fc       __ehfuncinfo$?Sweep@?$WorkStealingQueue@V_UnrealizedChore@details@Concurrency@@V_CriticalNonReentrantLock@23@@details@Concurrency@@QAEXP6A_NPAV_UnrealizedChore@23@PAX@Z12@Z 100601fc     libconcrt:WorkQueue.obj
 0002:00012220       __unwindtable$?_StructuredChoreWrapper@_UnrealizedChore@details@Concurrency@@CAXPAV123@@Z 10060220     libconcrt:Chores.obj
 0002:00012230       __tryblocktable$?_StructuredChoreWrapper@_UnrealizedChore@details@Concurrency@@CAXPAV123@@Z 10060230     libconcrt:Chores.obj
 0002:00012244       __catchsym$?_StructuredChoreWrapper@_UnrealizedChore@details@Concurrency@@CAXPAV123@@Z$3 10060244     libconcrt:Chores.obj
 0002:00012264       __ehfuncinfo$?_StructuredChoreWrapper@_UnrealizedChore@details@Concurrency@@CAXPAV123@@Z 10060264     libconcrt:Chores.obj
 0002:000122c4       __unwindtable$??0ThreadVirtualProcessor@details@Concurrency@@QAE@PAVSchedulingNode@12@PAUIVirtualProcessorRoot@2@@Z 100602c4     libconcrt:ThreadVirtualProcessor.obj
 0002:000122cc       __ehfuncinfo$??0ThreadVirtualProcessor@details@Concurrency@@QAE@PAVSchedulingNode@12@PAUIVirtualProcessorRoot@2@@Z 100602cc     libconcrt:ThreadVirtualProcessor.obj
 0002:000122f0       __sehtable$___FrameUnwindToState 100602f0     libvcruntime:frame.obj
 0002:00012318       __sehtable$?CallCatchBlock@@YAPAXPAUEHExceptionRecord@@PAUEHRegistrationNode@@PAU_CONTEXT@@PBU_s_FuncInfo@@PAXHK@Z 10060318     libvcruntime:frame.obj
 0002:00012340       __sehtable$___BuildCatchObject 10060340     libvcruntime:frame.obj
 0002:00012360       __sehtable$___DestructExceptionObject 10060360     libvcruntime:frame.obj
 0002:0001237c       __catchsym$?CallUnexpected@@YAXPBU_s_ESTypeList@@@Z$2 1006037c     libvcruntime:frame.obj
 0002:0001238c       __unwindtable$?CallUnexpected@@YAXPBU_s_ESTypeList@@@Z 1006038c     libvcruntime:frame.obj
 0002:0001239c       __tryblocktable$?CallUnexpected@@YAXPBU_s_ESTypeList@@@Z 1006039c     libvcruntime:frame.obj
 0002:000123b0       __ehfuncinfo$?CallUnexpected@@YAXPBU_s_ESTypeList@@@Z 100603b0     libvcruntime:frame.obj
 0002:000123d8       __sehtable$___BuildCatchObjectHelper 100603d8     libvcruntime:frame.obj
 0002:00012430       __sehtable$___RTDynamicCast 10060430     libvcruntime:rtti.obj
 0002:000124a8       __sehtable$_fclose         100604a8     libucrt:fclose.obj
 0002:000124c8       __sehtable$_fflush         100604c8     libucrt:fflush.obj
 0002:000124e8       __sehtable$_common_flush_all 100604e8     libucrt:fflush.obj
 0002:00012510       __sehtable$_fgetc          10060510     libucrt:fgetc.obj
 0002:00012530       __sehtable$_fputc          10060530     libucrt:fputc.obj
 0002:00012550       __sehtable$?common_fseek@@YAHV__crt_stdio_stream@@_JH@Z 10060550     libucrt:fseek.obj
 0002:00012570       __sehtable$??$?RV<lambda_11b4f7b0d3157825a5656a18eba1ae27>@@AAV<lambda_b51c0495177f500e782686251704ae76>@@V<lambda_cf89b47920b5017557bfe891e78aca36>@@@?$__crt_seh_guarded_call@I@@QAEI$$QAV<lambda_11b4f7b0d3157825a5656a18eba1ae27>@@AAV<lambda_b51c0495177f500e782686251704ae76>@@$$QAV<lambda_cf89b47920b5017557bfe891e78aca36>@@@Z 10060570     libucrt:fwrite.obj
 0002:00012590       __sehtable$??$?RV<lambda_d92cfe8357b99225085016881b624cb0>@@AAV<lambda_b721fa326cdb32351d23dfa67958c160>@@V<lambda_42d75b0848218ec137fa420c8ba9fdf9>@@@?$__crt_seh_guarded_call@H@@QAEH$$QAV<lambda_d92cfe8357b99225085016881b624cb0>@@AAV<lambda_b721fa326cdb32351d23dfa67958c160>@@$$QAV<lambda_42d75b0848218ec137fa420c8ba9fdf9>@@@Z 10060590     libucrt:setvbuf.obj
 0002:000125b0       __sehtable$_ungetc         100605b0     libucrt:ungetc.obj
 0002:000125d0       __sehtable$_setlocale      100605d0     libucrt:setlocale.obj
 0002:000125f0       __sehtable$__query_new_handler 100605f0     libucrt:new_handler.obj
 0002:00012610       __sehtable$?common_exit@@YAXHW4_crt_exit_cleanup_mode@@W4_crt_exit_return_mode@@@Z 10060610     libucrt:exit.obj
 0002:00012638       __sehtable$??$?RV<lambda_800076c951b434888f4765a74a194fcc>@@AAV<lambda_4e60a939b0d047cfe11ddc22648dfba9>@@V<lambda_6dbb1268764f43b569ce7b67e331d33a>@@@?$__crt_seh_guarded_call@H@@QAEH$$QAV<lambda_800076c951b434888f4765a74a194fcc>@@AAV<lambda_4e60a939b0d047cfe11ddc22648dfba9>@@$$QAV<lambda_6dbb1268764f43b569ce7b67e331d33a>@@@Z 10060638     libucrt:onexit.obj
 0002:00012658       __sehtable$??$?RV<lambda_995298e7d72eb4c2aab26c0585b3abe5>@@AAV<lambda_275893d493268fdec8709772e3fcec0e>@@V<lambda_293819299cbf9a7022e18b56a874bb5c>@@@?$__crt_seh_guarded_call@H@@QAEH$$QAV<lambda_995298e7d72eb4c2aab26c0585b3abe5>@@AAV<lambda_275893d493268fdec8709772e3fcec0e>@@$$QAV<lambda_293819299cbf9a7022e18b56a874bb5c>@@@Z 10060658     libucrt:onexit.obj
 0002:00012678       __sehtable$_terminate      10060678     libucrt:terminate.obj
 0002:00012698       __sehtable$??$?RV<lambda_9df27f884b057bc3edfc946cb5b7cf47>@@AAV<lambda_e69574bed617af4e071282c136b37893>@@V<lambda_cc0d902bcbbeb830f749456577db4721>@@@?$__crt_seh_guarded_call@X@@QAEX$$QAV<lambda_9df27f884b057bc3edfc946cb5b7cf47>@@AAV<lambda_e69574bed617af4e071282c136b37893>@@$$QAV<lambda_cc0d902bcbbeb830f749456577db4721>@@@Z 10060698     libucrt:per_thread_data.obj
 0002:000126b8       __sehtable$??$?RV<lambda_3518db117f0e7cdb002338c5d3c47b6c>@@AAV<lambda_b2ea41f6bbb362cd97d94c6828d90b61>@@V<lambda_abdedf541bb04549bc734292b4a045d4>@@@?$__crt_seh_guarded_call@X@@QAEX$$QAV<lambda_3518db117f0e7cdb002338c5d3c47b6c>@@AAV<lambda_b2ea41f6bbb362cd97d94c6828d90b61>@@$$QAV<lambda_abdedf541bb04549bc734292b4a045d4>@@@Z 100606b8     libucrt:per_thread_data.obj
 0002:000126d8       __sehtable$??$?RV<lambda_51b6e8b1eb166f2a3faf91f424b38130>@@AAV<lambda_6250bd4b2a391816dd638c3bf72b0bcb>@@V<lambda_0b5a4a3e68152e1d9b943535f5f47bed>@@@?$__crt_seh_guarded_call@X@@QAEX$$QAV<lambda_51b6e8b1eb166f2a3faf91f424b38130>@@AAV<lambda_6250bd4b2a391816dd638c3bf72b0bcb>@@$$QAV<lambda_0b5a4a3e68152e1d9b943535f5f47bed>@@@Z 100606d8     libucrt:per_thread_data.obj
 0002:000126f8       __sehtable$??$?RV<lambda_5b71d36f03204c0beab531769a5b5694>@@AAV<lambda_be2b3da3f62db62e9dad5dc70221a656>@@V<lambda_8f9ce462984622f9bf76b59e2aaaf805>@@@?$__crt_seh_guarded_call@X@@QAEX$$QAV<lambda_5b71d36f03204c0beab531769a5b5694>@@AAV<lambda_be2b3da3f62db62e9dad5dc70221a656>@@$$QAV<lambda_8f9ce462984622f9bf76b59e2aaaf805>@@@Z 100606f8     libucrt:per_thread_data.obj
 0002:00012718       __sehtable$___acrt_uninitialize_locale 10060718     libucrt:wsetlocale.obj
 0002:00012738       __sehtable$??$?RV<lambda_70818de7b02deff9841e8b0962a60ed9>@@AAV<lambda_2af78c5f5901b1372d98f9ab3177dfa6>@@AAV<lambda_f51fe5fd7c79a33db34fc9310f277369>@@@?$__crt_seh_guarded_call@X@@QAEX$$QAV<lambda_70818de7b02deff9841e8b0962a60ed9>@@AAV<lambda_2af78c5f5901b1372d98f9ab3177dfa6>@@AAV<lambda_f51fe5fd7c79a33db34fc9310f277369>@@@Z 10060738     libucrt:wsetlocale.obj
 0002:00012758       __sehtable$??$?RV<lambda_c76fdea48760d5f9368b465f31df4405>@@AAV<lambda_e378711a6f6581bf7f0efd7cdf97f5d9>@@V<lambda_e927a58b2a85c081d733e8c6192ae2d2>@@@?$__crt_seh_guarded_call@X@@QAEX$$QAV<lambda_c76fdea48760d5f9368b465f31df4405>@@AAV<lambda_e378711a6f6581bf7f0efd7cdf97f5d9>@@$$QAV<lambda_e927a58b2a85c081d733e8c6192ae2d2>@@@Z 10060758     libucrt:wsetlocale.obj
 0002:00012778       __sehtable$_raise          10060778     libucrt:signal.obj
 0002:00012798       __sehtable$??$?RV<lambda_a048d3beccc847880fc8490e18b82769>@@AAV<lambda_ec61778202f4f5fc7e7711acc23c3bca>@@V<lambda_f7496a158712204296dd6628a163878e>@@@?$__crt_seh_guarded_call@P6AXH@Z@@QAEP6AXH@Z$$QAV<lambda_a048d3beccc847880fc8490e18b82769>@@AAV<lambda_ec61778202f4f5fc7e7711acc23c3bca>@@$$QAV<lambda_f7496a158712204296dd6628a163878e>@@@Z 10060798     libucrt:signal.obj
 0002:000127b8       __sehtable$___acrt_initialize_lowio 100607b8     libucrt:ioinit.obj
 0002:000127d8       __sehtable$??$?RV<lambda_9227be29367c048ad7fd93a717dcb1a1>@@AAV<lambda_a463b7b0560cfcaf9b17f27c6ef46564>@@V<lambda_ccea11b5727ccf69be64f5f5d9a08d9f>@@@?$__crt_seh_guarded_call@H@@QAEH$$QAV<lambda_9227be29367c048ad7fd93a717dcb1a1>@@AAV<lambda_a463b7b0560cfcaf9b17f27c6ef46564>@@$$QAV<lambda_ccea11b5727ccf69be64f5f5d9a08d9f>@@@Z 100607d8     libucrt:winapi_thunks.obj
 0002:000127f8       __sehtable$__fcloseall     100607f8     libucrt:closeall.obj
 0002:00012818       __sehtable$??$?RV<lambda_123407a5e2ac06da108355a851863b7a>@@AAV<lambda_2fe9b910cf3cbf4a0ab98a02ba45b3ec>@@V<lambda_ae55bdf541ad94d75914d381c370e64d>@@@?$__crt_seh_guarded_call@H@@QAEH$$QAV<lambda_123407a5e2ac06da108355a851863b7a>@@AAV<lambda_2fe9b910cf3cbf4a0ab98a02ba45b3ec>@@$$QAV<lambda_ae55bdf541ad94d75914d381c370e64d>@@@Z 10060818     libucrt:close.obj
 0002:00012838       __sehtable$??$?RV<lambda_61cee617f5178ae960314fd4d05640a0>@@AAV<lambda_6978c1fb23f02e42e1d9e99668cc68aa>@@V<lambda_9cd88cf8ad10232537feb2133f08c833>@@@?$__crt_seh_guarded_call@H@@QAEH$$QAV<lambda_61cee617f5178ae960314fd4d05640a0>@@AAV<lambda_6978c1fb23f02e42e1d9e99668cc68aa>@@$$QAV<lambda_9cd88cf8ad10232537feb2133f08c833>@@@Z 10060838     libucrt:commit.obj
 0002:00012858       __sehtable$__write         10060858     libucrt:write.obj
 0002:00012878       __sehtable$??$common_ftell@_J@@YA_JV__crt_stdio_stream@@@Z 10060878     libucrt:ftell.obj
 0002:00012898       __sehtable$??$common_lseek@_J@@YA_JH_JH@Z 10060898     libucrt:lseek.obj
 0002:000128b8       __sehtable$___acrt_update_thread_multibyte_data 100608b8     libucrt:mbctype.obj
 0002:000128d8       __sehtable$??$?RV<lambda_978dc153c237d78434369da87b74ff60>@@AAV<lambda_ad1ced32f4ac17aa236e5ef05d6b3b7c>@@V<lambda_4a8533e2866a575feecb8298ce776b0d>@@@?$__crt_seh_guarded_call@X@@QAEX$$QAV<lambda_978dc153c237d78434369da87b74ff60>@@AAV<lambda_ad1ced32f4ac17aa236e5ef05d6b3b7c>@@$$QAV<lambda_4a8533e2866a575feecb8298ce776b0d>@@@Z 100608d8     libucrt:mbctype.obj
 0002:000128f8       __sehtable$___acrt_update_thread_locale_data 100608f8     libucrt:locale_refcounting.obj
 0002:00012918       __sehtable$___acrt_lowio_ensure_fh_exists 10060918     libucrt:osfinfo.obj
 0002:00012938       __sehtable$__read          10060938     libucrt:read.obj
 0002:00012954       __unwindtable$?_CurrentException@__ExceptionPtr@@SA?AV?$shared_ptr@V__ExceptionPtr@@@std@@XZ 10060954     libcpmt:excptptr.obj
 0002:00012964       __tryblocktable$?_CurrentException@__ExceptionPtr@@SA?AV?$shared_ptr@V__ExceptionPtr@@@std@@XZ 10060964     libcpmt:excptptr.obj
 0002:00012978       __catchsym$?_CurrentException@__ExceptionPtr@@SA?AV?$shared_ptr@V__ExceptionPtr@@@std@@XZ$8 10060978     libcpmt:excptptr.obj
 0002:00012998       __ehfuncinfo$?_CurrentException@__ExceptionPtr@@SA?AV?$shared_ptr@V__ExceptionPtr@@@std@@XZ 10060998     libcpmt:excptptr.obj
 0002:000129bc       __unwindtable$?_CopyException@__ExceptionPtr@@SA?AV?$shared_ptr@V__ExceptionPtr@@@std@@PBXPBU_s_ThrowInfo@@_N@Z 100609bc     libcpmt:excptptr.obj
 0002:000129cc       __tryblocktable$?_CopyException@__ExceptionPtr@@SA?AV?$shared_ptr@V__ExceptionPtr@@@std@@PBXPBU_s_ThrowInfo@@_N@Z 100609cc     libcpmt:excptptr.obj
 0002:000129e0       __catchsym$?_CopyException@__ExceptionPtr@@SA?AV?$shared_ptr@V__ExceptionPtr@@@std@@PBXPBU_s_ThrowInfo@@_N@Z$6 100609e0     libcpmt:excptptr.obj
 0002:00012a00       __ehfuncinfo$?_CopyException@__ExceptionPtr@@SA?AV?$shared_ptr@V__ExceptionPtr@@@std@@PBXPBU_s_ThrowInfo@@_N@Z 10060a00     libcpmt:excptptr.obj
 0002:00012a24       __unwindtable$?_InitBadAllocException@__ExceptionPtr@@CA?AV?$shared_ptr@V__ExceptionPtr@@@std@@XZ 10060a24     libcpmt:excptptr.obj
 0002:00012a2c       __ehfuncinfo$?_InitBadAllocException@__ExceptionPtr@@CA?AV?$shared_ptr@V__ExceptionPtr@@@std@@XZ 10060a2c     libcpmt:excptptr.obj
 0002:00012a50       __catchsym$?_CallCopyCtor@__ExceptionPtr@@ABEXPAX0IQBU_s_CatchableType@@@Z$2 10060a50     libcpmt:excptptr.obj
 0002:00012a60       __unwindtable$?_CallCopyCtor@__ExceptionPtr@@ABEXPAX0IQBU_s_CatchableType@@@Z 10060a60     libcpmt:excptptr.obj
 0002:00012a70       __tryblocktable$?_CallCopyCtor@__ExceptionPtr@@ABEXPAX0IQBU_s_CatchableType@@@Z 10060a70     libcpmt:excptptr.obj
 0002:00012a84       __ehfuncinfo$?_CallCopyCtor@__ExceptionPtr@@ABEXPAX0IQBU_s_CatchableType@@@Z 10060a84     libcpmt:excptptr.obj
 0002:00012aa8       __unwindtable$??$make_shared@V__ExceptionPtr@@AAPAUEHExceptionRecord@@_N@std@@YA?AV?$shared_ptr@V__ExceptionPtr@@@0@AAPAUEHExceptionRecord@@$$QA_N@Z 10060aa8     libcpmt:excptptr.obj
 0002:00012ab0       __ehfuncinfo$??$make_shared@V__ExceptionPtr@@AAPAUEHExceptionRecord@@_N@std@@YA?AV?$shared_ptr@V__ExceptionPtr@@@0@AAPAUEHExceptionRecord@@$$QA_N@Z 10060ab0     libcpmt:excptptr.obj
 0002:00012ad4       __catchsym$??$allocate_shared@V__ExceptionPtr@@U?$_StaticAllocator@H@@AAPAUEHExceptionRecord@@_N@std@@YA?AV?$shared_ptr@V__ExceptionPtr@@@0@ABU?$_StaticAllocator@H@@AAPAUEHExceptionRecord@@$$QA_N@Z$20 10060ad4     libcpmt:excptptr.obj
 0002:00012ae4       __tryblocktable$??$allocate_shared@V__ExceptionPtr@@U?$_StaticAllocator@H@@AAPAUEHExceptionRecord@@_N@std@@YA?AV?$shared_ptr@V__ExceptionPtr@@@0@ABU?$_StaticAllocator@H@@AAPAUEHExceptionRecord@@$$QA_N@Z 10060ae4     libcpmt:excptptr.obj
 0002:00012af8       __unwindtable$??$allocate_shared@V__ExceptionPtr@@U?$_StaticAllocator@H@@AAPAUEHExceptionRecord@@_N@std@@YA?AV?$shared_ptr@V__ExceptionPtr@@@0@ABU?$_StaticAllocator@H@@AAPAUEHExceptionRecord@@$$QA_N@Z 10060af8     libcpmt:excptptr.obj
 0002:00012b10       __ehfuncinfo$??$allocate_shared@V__ExceptionPtr@@U?$_StaticAllocator@H@@AAPAUEHExceptionRecord@@_N@std@@YA?AV?$shared_ptr@V__ExceptionPtr@@@0@ABU?$_StaticAllocator@H@@AAPAUEHExceptionRecord@@$$QA_N@Z 10060b10     libcpmt:excptptr.obj
 0002:00012b34       __unwindtable$??$?0AAPAUEHExceptionRecord@@_N@?$_Ref_count_obj@V__ExceptionPtr@@@std@@QAE@AAPAUEHExceptionRecord@@$$QA_N@Z 10060b34     libcpmt:excptptr.obj
 0002:00012b44       __ehfuncinfo$??$?0AAPAUEHExceptionRecord@@_N@?$_Ref_count_obj@V__ExceptionPtr@@@std@@QAE@AAPAUEHExceptionRecord@@$$QA_N@Z 10060b44     libcpmt:excptptr.obj
 0002:00012b68       __unwindtable$??$?0AAPAUEHExceptionRecord@@_N@?$_Ref_count_obj_alloc@V__ExceptionPtr@@U?$_StaticAllocator@H@@@std@@QAE@ABU?$_StaticAllocator@H@@AAPAUEHExceptionRecord@@$$QA_N@Z 10060b68     libcpmt:excptptr.obj
 0002:00012b78       __ehfuncinfo$??$?0AAPAUEHExceptionRecord@@_N@?$_Ref_count_obj_alloc@V__ExceptionPtr@@U?$_StaticAllocator@H@@@std@@QAE@ABU?$_StaticAllocator@H@@AAPAUEHExceptionRecord@@$$QA_N@Z 10060b78     libcpmt:excptptr.obj
 0002:00012ba0       __sehtable$??_L@YGXPAXIIP6EX0@Z1@Z 10060ba0     LIBCMT:ehvecctr.obj
 0002:00012bc0       __sehtable$__IsNonwritableInCurrentImage 10060bc0     LIBCMT:pesect.obj
 0002:00014320       .edata                     10062320     uws.exp
 0002:00014348       rgpv                       10062348     uws.exp
 0002:000146e4       rgszName                   100626e4     uws.exp
 0002:00014a80       rgwOrd                     10062a80     uws.exp
 0002:00014c4e       szName                     10062c4e     uws.exp
 0002:00014c57       $N00001                    10062c57     uws.exp
 0002:00014c8d       $N00002                    10062c8d     uws.exp
 0002:00014cb0       $N00003                    10062cb0     uws.exp
 0002:00014cd1       $N00004                    10062cd1     uws.exp
 0002:00014d08       $N00005                    10062d08     uws.exp
 0002:00014d2c       $N00006                    10062d2c     uws.exp
 0002:00014d4e       $N00007                    10062d4e     uws.exp
 0002:00014d76       $N00008                    10062d76     uws.exp
 0002:00014da4       $N00009                    10062da4     uws.exp
 0002:00014dcd       $N00010                    10062dcd     uws.exp
 0002:00014dfc       $N00011                    10062dfc     uws.exp
 0002:00014e2b       $N00012                    10062e2b     uws.exp
 0002:00014e52       $N00013                    10062e52     uws.exp
 0002:00014e82       $N00014                    10062e82     uws.exp
 0002:00014eaa       $N00015                    10062eaa     uws.exp
 0002:00014ece       $N00016                    10062ece     uws.exp
 0002:00014ef3       $N00017                    10062ef3     uws.exp
 0002:00014f14       $N00018                    10062f14     uws.exp
 0002:00014f3d       $N00019                    10062f3d     uws.exp
 0002:00014f57       $N00020                    10062f57     uws.exp
 0002:00014f6e       $N00021                    10062f6e     uws.exp
 0002:00014f86       $N00022                    10062f86     uws.exp
 0002:00014fa5       $N00023                    10062fa5     uws.exp
 0002:00014fc2       $N00024                    10062fc2     uws.exp
 0002:00014fd9       $N00025                    10062fd9     uws.exp
 0002:00014ff6       $N00026                    10062ff6     uws.exp
 0002:0001502e       $N00027                    1006302e     uws.exp
 0002:00015049       $N00028                    10063049     uws.exp
 0002:00015065       $N00029                    10063065     uws.exp
 0002:00015085       $N00030                    10063085     uws.exp
 0002:000150a6       $N00031                    100630a6     uws.exp
 0002:000150c5       $N00032                    100630c5     uws.exp
 0002:000150e5       $N00033                    100630e5     uws.exp
 0002:000150ff       $N00034                    100630ff     uws.exp
 0002:00015112       $N00035                    10063112     uws.exp
 0002:00015125       $N00036                    10063125     uws.exp
 0002:0001513c       $N00037                    1006313c     uws.exp
 0002:00015151       $N00038                    10063151     uws.exp
 0002:00015179       $N00039                    10063179     uws.exp
 0002:0001519f       $N00040                    1006319f     uws.exp
 0002:000151c8       $N00041                    100631c8     uws.exp
 0002:000151ef       $N00042                    100631ef     uws.exp
 0002:00015239       $N00043                    10063239     uws.exp
 0002:00015281       $N00044                    10063281     uws.exp
 0002:000152cd       $N00045                    100632cd     uws.exp
 0002:00015317       $N00046                    10063317     uws.exp
 0002:00015348       $N00047                    10063348     uws.exp
 0002:00015377       $N00048                    10063377     uws.exp
 0002:000153a9       $N00049                    100633a9     uws.exp
 0002:000153d9       $N00050                    100633d9     uws.exp
 0002:00015400       $N00051                    10063400     uws.exp
 0002:00015424       $N00052                    10063424     uws.exp
 0002:00015446       $N00053                    10063446     uws.exp
 0002:00015461       $N00054                    10063461     uws.exp
 0002:00015475       $N00055                    10063475     uws.exp
 0002:00015489       $N00056                    10063489     uws.exp
 0002:000154d6       $N00057                    100634d6     uws.exp
 0002:00015525       $N00058                    10063525     uws.exp
 0002:00015571       $N00059                    10063571     uws.exp
 0002:000155bf       $N00060                    100635bf     uws.exp
 0002:000155df       $N00061                    100635df     uws.exp
 0002:0001562b       $N00062                    1006362b     uws.exp
 0002:00015679       $N00063                    10063679     uws.exp
 0002:000156c7       $N00064                    100636c7     uws.exp
 0002:00015717       $N00065                    10063717     uws.exp
 0002:00015764       $N00066                    10063764     uws.exp
 0002:000157b3       $N00067                    100637b3     uws.exp
 0002:000157d5       $N00068                    100637d5     uws.exp
 0002:000157f8       $N00069                    100637f8     uws.exp
 0002:00015816       $N00070                    10063816     uws.exp
 0002:00015853       $N00071                    10063853     uws.exp
 0002:00015892       $N00072                    10063892     uws.exp
 0002:000158cd       $N00073                    100638cd     uws.exp
 0002:0001590a       $N00074                    1006390a     uws.exp
 0002:00015941       $N00075                    10063941     uws.exp
 0002:0001596d       $N00076                    1006396d     uws.exp
 0002:0001599f       $N00077                    1006399f     uws.exp
 0002:000159d2       $N00078                    100639d2     uws.exp
 0002:000159f3       $N00079                    100639f3     uws.exp
 0002:00015a17       $N00080                    10063a17     uws.exp
 0002:00015a4d       $N00081                    10063a4d     uws.exp
 0002:00015a71       $N00082                    10063a71     uws.exp
 0002:00015a96       $N00083                    10063a96     uws.exp
 0002:00015abe       $N00084                    10063abe     uws.exp
 0002:00015ae7       $N00085                    10063ae7     uws.exp
 0002:00015c4d       $N00086                    10063c4d     uws.exp
 0002:00015cad       $N00087                    10063cad     uws.exp
 0002:00015d10       $N00088                    10063d10     uws.exp
 0002:00015d81       $N00089                    10063d81     uws.exp
 0002:00015df5       $N00090                    10063df5     uws.exp
 0002:00015e0e       $N00091                    10063e0e     uws.exp
 0002:00015e78       $N00092                    10063e78     uws.exp
 0002:00015ea7       $N00093                    10063ea7     uws.exp
 0002:00015ee9       $N00094                    10063ee9     uws.exp
 0002:00015f2c       $N00095                    10063f2c     uws.exp
 0002:00015f6d       $N00096                    10063f6d     uws.exp
 0002:00015fb0       $N00097                    10063fb0     uws.exp
 0002:00016005       $N00098                    10064005     uws.exp
 0002:0001605c       $N00099                    1006405c     uws.exp
 0002:000160b9       $N00100                    100640b9     uws.exp
 0002:00016118       $N00101                    10064118     uws.exp
 0002:0001614b       $N00102                    1006414b     uws.exp
 0002:00016179       $N00103                    10064179     uws.exp
 0002:000161a9       $N00104                    100641a9     uws.exp
 0002:000161da       $N00105                    100641da     uws.exp
 0002:00016205       $N00106                    10064205     uws.exp
 0002:00016226       $N00107                    10064226     uws.exp
 0002:0001624f       $N00108                    1006424f     uws.exp
 0002:00016286       $N00109                    10064286     uws.exp
 0002:000162b2       $N00110                    100642b2     uws.exp
 0002:000162f9       $N00111                    100642f9     uws.exp
 0002:00016342       $N00112                    10064342     uws.exp
 0002:0001635d       $N00113                    1006435d     uws.exp
 0002:00016389       $N00114                    10064389     uws.exp
 0002:000163b0       $N00115                    100643b0     uws.exp
 0002:000163d8       $N00116                    100643d8     uws.exp
 0002:000163f9       $N00117                    100643f9     uws.exp
 0002:00016447       $N00118                    10064447     uws.exp
 0002:00016497       $N00119                    10064497     uws.exp
 0002:000164b9       $N00120                    100644b9     uws.exp
 0002:000164db       $N00121                    100644db     uws.exp
 0002:0001651f       $N00122                    1006451f     uws.exp
 0002:00016565       $N00123                    10064565     uws.exp
 0002:00016588       $N00124                    10064588     uws.exp
 0002:000165d3       $N00125                    100645d3     uws.exp
 0002:00016620       $N00126                    10064620     uws.exp
 0002:00016652       $N00127                    10064652     uws.exp
 0002:00016685       $N00128                    10064685     uws.exp
 0002:000166c2       $N00129                    100646c2     uws.exp
 0002:00016702       $N00130                    10064702     uws.exp
 0002:00016761       $N00131                    10064761     uws.exp
 0002:000167c1       $N00132                    100647c1     uws.exp
 0002:000167f4       $N00133                    100647f4     uws.exp
 0002:0001685b       $N00134                    1006485b     uws.exp
 0002:000168c4       $N00135                    100648c4     uws.exp
 0002:000168ff       $N00136                    100648ff     uws.exp
 0002:0001693b       $N00137                    1006493b     uws.exp
 0002:00016975       $N00138                    10064975     uws.exp
 0002:000169b0       $N00139                    100649b0     uws.exp
 0002:00016a10       $N00140                    10064a10     uws.exp
 0002:00016a72       $N00141                    10064a72     uws.exp
 0002:00016aa3       $N00142                    10064aa3     uws.exp
 0002:00016ad5       $N00143                    10064ad5     uws.exp
 0002:00016b05       $N00144                    10064b05     uws.exp
 0002:00016b36       $N00145                    10064b36     uws.exp
 0002:00016b72       $N00146                    10064b72     uws.exp
 0002:00016bb1       $N00147                    10064bb1     uws.exp
 0002:00016c0e       $N00148                    10064c0e     uws.exp
 0002:00016c6d       $N00149                    10064c6d     uws.exp
 0002:00016cc5       $N00150                    10064cc5     uws.exp
 0002:00016d1e       $N00151                    10064d1e     uws.exp
 0002:00016d7e       $N00152                    10064d7e     uws.exp
 0002:00016de0       $N00153                    10064de0     uws.exp
 0002:00016e4a       $N00154                    10064e4a     uws.exp
 0002:00016eb5       $N00155                    10064eb5     uws.exp
 0002:00016f1e       $N00156                    10064f1e     uws.exp
 0002:00016f89       $N00157                    10064f89     uws.exp
 0002:00016fed       $N00158                    10064fed     uws.exp
 0002:00017053       $N00159                    10065053     uws.exp
 0002:000170a9       $N00160                    100650a9     uws.exp
 0002:00017101       $N00161                    10065101     uws.exp
 0002:00017157       $N00162                    10065157     uws.exp
 0002:000171af       $N00163                    100651af     uws.exp
 0002:000171dc       $N00164                    100651dc     uws.exp
 0002:00017232       $N00165                    10065232     uws.exp
 0002:0001728a       $N00166                    1006528a     uws.exp
 0002:000172ea       $N00167                    100652ea     uws.exp
 0002:0001734c       $N00168                    1006534c     uws.exp
 0002:0001737c       $N00169                    1006537c     uws.exp
 0002:000173c7       $N00170                    100653c7     uws.exp
 0002:00017414       $N00171                    10065414     uws.exp
 0002:00017439       $N00172                    10065439     uws.exp
 0002:0001745f       $N00173                    1006545f     uws.exp
 0002:00017481       $N00174                    10065481     uws.exp
 0002:000174e3       $N00175                    100654e3     uws.exp
 0002:00017546       $N00176                    10065546     uws.exp
 0002:0001766b       $N00177                    1006566b     uws.exp
 0002:00017791       $N00178                    10065791     uws.exp
 0002:000177de       $N00179                    100657de     uws.exp
 0002:0001782d       $N00180                    1006582d     uws.exp
 0002:0001786d       $N00181                    1006586d     uws.exp
 0002:000178af       $N00182                    100658af     uws.exp
 0002:000178ed       $N00183                    100658ed     uws.exp
 0002:0001792d       $N00184                    1006592d     uws.exp
 0002:00017976       $N00185                    10065976     uws.exp
 0002:000179c1       $N00186                    100659c1     uws.exp
 0002:00017a04       $N00187                    10065a04     uws.exp
 0002:00017a49       $N00188                    10065a49     uws.exp
 0002:00017a8d       $N00189                    10065a8d     uws.exp
 0002:00017ad3       $N00190                    10065ad3     uws.exp
 0002:00017ae8       $N00191                    10065ae8     uws.exp
 0002:00017b2c       $N00192                    10065b2c     uws.exp
 0002:00017b5c       $N00193                    10065b5c     uws.exp
 0002:00017ba1       $N00194                    10065ba1     uws.exp
 0002:00017bd2       $N00195                    10065bd2     uws.exp
 0002:00017c15       $N00196                    10065c15     uws.exp
 0002:00017c59       $N00197                    10065c59     uws.exp
 0002:00017c9e       $N00198                    10065c9e     uws.exp
 0002:00017ce5       $N00199                    10065ce5     uws.exp
 0002:00017d04       $N00200                    10065d04     uws.exp
 0002:00017d20       $N00201                    10065d20     uws.exp
 0002:00017d45       $N00202                    10065d45     uws.exp
 0002:00017d6d       $N00203                    10065d6d     uws.exp
 0002:00017d96       $N00204                    10065d96     uws.exp
 0002:00017db8       $N00205                    10065db8     uws.exp
 0002:00017dd4       $N00206                    10065dd4     uws.exp
 0002:00017e3a       $N00207                    10065e3a     uws.exp
 0002:00017ea1       $N00208                    10065ea1     uws.exp
 0002:00017ec8       $N00209                    10065ec8     uws.exp
 0002:00017ef0       $N00210                    10065ef0     uws.exp
 0002:00017f13       $N00211                    10065f13     uws.exp
 0002:00017f37       $N00212                    10065f37     uws.exp
 0002:00017f5f       $N00213                    10065f5f     uws.exp
 0002:00017f88       $N00214                    10065f88     uws.exp
 0002:00017faf       $N00215                    10065faf     uws.exp
 0002:00017fd7       $N00216                    10065fd7     uws.exp
 0002:00018007       $N00217                    10066007     uws.exp
 0002:00018038       $N00218                    10066038     uws.exp
 0002:0001806f       $N00219                    1006606f     uws.exp
 0002:000180a8       $N00220                    100660a8     uws.exp
 0002:000180e1       $N00221                    100660e1     uws.exp
 0002:00018131       $N00222                    10066131     uws.exp
 0002:00018183       $N00223                    10066183     uws.exp
 0002:000181db       $N00224                    100661db     uws.exp
 0002:00018235       $N00225                    10066235     uws.exp
 0002:00018282       $N00226                    10066282     uws.exp
 0002:000182d1       $N00227                    100662d1     uws.exp
 0002:00018302       $N00228                    10066302     uws.exp
 0002:00018334       $N00229                    10066334     uws.exp
 0002:00018371       $N00230                    10066371     uws.exp
 0002:000183a3       $N00231                    100663a3     uws.exp
 0002:0001864c       .idata$6                   1006664c     kernel32:KERNEL32.dll
 0002:000186a8       .idata$6                   100666a8     ws2_32:WS2_32.dll
 0003:00000000       ?init@std@@3JA             10067000     libcpmt:xlock.obj
 0003:00000008       ?atcount_cdecl@@3IA        10067008     libcpmt:iosptrs.obj
 0003:000000a4       ?g_CommitFrequency@details@Concurrency@@3HA 100670a4     libconcrt:utils.obj
 0003:0000010c       ?eventGuidRegistration@?4??_RegisterConcRTEventTracing@details@Concurrency@@YAXXZ@4PAU_TRACE_GUID_REGISTRATION@@A 1006710c     libconcrt:Trace.obj
 0003:00000150       ?__vcrt_flsindex@@3KA      10067150     libvcruntime:per_thread_data.obj
 0003:00000170       _errno_no_memory           10067170     libucrt:errno.obj
 0003:00000174       _doserrno_no_memory        10067174     libucrt:errno.obj
 0003:000002a0       ___acrt_flsindex           100672a0     libucrt:per_thread_data.obj
 0003:000002a4       __ctype_loc_style          100672a4     libucrt:wsetlocale.obj
 0003:000003b0       _tzstd_program             100673b0     libucrt:timeset.obj
 0003:000003f0       _tzdst_program             100673f0     libucrt:timeset.obj
 0003:00000430       _tzname_states             10067430     libucrt:timeset.obj
 0003:00000438       ___rgctypeflag             10067438     libucrt:mbctype.obj
 0003:00000440       ___rgcode_page_info        10067440     libucrt:mbctype.obj
 0003:00000a70       ?_StaticAllocStorageLeft@@3IA 10067a70     libcpmt:excptptr.obj
 0003:00000ac0       __module                   10067ac0     addon.obj
 0003:00002ad0       ?initlocks@std@@3V_Init_locks@1@A 10069ad0     libcpmt:xlock.obj
 0003:00002ad8       ?mtx@std@@3PAU_RTL_CRITICAL_SECTION@@A 10069ad8     libcpmt:xlock.obj
 0003:00002b98       ?initlocks@@3V_Init_locks@std@@A 10069b98     libcpmt:cout.obj
 0003:00002b99       ?init_cout@std@@3U_Init_cout@1@A 10069b99     libcpmt:cout.obj
 0003:00002bf0       ?fout@std@@3V?$basic_filebuf@DU?$char_traits@D@std@@@1@A 10069bf0     libcpmt:cout.obj
 0003:00002c60       _global_locale             10069c60     libcpmt:locale0.obj
 0003:00002c64       ?_Fac_head@std@@3PAU_Fac_node@1@A 10069c64     libcpmt:locale0.obj
 0003:00002c7c       ?classic_locale@std@@3Vlocale@1@A 10069c7c     libcpmt:locale0.obj
 0003:00002c84       ?_Fac_tidy_reg@std@@3U_Fac_tidy_reg_t@1@B 10069c84     libcpmt:locale0.obj
 0003:00002c85       ?registered@?1??_Setgloballocale@locale@std@@CAXPAX@Z@4_NA 10069c85     libcpmt:locale0.obj
 0003:00002c88       ?initlocks@@3V_Init_locks@std@@A 10069c88     libcpmt:cerr.obj
 0003:00002c89       ?init_cerr@std@@3U_Init_cerr@1@A 10069c89     libcpmt:cerr.obj
 0003:00002ce0       ?ferr@std@@3V?$basic_filebuf@DU?$char_traits@D@std@@@1@A 10069ce0     libcpmt:cerr.obj
 0003:00002de4       ?stdstr@std@@3PAPAVios_base@1@A 10069de4     libcpmt:ios.obj
 0003:00002e0c       ?stdopens@std@@3PADA       10069e0c     libcpmt:ios.obj
 0003:00002e38       ?atfuns_cdecl@@3PAP6AXXZA  10069e38     libcpmt:iosptrs.obj
 0003:00002e60       ?initlocks@std@@3V_Init_locks@1@A 10069e60     libcpmt:iosptrs.obj
 0003:00002e61       ?init_atexit@@3U_Init_atexit@@A 10069e61     libcpmt:iosptrs.obj
 0003:00002ee8       ?module_local_atexit_table@@3U_onexit_table_t@@A 10069ee8     LIBCMT:utility.obj
 0003:00002ef4       ?module_local_at_quick_exit_table@@3U_onexit_table_t@@A 10069ef4     LIBCMT:utility.obj
 0003:00002f00       ?is_initialized_as_dll@@3_NA 10069f00     LIBCMT:utility.obj
 0003:00002f04       ?_Tss_mutex@@3U_RTL_CRITICAL_SECTION@@A 10069f04     LIBCMT:thread_safe_statics.obj
 0003:00002f1c       ?_Tss_cv@@3U_RTL_CONDITION_VARIABLE@@A 10069f1c     LIBCMT:thread_safe_statics.obj
 0003:00002f20       ?_Tss_event@@3PAXA         10069f20     LIBCMT:thread_safe_statics.obj
 0003:00002f24       ?encoded_sleep_condition_variable_cs@@3P6GHPAU_RTL_CONDITION_VARIABLE@@PAU_RTL_CRITICAL_SECTION@@K@ZA 10069f24     LIBCMT:thread_safe_statics.obj
 0003:00002f28       ?encoded_wake_all_condition_variable@@3P6GXPAU_RTL_CONDITION_VARIABLE@@@ZA 10069f28     LIBCMT:thread_safe_statics.obj
 0003:00002f2c       ?__proc_attached@@3HA      10069f2c     LIBCMT:dll_dllmain.obj
 0003:00002f30       _GS_ExceptionRecord        10069f30     LIBCMT:gs_report.obj
 0003:00002f80       _GS_ContextRecord          10069f80     LIBCMT:gs_report.obj
 0003:00003270       ?s_waiterPool@platform@details@Concurrency@@3PAVWaiterThreadPool@123@A 1006a270     libconcrt:Platform.obj
 0003:00003274       ?s_pfnGetCurrentProcessorNumberEx@platform@details@Concurrency@@3P6GXPAU_PROCESSOR_NUMBER@@@ZA 1006a274     libconcrt:Platform.obj
 0003:00003278       ?s_pfnSetThreadGroupAffinity@platform@details@Concurrency@@3P6GHPAXPBU_GROUP_AFFINITY@@PAU4@@ZA 1006a278     libconcrt:Platform.obj
 0003:0000327c       ?s_pfnGetThreadGroupAffinity@platform@details@Concurrency@@3P6GHPAXPAU_GROUP_AFFINITY@@@ZA 1006a27c     libconcrt:Platform.obj
 0003:00003280       ?s_defaultWaiterPool@platform@details@Concurrency@@3VDefaultWaiterPool@123@A 1006a280     libconcrt:Platform.obj
 0003:00003288       ?g_TraceInitialized@details@Concurrency@@3_NA 1006a288     libconcrt:utils.obj
 0003:0000328c       ?g_DesiredTraceLevel@details@Concurrency@@3HA 1006a28c     libconcrt:utils.obj
 0003:00003290       ?g_TraceCount@details@Concurrency@@3_KA 1006a290     libconcrt:utils.obj
 0003:000032a0       ?g_DebugOutFilePtr@details@Concurrency@@3PAU_iobuf@@A 1006a2a0     libconcrt:utils.obj
 0003:000033a4       ?module_handles@@3PAPAUHINSTANCE__@@A 1006a3a4     libvcruntime:winapi_downlevel.obj
 0003:000033b4       ?encoded_function_pointers@@3PAPAXA 1006a3b4     libvcruntime:winapi_downlevel.obj
 0003:000033dc       ?__vcrt_startup_thread_ptd@@3U__vcrt_ptd@@A 1006a3dc     libvcruntime:per_thread_data.obj
 0003:00003404       ___vcrt_lock_table         1006a404     libvcruntime:locks.obj
 0003:0000341c       ___vcrt_locks_initialized  1006a41c     libvcruntime:locks.obj
 0003:00003448       ?heap@@3V_HeapManager@@A   1006a448     libvcruntime:undname.obj
 0003:0000345c       ___acrt_invalid_parameter_handler 1006a45c     libucrt:invalid_parameter.obj
 0003:00003468       ___acrt_lock_table         1006a468     libucrt:locks.obj
 0003:000035a0       ___acrt_locks_initialized  1006a5a0     libucrt:locks.obj
 0003:000035b0       ___acrt_new_handler        1006a5b0     libucrt:new_handler.obj
 0003:000035b4       _c_termination_complete    1006a5b4     libucrt:exit.obj
 0003:000035b8       _thread_local_exit_callback_func 1006a5b8     libucrt:exit.obj
 0003:000035bc       ?c_exit_complete@?5??common_exit@@YAXHW4_crt_exit_cleanup_mode@@W4_crt_exit_return_mode@@@Z@4_NA 1006a5bc     libucrt:exit.obj
 0003:000035c0       ?program_name@?5???$common_configure_argv@D@@YAHW4_crt_argv_mode@@@Z@4PADA 1006a5c0     libucrt:argv_parsing.obj
 0003:000036f8       _ctrlc_action              1006a6f8     libucrt:signal.obj
 0003:000036fc       _ctrlbreak_action          1006a6fc     libucrt:signal.obj
 0003:00003700       _abort_action              1006a700     libucrt:signal.obj
 0003:00003704       _term_action               1006a704     libucrt:signal.obj
 0003:00003708       _enable_percent_n          1006a708     libucrt:printf_count_output.obj
 0003:0000391c       ___acrt_global_new_mode    1006a91c     libucrt:new_mode.obj
 0003:00003928       _module_handles            1006a928     libucrt:winapi_thunks.obj
 0003:00003978       _encoded_function_pointers 1006a978     libucrt:winapi_thunks.obj
 0003:000039f8       ?static_enum_proc@?1??enum_system_locales_ex_nolock@@YAHQ6GHPA_WKJ@Z@Z@4P6GH0KJ@ZA 1006a9f8     libucrt:winapi_thunks.obj
 0003:000039fc       ?state_cache@?1??__acrt_is_packaged_app@@9@4JA 1006a9fc     libucrt:winapi_thunks.obj
 0003:00003a10       __tzname                   1006aa10     libucrt:timeset.obj
 0003:00003a18       _tz_api_used               1006aa18     libucrt:tzset.obj
 0003:00003a20       _tz_info                   1006aa20     libucrt:tzset.obj
 0003:00003ae4       _fSystemSet                1006aae4     libucrt:mbctype.obj
 0003:00003ae8       ?initialized@?1??__acrt_initialize_multibyte@@9@4_NA 1006aae8     libucrt:mbctype.obj
 0003:00003b04       _user_matherr              1006ab04     libucrt:matherr.obj
 0003:00003b08       __pmatherr_set             1006ab08     libucrt:libm_error.obj
 0003:00003b0c       ___acrt_app_type           1006ab0c     libucrt:report_runtime_error.obj
 0003:00003b2c       ?s_asyncId@platform@details@Concurrency@@3IA 1006ab2c     libcpmt:ppltasks.obj
 0003:00003b38       ?_StaticAllocStorage@@3PADA 1006ab38     libcpmt:excptptr.obj
 0004:00000000       __guard_fids____dcrt_uninitialize_environments_nolock 1006c000     libucrt:environment_initialization.obj
 0004:00000008       __guard_fids__             1006c008     libucrt:initialization.obj
 0004:00000068       __guard_fids____acrt_initialize_ptd 1006c068     libucrt:per_thread_data.obj
 0004:0000006c       __guard_fids__             1006c06c     libucrt:wsetlocale.obj
 0004:00000084       __guard_fids_??$?RV<lambda_9227be29367c048ad7fd93a717dcb1a1>@@AAV<lambda_a463b7b0560cfcaf9b17f27c6ef46564>@@V<lambda_ccea11b5727ccf69be64f5f5d9a08d9f>@@@?$__crt_seh_guarded_call@H@@QAEH$$QAV<lambda_9227be29367c048ad7fd93a717dcb1a1>@@AAV<lambda_a463b7b0560cfcaf9b17f27c6ef46564>@@$$QAV<lambda_ccea11b5727ccf69be64f5f5d9a08d9f>@@@Z 1006c084     libucrt:winapi_thunks.obj
 0004:00000088       __guard_fids__             1006c088     libucrt:stdio_initializer.obj
 0004:0000008c       __guard_fids__             1006c08c     libucrt:stdio_initializer.obj
 0004:00000090       __guard_fids_??$expand_argument_wildcards@D@@YAHQAD0AAV?$argument_list@D@?A0xb0e4b824@@@Z 1006c090     libucrt:argv_wildcards.obj
 0004:00000094       __guard_fids__             1006c094     libucrt:locale_initializer.obj
 0004:00000098       __guard_fids__GetLocaleNameFromLangCountry 1006c098     libucrt:get_qualified_locale.obj
 0004:0000009c       __guard_fids__GetLocaleNameFromLanguage 1006c09c     libucrt:get_qualified_locale.obj
 0004:000000a0       __guard_fids__GetLcidFromLangCountry 1006c0a0     libucrt:getqloc_downlevel.obj
 0004:000000a4       __guard_fids__GetLcidFromLanguage 1006c0a4     libucrt:getqloc_downlevel.obj
 0004:000000a8       __guard_fids__GetLcidFromCountry 1006c0a8     libucrt:getqloc_downlevel.obj
 0004:000000ac       __guard_fids__             1006c0ac     libucrt:sse2_initializer.obj
 0004:000000b0       __guard_fids____libm_error_support 1006c0b0     libucrt:libm_error.obj
 0004:000000b4       __guard_fids__             1006c0b4     libucrt:timeset_initializer.obj
 0004:000000b8       __guard_fids__             1006c0b8     libucrt:multibyte_initializer.obj
 0004:000000bc       __guard_fids__             1006c0bc     libucrt:console_output_initializer.obj
 0004:000000c0       __guard_fids__             1006c0c0     libcpmt:xthrow.obj
 0004:000000c8       __guard_fids__             1006c0c8     libcpmt:xthrow.obj
 0004:000000d0       __guard_fids__             1006c0d0     libcpmt:xthrow.obj
 0004:000000d8       __guard_fids__             1006c0d8     libcpmt:xthrow.obj
 0004:000000e0       __guard_fids__             1006c0e0     libcpmt:xthrow.obj
 0004:000000e8       __guard_fids__             1006c0e8     libcpmt:xthrow.obj
 0004:000000f0       __guard_fids__             1006c0f0     libcpmt:xthrow.obj
 0004:000000f8       __guard_fids__             1006c0f8     libcpmt:xthrow.obj
 0004:000000fc       __guard_fids__             1006c0fc     libcpmt:xthrow.obj
 0004:00000100       __guard_fids__             1006c100     libcpmt:xthrow.obj
 0004:00000104       __guard_fids__             1006c104     libcpmt:xthrow.obj
 0004:00000108       __guard_fids__             1006c108     libcpmt:xthrow.obj
 0004:0000010c       __guard_fids__             1006c10c     libcpmt:xthrow.obj
 0004:00000110       __guard_fids__             1006c110     libcpmt:xthrow.obj
 0004:00000114       __guard_fids__             1006c114     libcpmt:xthrow.obj
 0004:00000118       __guard_fids__             1006c118     libcpmt:xthrow.obj
 0004:0000011c       __guard_fids__             1006c11c     libcpmt:xthrow.obj
 0004:00000120       __guard_fids__             1006c120     libcpmt:xthrow.obj
 0004:00000124       __guard_fids__             1006c124     libcpmt:xthrow.obj
 0004:0000012c       __guard_fids__             1006c12c     libcpmt:xthrow.obj
 0004:00000130       __guard_fids__             1006c130     libcpmt:xthrow.obj
 0004:00000134       __guard_fids_??$_Immortalize@V_Generic_error_category@std@@@std@@YAAAV_Generic_error_category@0@XZ 1006c134     libcpmt:thread0.obj
 0004:00000138       __guard_fids__             1006c138     libcpmt:thread0.obj
 0004:00000150       __guard_fids__             1006c150     libcpmt:thread0.obj
 0004:00000158       __guard_fids__             1006c158     libcpmt:thread0.obj
 0004:00000160       __guard_fids__             1006c160     libcpmt:thread0.obj
 0004:00000178       __guard_fids__             1006c178     libcpmt:thread0.obj
 0004:0000017c       __guard_fids__             1006c17c     libcpmt:thread0.obj
 0004:00000180       __guard_fids__             1006c180     libcpmt:thread0.obj
 0004:00000184       __guard_fids_??_EGlobalCore@details@Concurrency@@QAEPAXI@Z 1006c184     libcpmt:mutex.obj
 0004:00000188       __guard_fids__             1006c188     libcpmt:mutex.obj
 0004:0000019c       __guard_fids__             1006c19c     libcpmt:mutex.obj
 0004:000001b0       __guard_fids__             1006c1b0     libcpmt:mutex.obj
 0004:000001c4       __guard_fids_??__Einitlocks@std@@YAXXZ 1006c1c4     libcpmt:xlock.obj
 0004:000001c8       __guard_fids__             1006c1c8     libcpmt:xlock.obj
 0004:000001cc       __guard_fids_??__Einitlocks@@YAXXZ 1006c1cc     libcpmt:cout.obj
 0004:000001d0       __guard_fids_??__Efout@std@@YAXXZ 1006c1d0     libcpmt:cout.obj
 0004:000001d4       __guard_fids_??__Ecout@std@@YAXXZ 1006c1d4     libcpmt:cout.obj
 0004:000001d8       __guard_fids__             1006c1d8     libcpmt:cout.obj
 0004:000001e0       __guard_fids__             1006c1e0     libcpmt:cout.obj
 0004:000001ec       __guard_fids__             1006c1ec     libcpmt:cout.obj
 0004:00000218       __guard_fids__             1006c218     libcpmt:cout.obj
 0004:00000230       __guard_fids__             1006c230     libcpmt:cout.obj
 0004:00000238       __guard_fids__             1006c238     libcpmt:cout.obj
 0004:0000023c       __guard_fids__             1006c23c     libcpmt:cout.obj
 0004:00000278       __guard_fids__             1006c278     libcpmt:cout.obj
 0004:000002b4       __guard_fids__             1006c2b4     libcpmt:cout.obj
 0004:000002b8       __guard_fids__             1006c2b8     libcpmt:cout.obj
 0004:000002bc       __guard_fids__             1006c2bc     libcpmt:cout.obj
 0004:000002e4       __guard_fids__             1006c2e4     libcpmt:cout.obj
 0004:000002e8       __guard_fids__             1006c2e8     libcpmt:cout.obj
 0004:000002ec       __guard_fids__             1006c2ec     libcpmt:cout.obj
 0004:000002f0       __guard_fids__             1006c2f0     libcpmt:cout.obj
 0004:000002f4       __guard_fids__             1006c2f4     libcpmt:cout.obj
 0004:000002f8       __guard_fids__             1006c2f8     libcpmt:cout.obj
 0004:000002fc       __guard_fids_??__E_Fac_tidy_reg@std@@YAXXZ 1006c2fc     libcpmt:locale0.obj
 0004:00000300       __guard_fids_?_Setgloballocale@locale@std@@CAXPAX@Z 1006c300     libcpmt:locale0.obj
 0004:00000304       __guard_fids_??__Eclassic_locale@std@@YAXXZ 1006c304     libcpmt:locale0.obj
 0004:00000308       __guard_fids__             1006c308     libcpmt:locale0.obj
 0004:00000314       __guard_fids__             1006c314     libcpmt:locale0.obj
 0004:00000318       __guard_fids__             1006c318     libcpmt:locale0.obj
 0004:0000031c       __guard_fids_??__Einitlocks@@YAXXZ 1006c31c     libcpmt:cerr.obj
 0004:00000320       __guard_fids_??__Eferr@std@@YAXXZ 1006c320     libcpmt:cerr.obj
 0004:00000324       __guard_fids_??__Ecerr@std@@YAXXZ 1006c324     libcpmt:cerr.obj
 0004:00000328       __guard_fids__             1006c328     libcpmt:cerr.obj
 0004:0000032c       __guard_fids__             1006c32c     libcpmt:cerr.obj
 0004:00000330       __guard_fids__             1006c330     libcpmt:cerr.obj
 0004:00000334       __guard_fids__             1006c334     libcpmt:cerr.obj
 0004:00000338       __guard_fids__             1006c338     libcpmt:winapisupp.obj
 0004:0000033c       __guard_fids_??__Einitlocks@std@@YAXXZ 1006c33c     libcpmt:iosptrs.obj
 0004:00000340       __guard_fids_??__Einit_atexit@@YAXXZ 1006c340     libcpmt:iosptrs.obj
 0004:00000344       __guard_fids__             1006c344     libcpmt:iosptrs.obj
 0004:00000348       __guard_fids__             1006c348     libcpmt:iosptrs.obj
 0004:0000034c       __guard_fids__             1006c34c     libcpmt:locale.obj
 0004:00000378       __guard_fids__             1006c378     libcpmt:locale.obj
 0004:00000398       __guard_fids__             1006c398     LIBCMT:std_type_info_static.obj
 0004:0000039c       __guard_fids__             1006c39c     LIBCMT:thread_safe_statics.obj
 0004:000003a0       __guard_fids_?__scrt_initialize_thread_safe_statics@@YAHXZ 1006c3a0     LIBCMT:thread_safe_statics.obj
 0004:000003a4       __guard_fids_?dllmain_crt_process_attach@@YAHQAUHINSTANCE__@@QAX@Z 1006c3a4     LIBCMT:dll_dllmain.obj
 0004:000003ac       __guard_fids_?dllmain_dispatch@@YAHQAUHINSTANCE__@@KQAX@Z 1006c3ac     LIBCMT:dll_dllmain.obj
 0004:000003b0       __guard_fids__             1006c3b0     LIBCMT:throw_bad_alloc.obj
 0004:000003b8       __guard_fids__             1006c3b8     LIBCMT:throw_bad_alloc.obj
 0004:000003bc       __guard_fids__             1006c3bc     LIBCMT:throw_bad_alloc.obj
 0004:000003c0       __guard_fids__             1006c3c0     LIBCMT:guard_support.obj
 0004:000003c4       __guard_fids_??0LockQueueNode@details@Concurrency@@QAE@I@Z 1006c3c4     libconcrt:rtlocks.obj
 0004:000003cc       __guard_fids_?Block@LockQueueNode@details@Concurrency@@QAEXI@Z 1006c3cc     libconcrt:rtlocks.obj
 0004:000003d0       __guard_fids_?WaitForNextNode@LockQueueNode@details@Concurrency@@QAEPAV123@XZ 1006c3d0     libconcrt:rtlocks.obj
 0004:000003d4       __guard_fids__             1006c3d4     libconcrt:rtlocks.obj
 0004:000003dc       __guard_fids__             1006c3dc     libconcrt:rtlocks.obj
 0004:000003e0       __guard_fids__             1006c3e0     libconcrt:rtlocks.obj
 0004:000003e4       __guard_fids_??__Es_defaultWaiterPool@platform@details@Concurrency@@YAXXZ 1006c3e4     libconcrt:Platform.obj
 0004:000003e8       __guard_fids__             1006c3e8     libconcrt:Platform.obj
 0004:000003f0       __guard_fids__             1006c3f0     libconcrt:Platform.obj
 0004:000003f4       __guard_fids__             1006c3f4     libconcrt:Platform.obj
 0004:000003f8       __guard_fids__             1006c3f8     libconcrt:Platform.obj
 0004:000003fc       __guard_fids__             1006c3fc     libconcrt:utils.obj
 0004:00000400       __guard_fids__             1006c400     libconcrt:utils.obj
 0004:00000404       __guard_fids_?_Acquire@_NonReentrantLock@details@Concurrency@@QAEXXZ 1006c404     libconcrt:utils.obj
 0004:00000408       __guard_fids__             1006c408     libconcrt:Exceptions.obj
 0004:00000410       __guard_fids__             1006c410     libconcrt:Exceptions.obj
 0004:00000418       __guard_fids__             1006c418     libconcrt:Exceptions.obj
 0004:00000420       __guard_fids__             1006c420     libconcrt:Exceptions.obj
 0004:00000428       __guard_fids__             1006c428     libconcrt:Exceptions.obj
 0004:00000430       __guard_fids__             1006c430     libconcrt:Exceptions.obj
 0004:00000438       __guard_fids__             1006c438     libconcrt:Exceptions.obj
 0004:00000440       __guard_fids__             1006c440     libconcrt:Exceptions.obj
 0004:00000448       __guard_fids__             1006c448     libconcrt:Exceptions.obj
 0004:00000450       __guard_fids__             1006c450     libconcrt:Exceptions.obj
 0004:00000458       __guard_fids__             1006c458     libconcrt:Exceptions.obj
 0004:00000460       __guard_fids__             1006c460     libconcrt:Exceptions.obj
 0004:00000468       __guard_fids_??_EGlobalNode@details@Concurrency@@QAEPAXI@Z 1006c468     libconcrt:ResourceManager.obj
 0004:0000046c       __guard_fids_?CreateAllocatedNodeData@ResourceManager@details@Concurrency@@QAEPAUSchedulerNode@23@XZ 1006c46c     libconcrt:ResourceManager.obj
 0004:00000470       __guard_fids_?CreateDynamicRMWorker@ResourceManager@details@Concurrency@@AAEXXZ 1006c470     libconcrt:ResourceManager.obj
 0004:00000474       __guard_fids__             1006c474     libconcrt:ResourceManager.obj
 0004:0000047c       __guard_fids__             1006c47c     libconcrt:ResourceManager.obj
 0004:00000484       __guard_fids__             1006c484     libconcrt:ResourceManager.obj
 0004:00000498       __guard_fids__             1006c498     libconcrt:ResourceManager.obj
 0004:000004b0       __guard_fids__             1006c4b0     libconcrt:ResourceManager.obj
 0004:000004b4       __guard_fids__             1006c4b4     libconcrt:ResourceManager.obj
 0004:000004b8       __guard_fids__             1006c4b8     libconcrt:ResourceManager.obj
 0004:000004bc       __guard_fids__             1006c4bc     libconcrt:ResourceManager.obj
 0004:000004c0       __guard_fids_?SpinUntilBitsSet@details@Concurrency@@YAJPCJJ@Z 1006c4c0     libconcrt:SchedulerBase.obj
 0004:000004c4       __guard_fids_?SpinUntilBitsReset@details@Concurrency@@YAJPCJJ@Z 1006c4c4     libconcrt:SchedulerBase.obj
 0004:000004c8       __guard_fids_??_GSubAllocator@details@Concurrency@@QAEPAXI@Z 1006c4c8     libconcrt:SchedulerBase.obj
 0004:000004cc       __guard_fids_??_ENumaInformation@SchedulerBase@details@Concurrency@@QAEPAXI@Z 1006c4cc     libconcrt:SchedulerBase.obj
 0004:000004d0       __guard_fids_??0SchedulerBase@details@Concurrency@@QAE@ABVSchedulerPolicy@2@@Z 1006c4d0     libconcrt:SchedulerBase.obj
 0004:000004dc       __guard_fids_?GetSubAllocator@SchedulerBase@details@Concurrency@@SAPAVSubAllocator@23@_N@Z 1006c4dc     libconcrt:SchedulerBase.obj
 0004:000004e4       __guard_fids_?Add@?$ListArray@VScheduleGroupBase@details@Concurrency@@@details@Concurrency@@QAEHPAVScheduleGroupBase@23@@Z 1006c4e4     libconcrt:SchedulerBase.obj
 0004:000004e8       __guard_fids_?Remove@?$ListArray@VScheduleGroupBase@details@Concurrency@@@details@Concurrency@@QAE_NPAVScheduleGroupBase@23@H_N@Z 1006c4e8     libconcrt:SchedulerBase.obj
 0004:000004ec       __guard_fids_?Remove@?$ListArray@VExternalStatistics@details@Concurrency@@@details@Concurrency@@QAE_NPAVExternalStatistics@23@H_N@Z 1006c4ec     libconcrt:SchedulerBase.obj
 0004:000004f0       __guard_fids_?RemoveVirtualProcessors@SchedulerBase@details@Concurrency@@IAEXPAPAUIVirtualProcessorRoot@3@I@Z 1006c4f0     libconcrt:SchedulerBase.obj
 0004:000004f4       __guard_fids_?Initialize@SchedulerBase@details@Concurrency@@AAEXXZ 1006c4f4     libconcrt:SchedulerBase.obj
 0004:000004fc       __guard_fids__             1006c4fc     libconcrt:SchedulerBase.obj
 0004:00000510       __guard_fids__             1006c510     libconcrt:SchedulerBase.obj
 0004:00000544       __guard_fids__             1006c544     libconcrt:SchedulerBase.obj
 0004:00000548       __guard_fids__             1006c548     libconcrt:SchedulerBase.obj
 0004:0000054c       __guard_fids__             1006c54c     libconcrt:SchedulerBase.obj
 0004:000005ac       __guard_fids__             1006c5ac     libconcrt:SchedulerBase.obj
 0004:000005bc       __guard_fids__             1006c5bc     libconcrt:SchedulerBase.obj
 0004:000005e4       __guard_fids__             1006c5e4     libconcrt:SchedulerBase.obj
 0004:000005f4       __guard_fids__             1006c5f4     libconcrt:SchedulerBase.obj
 0004:0000061c       __guard_fids__             1006c61c     libconcrt:SchedulerBase.obj
 0004:00000620       __guard_fids__             1006c620     libconcrt:SchedulerBase.obj
 0004:00000624       __guard_fids__             1006c624     libconcrt:SchedulerBase.obj
 0004:00000628       __guard_fids__             1006c628     libconcrt:SchedulerBase.obj
 0004:0000062c       __guard_fids_?wait@event@Concurrency@@QAEII@Z 1006c62c     libconcrt:event.obj
 0004:00000630       __guard_fids_?wait_for_multiple@event@Concurrency@@SAIPAPAV12@I_NI@Z 1006c630     libconcrt:event.obj
 0004:00000638       __guard_fids_?GetSharedTimerQueue@details@Concurrency@@YAPAXXZ 1006c638     libconcrt:event.obj
 0004:0000063c       __guard_fids_?createTimer@TimedSingleWaitBlock@details@Concurrency@@QAE_NI@Z 1006c63c     libconcrt:event.obj
 0004:00000644       __guard_fids__             1006c644     libconcrt:event.obj
 0004:00000658       __guard_fids__             1006c658     libconcrt:event.obj
 0004:0000066c       __guard_fids__             1006c66c     libconcrt:event.obj
 0004:00000684       __guard_fids__             1006c684     libconcrt:event.obj
 0004:0000069c       __guard_fids__             1006c69c     libconcrt:event.obj
 0004:000006b4       __guard_fids__             1006c6b4     libconcrt:event.obj
 0004:000006c8       __guard_fids__             1006c6c8     libconcrt:event.obj
 0004:000006cc       __guard_fids_?DetachStealers@ContextBase@details@Concurrency@@QAEXXZ 1006c6cc     libconcrt:ContextBase.obj
 0004:000006d0       __guard_fids_?Add@?$ListArray@VWorkQueue@details@Concurrency@@@details@Concurrency@@QAEHPAVWorkQueue@23@@Z 1006c6d0     libconcrt:ContextBase.obj
 0004:000006d4       __guard_fids_?Remove@?$ListArray@VWorkQueue@details@Concurrency@@@details@Concurrency@@QAE_NPAVWorkQueue@23@H_N@Z 1006c6d4     libconcrt:ContextBase.obj
 0004:000006d8       __guard_fids_?Dereference@Segment@?$Mailbox@V_UnrealizedChore@details@Concurrency@@@details@Concurrency@@QAEXXZ 1006c6d8     libconcrt:ContextBase.obj
 0004:000006dc       __guard_fids__             1006c6dc     libconcrt:ContextBase.obj
 0004:000006f4       __guard_fids__             1006c6f4     libconcrt:ContextBase.obj
 0004:0000073c       __guard_fids__             1006c73c     libconcrt:staticinits.obj
 0004:00000740       __guard_fids__             1006c740     libconcrt:staticinits.obj
 0004:00000744       __guard_fids_?_Initialize@_StructuredTaskCollection@details@Concurrency@@AAEXXZ 1006c744     libconcrt:TaskCollection.obj
 0004:00000748       __guard_fids_?_Reset@_TaskCollection@details@Concurrency@@AAEXPAV123@@Z 1006c748     libconcrt:TaskCollection.obj
 0004:00000750       __guard_fids_?_AbortiveSweep@_TaskCollection@details@Concurrency@@AAEXPAX@Z 1006c750     libconcrt:TaskCollection.obj
 0004:00000758       __guard_fids__             1006c758     libconcrt:TaskCollection.obj
 0004:00000760       __guard_fids__             1006c760     libconcrt:TaskCollection.obj
 0004:00000768       __guard_fids__             1006c768     libconcrt:TaskCollection.obj
 0004:00000774       __guard_fids__             1006c774     libconcrt:TaskCollection.obj
 0004:00000780       __guard_fids__             1006c780     libconcrt:TaskCollection.obj
 0004:00000784       __guard_fids__             1006c784     libconcrt:TaskCollection.obj
 0004:00000788       __guard_fids__             1006c788     libconcrt:TaskCollection.obj
 0004:0000078c       __guard_fids__             1006c78c     libconcrt:TaskCollection.obj
 0004:00000790       __guard_fids__             1006c790     libconcrt:TaskCollection.obj
 0004:00000794       __guard_fids__             1006c794     libconcrt:SchedulerPolicyBase.obj
 0004:00000798       __guard_fids__             1006c798     libconcrt:SchedulerPolicyBase.obj
 0004:0000079c       __guard_fids__             1006c79c     libconcrt:SchedulerPolicyBase.obj
 0004:000007a0       __guard_fids__             1006c7a0     libconcrt:SchedulerPolicyBase.obj
 0004:000007a4       __guard_fids__             1006c7a4     libconcrt:SchedulerPolicyBase.obj
 0004:000007a8       __guard_fids__             1006c7a8     libconcrt:SchedulerPolicyBase.obj
 0004:000007ac       __guard_fids__             1006c7ac     libconcrt:ExecutionResource.obj
 0004:000007bc       __guard_fids__             1006c7bc     libconcrt:SchedulerProxy.obj
 0004:000007e4       __guard_fids__             1006c7e4     libconcrt:ThreadProxyFactoryManager.obj
 0004:000007fc       __guard_fids__             1006c7fc     libconcrt:ThreadProxyFactoryManager.obj
 0004:00000814       __guard_fids__             1006c814     libconcrt:ThreadProxyFactoryManager.obj
 0004:0000083c       __guard_fids__             1006c83c     libconcrt:ThreadProxyFactoryManager.obj
 0004:00000864       __guard_fids_?_RegisterConcRTEventTracing@details@Concurrency@@YAXXZ 1006c864     libconcrt:Trace.obj
 0004:00000868       __guard_fids_?SpinUntilClear@QuickBitSet@details@Concurrency@@QBEXI@Z 1006c868     libconcrt:VirtualProcessor.obj
 0004:0000086c       __guard_fids_?SpinUntilSet@QuickBitSet@details@Concurrency@@QBEXI@Z 1006c86c     libconcrt:VirtualProcessor.obj
 0004:00000870       __guard_fids_?StartupWorkerContext@VirtualProcessor@details@Concurrency@@EAE_NPAVScheduleGroupSegmentBase@23@PAVInternalContextBase@23@@Z 1006c870     libconcrt:VirtualProcessor.obj
 0004:00000874       __guard_fids_?Remove@?$ListArray@VVirtualProcessor@details@Concurrency@@@details@Concurrency@@QAE_NPAVVirtualProcessor@23@H_N@Z 1006c874     libconcrt:VirtualProcessor.obj
 0004:00000878       __guard_fids_?Dereference@Segment@?$Mailbox@VInternalContextBase@details@Concurrency@@@details@Concurrency@@QAEXXZ 1006c878     libconcrt:VirtualProcessor.obj
 0004:0000087c       __guard_fids__             1006c87c     libconcrt:VirtualProcessor.obj
 0004:000008a0       __guard_fids_?Add@?$ListArray@VVirtualProcessor@details@Concurrency@@@details@Concurrency@@QAEHPAVVirtualProcessor@23@@Z 1006c8a0     libconcrt:SchedulingNode.obj
 0004:000008a4       __guard_fids_?SpinUntilValueEquals@details@Concurrency@@YAXPCJJ@Z 1006c8a4     libconcrt:InternalContextBase.obj
 0004:000008a8       __guard_fids_?GrowAndPush@?$StructuredWorkStealingQueue@VInternalContextBase@details@Concurrency@@V_HyperNonReentrantLock@23@@details@Concurrency@@AAEXPAVInternalContextBase@23@VSlot@?$Mailbox@VInternalContextBase@details@Concurrency@@@23@@Z 1006c8a8     libconcrt:InternalContextBase.obj
 0004:000008ac       __guard_fids_?SpinUntilBlocked@InternalContextBase@details@Concurrency@@IAEXXZ 1006c8ac     libconcrt:InternalContextBase.obj
 0004:000008b0       __guard_fids__             1006c8b0     libconcrt:InternalContextBase.obj
 0004:000008c4       __guard_fids__             1006c8c4     libconcrt:InternalContextBase.obj
 0004:000008e8       __guard_fids__             1006c8e8     libconcrt:InternalContextBase.obj
 0004:00000930       __guard_fids__             1006c930     libconcrt:InternalContextBase.obj
 0004:00000934       __guard_fids__             1006c934     libconcrt:InternalContextBase.obj
 0004:00000938       __guard_fids__             1006c938     libconcrt:InternalContextBase.obj
 0004:0000093c       __guard_fids__             1006c93c     libconcrt:InternalContextBase.obj
 0004:00000940       __guard_fids__             1006c940     libconcrt:InternalContextBase.obj
 0004:00000944       __guard_fids__             1006c944     libconcrt:InternalContextBase.obj
 0004:00000948       __guard_fids__             1006c948     libconcrt:InternalContextBase.obj
 0004:0000094c       __guard_fids__             1006c94c     libconcrt:InternalContextBase.obj
 0004:00000950       __guard_fids_?Remove@?$ListArray@VScheduleGroupSegmentBase@details@Concurrency@@@details@Concurrency@@QAE_NPAVScheduleGroupSegmentBase@23@H_N@Z 1006c950     libconcrt:SchedulingRing.obj
 0004:00000954       __guard_fids_?DemandInitialize@?$Mailbox@V_UnrealizedChore@details@Concurrency@@@details@Concurrency@@AAEXXZ 1006c954     libconcrt:ScheduleGroupBase.obj
 0004:00000958       __guard_fids_?Add@?$ListArray@VExternalStatistics@details@Concurrency@@@details@Concurrency@@QAEHPAVExternalStatistics@23@@Z 1006c958     libconcrt:ScheduleGroupBase.obj
 0004:0000095c       __guard_fids_?Add@?$ListArray@VScheduleGroupSegmentBase@details@Concurrency@@@details@Concurrency@@QAEHPAVScheduleGroupSegmentBase@23@@Z 1006c95c     libconcrt:ScheduleGroupBase.obj
 0004:00000960       __guard_fids_?Add@?$ListArray@U?$ListArrayInlineLink@VWorkQueue@details@Concurrency@@@details@Concurrency@@@details@Concurrency@@QAEHPAU?$ListArrayInlineLink@VWorkQueue@details@Concurrency@@@23@@Z 1006c960     libconcrt:ScheduleGroupBase.obj
 0004:00000964       __guard_fids_?Remove@?$ListArray@U?$ListArrayInlineLink@VWorkQueue@details@Concurrency@@@details@Concurrency@@@details@Concurrency@@QAE_NPAU?$ListArrayInlineLink@VWorkQueue@details@Concurrency@@@23@H_N@Z 1006c964     libconcrt:ScheduleGroupBase.obj
 0004:00000968       __guard_fids_?SetDeletionReferences@Segment@?$Mailbox@V_UnrealizedChore@details@Concurrency@@@details@Concurrency@@QAEXI@Z 1006c968     libconcrt:ScheduleGroupBase.obj
 0004:0000096c       __guard_fids__             1006c96c     libconcrt:ScheduleGroupBase.obj
 0004:0000097c       __guard_fids__             1006c97c     libconcrt:ScheduleGroupBase.obj
 0004:000009a4       __guard_fids_?PrepareForUse@ExternalContextBase@details@Concurrency@@QAEX_N@Z 1006c9a4     libconcrt:ExternalContextBase.obj
 0004:000009ac       __guard_fids__             1006c9ac     libconcrt:ExternalContextBase.obj
 0004:000009f4       __guard_fids__             1006c9f4     libconcrt:ThreadScheduler.obj
 0004:00000a10       __guard_fids__             1006ca10     libconcrt:ThreadScheduler.obj
 0004:00000a34       __guard_fids__             1006ca34     libconcrt:ThreadScheduler.obj
 0004:00000a7c       __guard_fids__             1006ca7c     libconcrt:ThreadScheduler.obj
 0004:00000a98       __guard_fids__             1006ca98     libconcrt:ThreadScheduler.obj
 0004:00000af8       __guard_fids_?RetireAtSafePoint@WorkQueue@details@Concurrency@@QAEXPAVScheduleGroupSegmentBase@23@@Z 1006caf8     libconcrt:WorkQueue.obj
 0004:00000afc       __guard_fids_?RedetachFromScheduleGroupAtSafePoint@WorkQueue@details@Concurrency@@QAEXPAVScheduleGroupSegmentBase@23@@Z 1006cafc     libconcrt:WorkQueue.obj
 0004:00000b00       __guard_fids_?_PrepareSteal@_UnrealizedChore@details@Concurrency@@QAEXPAVContextBase@23@@Z 1006cb00     libconcrt:Chores.obj
 0004:00000b04       __guard_fids_?_StructuredChoreWrapper@_UnrealizedChore@details@Concurrency@@CAXPAV123@@Z 1006cb04     libconcrt:Chores.obj
 0004:00000b08       __guard_fids__             1006cb08     libconcrt:VirtualProcessorRoot.obj
 0004:00000b30       __guard_fids_?AcquireActivatedContext@VirtualProcessorRoot@details@Concurrency@@QAEPAUIExecutionContext@3@XZ 1006cb30     libconcrt:FreeVirtualProcessorRoot.obj
 0004:00000b34       __guard_fids_?SpinUntilIdle@FreeVirtualProcessorRoot@details@Concurrency@@IAEXXZ 1006cb34     libconcrt:FreeVirtualProcessorRoot.obj
 0004:00000b38       __guard_fids__             1006cb38     libconcrt:FreeVirtualProcessorRoot.obj
 0004:00000b60       __guard_fids_??0ThreadProxy@details@Concurrency@@QAE@PAUIThreadProxyFactory@12@I@Z 1006cb60     libconcrt:ThreadProxy.obj
 0004:00000b64       __guard_fids_?SpinUntilBlocked@ThreadProxy@details@Concurrency@@QAEXXZ 1006cb64     libconcrt:ThreadProxy.obj
 0004:00000b68       __guard_fids__             1006cb68     libconcrt:ThreadProxy.obj
 0004:00000b80       __guard_fids__             1006cb80     libconcrt:ThreadProxy.obj
 0004:00000b84       __guard_fids__             1006cb84     libconcrt:ThreadProxy.obj
 0004:00000b88       __guard_fids_?Reset@WorkSearchContext@details@Concurrency@@QAEXPAVVirtualProcessor@23@W4Algorithm@123@@Z 1006cb88     libconcrt:SearchAlgorithms.obj
 0004:00000b98       __guard_fids__             1006cb98     libconcrt:ThreadVirtualProcessor.obj
 0004:00000bbc       __guard_fids__             1006cbbc     libvcruntime:frame.obj
 0004:00000bc0       __guard_fids__             1006cbc0     libvcruntime:frame.obj
 0004:00000bc8       __guard_fids__             1006cbc8     libvcruntime:frame.obj
 0004:00000bcc       __guard_fids__             1006cbcc     libvcruntime:frame.obj
 0004:00000bd0       __guard_fids__             1006cbd0     libvcruntime:rtti.obj
 0004:00000bd8       __guard_fids__             1006cbd8     libvcruntime:rtti.obj
 0004:00000be0       __guard_fids__             1006cbe0     libvcruntime:rtti.obj
 0004:00000be4       __guard_fids__             1006cbe4     libvcruntime:rtti.obj
 0004:00000be8       __guard_fids__             1006cbe8     libvcruntime:rtti.obj
 0004:00000bec       __guard_fids____vcrt_initialize_ptd 1006cbec     libvcruntime:per_thread_data.obj
 0004:00000bf0       __guard_fids_??__E?m_badAllocExceptionPtr@__ExceptionPtr@@0V?$shared_ptr@V__ExceptionPtr@@@std@@A@@YAXXZ 1006cbf0     libcpmt:excptptr.obj
 0004:00000bf4       __guard_fids__             1006cbf4     libcpmt:excptptr.obj
 0004:00000c04       __guard_fids__             1006cc04     libcpmt:excptptr.obj
 0004:00000c14       __guard_fids__             1006cc14     libcpmt:excptptr.obj
 0004:00000c24       __guard_fids__             1006cc24     libcpmt:excptptr.obj
 0004:00000c28       __guard_fids__             1006cc28     libcpmt:cond.obj
 0004:00000c3c       __guard_fids__             1006cc3c     libcpmt:cond.obj
 0004:00000c50       __guard_fids__             1006cc50     libcpmt:cond.obj
 0005:00000010       ?buf@?1??getAddress@Socket@uS@@QAE?AUAddress@23@XZ@4PADA 1006d010     Socket.obj
 0006:00000060       $R000000                   1006e060     * linker generated manifest res *

 Exports

  ordinal    name

        1    ??0?$Group@$00@uWS@@IAE@HIPAUHub@1@PAUNodeData@uS@@@Z (protected: __thiscall uWS::Group<1>::Group<1>(int,unsigned int,struct uWS::Hub *,struct uS::NodeData *))
        2    ??0?$Group@$00@uWS@@QAE@$$QAU01@@Z (public: __thiscall uWS::Group<1>::Group<1>(struct uWS::Group<1> &&))
        3    ??0?$Group@$00@uWS@@QAE@ABU01@@Z (public: __thiscall uWS::Group<1>::Group<1>(struct uWS::Group<1> const &))
        4    ??0?$Group@$0A@@uWS@@IAE@HIPAUHub@1@PAUNodeData@uS@@@Z (protected: __thiscall uWS::Group<0>::Group<0>(int,unsigned int,struct uWS::Hub *,struct uS::NodeData *))
        5    ??0?$Group@$0A@@uWS@@QAE@$$QAU01@@Z (public: __thiscall uWS::Group<0>::Group<0>(struct uWS::Group<0> &&))
        6    ??0?$Group@$0A@@uWS@@QAE@ABU01@@Z (public: __thiscall uWS::Group<0>::Group<0>(struct uWS::Group<0> const &))
        7    ??0?$HttpSocket@$00@uWS@@QAE@$$QAU01@@Z (public: __thiscall uWS::HttpSocket<1>::HttpSocket<1>(struct uWS::HttpSocket<1> &&))
        8    ??0?$HttpSocket@$00@uWS@@QAE@PAUSocket@uS@@@Z (public: __thiscall uWS::HttpSocket<1>::HttpSocket<1>(struct uS::Socket *))
        9    ??0?$HttpSocket@$0A@@uWS@@QAE@$$QAU01@@Z (public: __thiscall uWS::HttpSocket<0>::HttpSocket<0>(struct uWS::HttpSocket<0> &&))
       10    ??0?$HttpSocket@$0A@@uWS@@QAE@PAUSocket@uS@@@Z (public: __thiscall uWS::HttpSocket<0>::HttpSocket<0>(struct uS::Socket *))
       11    ??0?$WebSocket@$00@uWS@@IAE@_NPAUSocket@uS@@@Z (protected: __thiscall uWS::WebSocket<1>::WebSocket<1>(bool,struct uS::Socket *))
       12    ??0?$WebSocket@$00@uWS@@QAE@$$QAU01@@Z (public: __thiscall uWS::WebSocket<1>::WebSocket<1>(struct uWS::WebSocket<1> &&))
       13    ??0?$WebSocket@$0A@@uWS@@IAE@_NPAUSocket@uS@@@Z (protected: __thiscall uWS::WebSocket<0>::WebSocket<0>(bool,struct uS::Socket *))
       14    ??0?$WebSocket@$0A@@uWS@@QAE@$$QAU01@@Z (public: __thiscall uWS::WebSocket<0>::WebSocket<0>(struct uWS::WebSocket<0> &&))
       15    ??0?$WebSocketState@$00@uWS@@QAE@XZ (public: __thiscall uWS::WebSocketState<1>::WebSocketState<1>(void))
       16    ??0?$WebSocketState@$0A@@uWS@@QAE@XZ (public: __thiscall uWS::WebSocketState<0>::WebSocketState<0>(void))
       17    ??0Context@TLS@uS@@QAE@ABV012@@Z (public: __thiscall uS::TLS::Context::Context(class uS::TLS::Context const &))
       18    ??0Context@TLS@uS@@QAE@PAUssl_ctx_st@@@Z (public: __thiscall uS::TLS::Context::Context(struct ssl_ctx_st *))
       19    ??0Context@TLS@uS@@QAE@XZ (public: __thiscall uS::TLS::Context::Context(void))
       20    ??0Hub@uWS@@QAE@H_NI@Z (public: __thiscall uWS::Hub::Hub(int,bool,unsigned int))
       21    ??0Node@uS@@QAE@HHH_N@Z (public: __thiscall uS::Node::Node(int,int,int,bool))
       22    ??0NodeData@uS@@QAE@$$QAU01@@Z (public: __thiscall uS::NodeData::NodeData(struct uS::NodeData &&))
       23    ??0NodeData@uS@@QAE@ABU01@@Z (public: __thiscall uS::NodeData::NodeData(struct uS::NodeData const &))
       24    ??0NodeData@uS@@QAE@XZ (public: __thiscall uS::NodeData::NodeData(void))
       25    ??0Socket@uS@@QAE@$$QAU01@@Z (public: __thiscall uS::Socket::Socket(struct uS::Socket &&))
       26    ??0Socket@uS@@QAE@PAUNodeData@1@PAULoop@@IPAUssl_st@@@Z (public: __thiscall uS::Socket::Socket(struct uS::NodeData *,struct Loop *,unsigned int,struct ssl_st *))
       27    ??1?$Group@$00@uWS@@QAE@XZ (public: __thiscall uWS::Group<1>::~Group<1>(void))
       28    ??1?$Group@$0A@@uWS@@QAE@XZ (public: __thiscall uWS::Group<0>::~Group<0>(void))
       29    ??1?$HttpSocket@$00@uWS@@QAE@XZ (public: __thiscall uWS::HttpSocket<1>::~HttpSocket<1>(void))
       30    ??1?$HttpSocket@$0A@@uWS@@QAE@XZ (public: __thiscall uWS::HttpSocket<0>::~HttpSocket<0>(void))
       31    ??1?$WebSocket@$00@uWS@@QAE@XZ (public: __thiscall uWS::WebSocket<1>::~WebSocket<1>(void))
       32    ??1?$WebSocket@$0A@@uWS@@QAE@XZ (public: __thiscall uWS::WebSocket<0>::~WebSocket<0>(void))
       33    ??1Context@TLS@uS@@QAE@XZ (public: __thiscall uS::TLS::Context::~Context(void))
       34    ??1Hub@uWS@@QAE@XZ (public: __thiscall uWS::Hub::~Hub(void))
       35    ??1Node@uS@@QAE@XZ (public: __thiscall uS::Node::~Node(void))
       36    ??1NodeData@uS@@QAE@XZ (public: __thiscall uS::NodeData::~NodeData(void))
       37    ??1Socket@uS@@QAE@XZ (public: __thiscall uS::Socket::~Socket(void))
       38    ??4?$Group@$00@uWS@@QAEAAU01@$$QAU01@@Z (public: struct uWS::Group<1> & __thiscall uWS::Group<1>::operator=(struct uWS::Group<1> &&))
       39    ??4?$Group@$00@uWS@@QAEAAU01@ABU01@@Z (public: struct uWS::Group<1> & __thiscall uWS::Group<1>::operator=(struct uWS::Group<1> const &))
       40    ??4?$Group@$0A@@uWS@@QAEAAU01@$$QAU01@@Z (public: struct uWS::Group<0> & __thiscall uWS::Group<0>::operator=(struct uWS::Group<0> &&))
       41    ??4?$Group@$0A@@uWS@@QAEAAU01@ABU01@@Z (public: struct uWS::Group<0> & __thiscall uWS::Group<0>::operator=(struct uWS::Group<0> const &))
       42    ??4?$WebSocketProtocol@$00U?$WebSocket@$00@uWS@@@uWS@@QAEAAV01@$$QAV01@@Z (public: class uWS::WebSocketProtocol<1,struct uWS::WebSocket<1> > & __thiscall uWS::WebSocketProtocol<1,struct uWS::WebSocket<1> >::operator=(class uWS::WebSocketProtocol<1,struct uWS::WebSocket<1> > &&))
       43    ??4?$WebSocketProtocol@$00U?$WebSocket@$00@uWS@@@uWS@@QAEAAV01@ABV01@@Z (public: class uWS::WebSocketProtocol<1,struct uWS::WebSocket<1> > & __thiscall uWS::WebSocketProtocol<1,struct uWS::WebSocket<1> >::operator=(class uWS::WebSocketProtocol<1,struct uWS::WebSocket<1> > const &))
       44    ??4?$WebSocketProtocol@$0A@U?$WebSocket@$0A@@uWS@@@uWS@@QAEAAV01@$$QAV01@@Z (public: class uWS::WebSocketProtocol<0,struct uWS::WebSocket<0> > & __thiscall uWS::WebSocketProtocol<0,struct uWS::WebSocket<0> >::operator=(class uWS::WebSocketProtocol<0,struct uWS::WebSocket<0> > &&))
       45    ??4?$WebSocketProtocol@$0A@U?$WebSocket@$0A@@uWS@@@uWS@@QAEAAV01@ABV01@@Z (public: class uWS::WebSocketProtocol<0,struct uWS::WebSocket<0> > & __thiscall uWS::WebSocketProtocol<0,struct uWS::WebSocket<0> >::operator=(class uWS::WebSocketProtocol<0,struct uWS::WebSocket<0> > const &))
       46    ??4?$WebSocketState@$00@uWS@@QAEAAU01@$$QAU01@@Z (public: struct uWS::WebSocketState<1> & __thiscall uWS::WebSocketState<1>::operator=(struct uWS::WebSocketState<1> &&))
       47    ??4?$WebSocketState@$00@uWS@@QAEAAU01@ABU01@@Z (public: struct uWS::WebSocketState<1> & __thiscall uWS::WebSocketState<1>::operator=(struct uWS::WebSocketState<1> const &))
       48    ??4?$WebSocketState@$0A@@uWS@@QAEAAU01@$$QAU01@@Z (public: struct uWS::WebSocketState<0> & __thiscall uWS::WebSocketState<0>::operator=(struct uWS::WebSocketState<0> &&))
       49    ??4?$WebSocketState@$0A@@uWS@@QAEAAU01@ABU01@@Z (public: struct uWS::WebSocketState<0> & __thiscall uWS::WebSocketState<0>::operator=(struct uWS::WebSocketState<0> const &))
       50    ??4Context@TLS@uS@@QAEAAV012@ABV012@@Z (public: class uS::TLS::Context & __thiscall uS::TLS::Context::operator=(class uS::TLS::Context const &))
       51    ??4NodeData@uS@@QAEAAU01@$$QAU01@@Z (public: struct uS::NodeData & __thiscall uS::NodeData::operator=(struct uS::NodeData &&))
       52    ??4NodeData@uS@@QAEAAU01@ABU01@@Z (public: struct uS::NodeData & __thiscall uS::NodeData::operator=(struct uS::NodeData const &))
       53    ??BContext@TLS@uS@@QAE_NXZ (public: __thiscall uS::TLS::Context::operator bool(void))
       54    ??_FHub@uWS@@QAEXXZ (public: void __thiscall uWS::Hub::`default constructor closure'(void))
       55    ??_FNode@uS@@QAEXXZ (public: void __thiscall uS::Node::`default constructor closure'(void))
       56    ?CONSUME_POST_PADDING@?$WebSocketProtocol@$00U?$WebSocket@$00@uWS@@@uWS@@2HB (public: static int const uWS::WebSocketProtocol<1,struct uWS::WebSocket<1> >::CONSUME_POST_PADDING)
       57    ?CONSUME_POST_PADDING@?$WebSocketProtocol@$0A@U?$WebSocket@$0A@@uWS@@@uWS@@2HB (public: static int const uWS::WebSocketProtocol<0,struct uWS::WebSocket<0> >::CONSUME_POST_PADDING)
       58    ?CONSUME_PRE_PADDING@?$WebSocketProtocol@$00U?$WebSocket@$00@uWS@@@uWS@@2HB (public: static int const uWS::WebSocketProtocol<1,struct uWS::WebSocket<1> >::CONSUME_PRE_PADDING)
       59    ?CONSUME_PRE_PADDING@?$WebSocketProtocol@$0A@U?$WebSocket@$0A@@uWS@@@uWS@@2HB (public: static int const uWS::WebSocketProtocol<0,struct uWS::WebSocket<0> >::CONSUME_PRE_PADDING)
       60    ?LARGE_BUFFER_SIZE@Hub@uWS@@1HB (protected: static int const uWS::Hub::LARGE_BUFFER_SIZE)
       61    ?LONG_MESSAGE_HEADER@?$WebSocketProtocol@$00U?$WebSocket@$00@uWS@@@uWS@@2IB (public: static unsigned int const uWS::WebSocketProtocol<1,struct uWS::WebSocket<1> >::LONG_MESSAGE_HEADER)
       62    ?LONG_MESSAGE_HEADER@?$WebSocketProtocol@$0A@U?$WebSocket@$0A@@uWS@@@uWS@@2IB (public: static unsigned int const uWS::WebSocketProtocol<0,struct uWS::WebSocket<0> >::LONG_MESSAGE_HEADER)
       63    ?MEDIUM_MESSAGE_HEADER@?$WebSocketProtocol@$00U?$WebSocket@$00@uWS@@@uWS@@2IB (public: static unsigned int const uWS::WebSocketProtocol<1,struct uWS::WebSocket<1> >::MEDIUM_MESSAGE_HEADER)
       64    ?MEDIUM_MESSAGE_HEADER@?$WebSocketProtocol@$0A@U?$WebSocket@$0A@@uWS@@@uWS@@2IB (public: static unsigned int const uWS::WebSocketProtocol<0,struct uWS::WebSocket<0> >::MEDIUM_MESSAGE_HEADER)
       65    ?SHORT_MESSAGE_HEADER@?$WebSocketProtocol@$00U?$WebSocket@$00@uWS@@@uWS@@2IB (public: static unsigned int const uWS::WebSocketProtocol<1,struct uWS::WebSocket<1> >::SHORT_MESSAGE_HEADER)
       66    ?SHORT_MESSAGE_HEADER@?$WebSocketProtocol@$0A@U?$WebSocket@$0A@@uWS@@@uWS@@2IB (public: static unsigned int const uWS::WebSocketProtocol<0,struct uWS::WebSocket<0> >::SHORT_MESSAGE_HEADER)
       67    ?addAsync@?$Group@$00@uWS@@QAEXXZ (public: void __thiscall uWS::Group<1>::addAsync(void))
       68    ?addAsync@?$Group@$0A@@uWS@@QAEXXZ (public: void __thiscall uWS::Group<0>::addAsync(void))
       69    ?addAsync@NodeData@uS@@QAEXXZ (public: void __thiscall uS::NodeData::addAsync(void))
       70    ?addHttpSocket@?$Group@$00@uWS@@IAEXPAU?$HttpSocket@$00@2@@Z (protected: void __thiscall uWS::Group<1>::addHttpSocket(struct uWS::HttpSocket<1> *))
       71    ?addHttpSocket@?$Group@$0A@@uWS@@IAEXPAU?$HttpSocket@$0A@@2@@Z (protected: void __thiscall uWS::Group<0>::addHttpSocket(struct uWS::HttpSocket<0> *))
       72    ?addWebSocket@?$Group@$00@uWS@@IAEXPAU?$WebSocket@$00@2@@Z (protected: void __thiscall uWS::Group<1>::addWebSocket(struct uWS::WebSocket<1> *))
       73    ?addWebSocket@?$Group@$0A@@uWS@@IAEXPAU?$WebSocket@$0A@@2@@Z (protected: void __thiscall uWS::Group<0>::addWebSocket(struct uWS::WebSocket<0> *))
       74    ?allocMessage@Socket@uS@@IAEPAUMessage@Queue@12@IPBD@Z (protected: struct uS::Socket::Queue::Message * __thiscall uS::Socket::allocMessage(unsigned int,char const *))
       75    ?asyncCallback@NodeData@uS@@SAXPAUAsync@@@Z (public: static void __cdecl uS::NodeData::asyncCallback(struct Async *))
       76    ?broadcast@?$Group@$00@uWS@@QAEXPBDIW4OpCode@2@@Z (public: void __thiscall uWS::Group<1>::broadcast(char const *,unsigned int,enum uWS::OpCode))
       77    ?broadcast@?$Group@$0A@@uWS@@QAEXPBDIW4OpCode@2@@Z (public: void __thiscall uWS::Group<0>::broadcast(char const *,unsigned int,enum uWS::OpCode))
       78    ?cancelTimeout@Socket@uS@@IAEXXZ (protected: void __thiscall uS::Socket::cancelTimeout(void))
       79    ?changePoll@Socket@uS@@IAEXPAU12@@Z (protected: void __thiscall uS::Socket::changePoll(struct uS::Socket *))
       80    ?clearPendingPollChanges@NodeData@uS@@QAEXPAUPoll@@@Z (public: void __thiscall uS::NodeData::clearPendingPollChanges(struct Poll *))
       81    ?close@?$Group@$00@uWS@@QAEXHPADI@Z (public: void __thiscall uWS::Group<1>::close(int,char *,unsigned int))
       82    ?close@?$Group@$0A@@uWS@@QAEXHPADI@Z (public: void __thiscall uWS::Group<0>::close(int,char *,unsigned int))
       83    ?close@?$WebSocket@$00@uWS@@QAEXHPBDI@Z (public: void __thiscall uWS::WebSocket<1>::close(int,char const *,unsigned int))
       84    ?close@?$WebSocket@$0A@@uWS@@QAEXHPBDI@Z (public: void __thiscall uWS::WebSocket<0>::close(int,char const *,unsigned int))
       85    ?connect@Hub@uWS@@QAEXV?$basic_string@DU?$char_traits@D@std@@V?$allocator@D@2@@std@@PAXV?$map@V?$basic_string@DU?$char_traits@D@std@@V?$allocator@D@2@@std@@V12@U?$less@V?$basic_string@DU?$char_traits@D@std@@V?$allocator@D@2@@std@@@2@V?$allocator@U?$pair@$$CBV?$basic_string@DU?$char_traits@D@std@@V?$allocator@D@2@@std@@V12@@std@@@2@@4@HPAU?$Group@$0A@@2@@Z (public: void __thiscall uWS::Hub::connect(class std::basic_string<char,struct std::char_traits<char>,class std::allocator<char> >,void *,class std::map<class std::basic_string<char,struct std::char_traits<char>,class std::allocator<char> >,class std::basic_string<char,struct std::char_traits<char>,class std::allocator<char> >,struct std::less<class std::basic_string<char,struct std::char_traits<char>,class std::allocator<char> > >,class std::allocator<struct std::pair<class std::basic_string<char,struct std::char_traits<char>,class std::allocator<char> > const ,class std::basic_string<char,struct std::char_traits<char>,class std::allocator<char> > > > >,int,struct uWS::Group<0> *))
       86    ?consume@?$WebSocketProtocol@$00U?$WebSocket@$00@uWS@@@uWS@@SAXPADIPAU?$WebSocketState@$00@2@@Z (public: static void __cdecl uWS::WebSocketProtocol<1,struct uWS::WebSocket<1> >::consume(char *,unsigned int,struct uWS::WebSocketState<1> *))
       87    ?consume@?$WebSocketProtocol@$0A@U?$WebSocket@$0A@@uWS@@@uWS@@SAXPADIPAU?$WebSocketState@$0A@@2@@Z (public: static void __cdecl uWS::WebSocketProtocol<0,struct uWS::WebSocket<0> >::consume(char *,unsigned int,struct uWS::WebSocketState<0> *))
       88    ?consumeContinuation@?$WebSocketProtocol@$00U?$WebSocket@$00@uWS@@@uWS@@CA_NAAPADAAIPAU?$WebSocketState@$00@2@@Z (private: static bool __cdecl uWS::WebSocketProtocol<1,struct uWS::WebSocket<1> >::consumeContinuation(char * &,unsigned int &,struct uWS::WebSocketState<1> *))
       89    ?consumeContinuation@?$WebSocketProtocol@$0A@U?$WebSocket@$0A@@uWS@@@uWS@@CA_NAAPADAAIPAU?$WebSocketState@$0A@@2@@Z (private: static bool __cdecl uWS::WebSocketProtocol<0,struct uWS::WebSocket<0> >::consumeContinuation(char * &,unsigned int &,struct uWS::WebSocketState<0> *))
       90    ?cork@Socket@uS@@QAEXH@Z (public: void __thiscall uS::Socket::cork(int))
       91    ?createContext@TLS@uS@@YA?AVContext@12@V?$basic_string@DU?$char_traits@D@std@@V?$allocator@D@2@@std@@00@Z (class uS::TLS::Context __cdecl uS::TLS::createContext(class std::basic_string<char,struct std::char_traits<char>,class std::allocator<char> >,class std::basic_string<char,struct std::char_traits<char>,class std::allocator<char> >,class std::basic_string<char,struct std::char_traits<char>,class std::allocator<char> >))
       92    ?enqueue@Socket@uS@@IAEXPAUMessage@Queue@12@@Z (protected: void __thiscall uS::Socket::enqueue(struct uS::Socket::Queue::Message *))
       93    ?finalizeMessage@?$WebSocket@$00@uWS@@SAXPAUPreparedMessage@12@@Z (public: static void __cdecl uWS::WebSocket<1>::finalizeMessage(struct uWS::WebSocket<1>::PreparedMessage *))
       94    ?finalizeMessage@?$WebSocket@$0A@@uWS@@SAXPAUPreparedMessage@12@@Z (public: static void __cdecl uWS::WebSocket<0>::finalizeMessage(struct uWS::WebSocket<0>::PreparedMessage *))
       95    ?forceClose@?$WebSocket@$00@uWS@@KAXPAU?$WebSocketState@$00@2@@Z (protected: static void __cdecl uWS::WebSocket<1>::forceClose(struct uWS::WebSocketState<1> *))
       96    ?forceClose@?$WebSocket@$0A@@uWS@@KAXPAU?$WebSocketState@$0A@@2@@Z (protected: static void __cdecl uWS::WebSocket<0>::forceClose(struct uWS::WebSocketState<0> *))
       97    ?formatClosePayload@?$WebSocketProtocol@$00U?$WebSocket@$00@uWS@@@uWS@@SAIPADGPBDI@Z (public: static unsigned int __cdecl uWS::WebSocketProtocol<1,struct uWS::WebSocket<1> >::formatClosePayload(char *,unsigned short,char const *,unsigned int))
       98    ?formatClosePayload@?$WebSocketProtocol@$0A@U?$WebSocket@$0A@@uWS@@@uWS@@SAIPADGPBDI@Z (public: static unsigned int __cdecl uWS::WebSocketProtocol<0,struct uWS::WebSocket<0> >::formatClosePayload(char *,unsigned short,char const *,unsigned int))
       99    ?formatMessage@?$WebSocketProtocol@$00U?$WebSocket@$00@uWS@@@uWS@@SAIPADPBDIW4OpCode@2@I_N@Z (public: static unsigned int __cdecl uWS::WebSocketProtocol<1,struct uWS::WebSocket<1> >::formatMessage(char *,char const *,unsigned int,enum uWS::OpCode,unsigned int,bool))
      100    ?formatMessage@?$WebSocketProtocol@$0A@U?$WebSocket@$0A@@uWS@@@uWS@@SAIPADPBDIW4OpCode@2@I_N@Z (public: static unsigned int __cdecl uWS::WebSocketProtocol<0,struct uWS::WebSocket<0> >::formatMessage(char *,char const *,unsigned int,enum uWS::OpCode,unsigned int,bool))
      101    ?freeMessage@Socket@uS@@IAEXPAUMessage@Queue@12@@Z (protected: void __thiscall uS::Socket::freeMessage(struct uS::Socket::Queue::Message *))
      102    ?freeSmallMemoryBlock@NodeData@uS@@QAEXPADH@Z (public: void __thiscall uS::NodeData::freeSmallMemoryBlock(char *,int))
      103    ?from@?$Group@$00@uWS@@SAPAU12@PAUSocket@uS@@@Z (public: static struct uWS::Group<1> * __cdecl uWS::Group<1>::from(struct uS::Socket *))
      104    ?from@?$Group@$0A@@uWS@@SAPAU12@PAUSocket@uS@@@Z (public: static struct uWS::Group<0> * __cdecl uWS::Group<0>::from(struct uS::Socket *))
      105    ?getAddress@Socket@uS@@QAE?AUAddress@12@XZ (public: struct uS::Socket::Address __thiscall uS::Socket::getAddress(void))
      106    ?getLoop@Node@uS@@QAEPAULoop@@XZ (public: struct Loop * __thiscall uS::Node::getLoop(void))
      107    ?getMemoryBlockIndex@NodeData@uS@@SAHI@Z (public: static int __cdecl uS::NodeData::getMemoryBlockIndex(unsigned int))
      108    ?getNativeContext@Context@TLS@uS@@QAEPAUssl_ctx_st@@XZ (public: struct ssl_ctx_st * __thiscall uS::TLS::Context::getNativeContext(void))
      109    ?getNodeData@Socket@uS@@QAEPAUNodeData@2@XZ (public: struct uS::NodeData * __thiscall uS::Socket::getNodeData(void))
      110    ?getOpCode@?$WebSocketProtocol@$00U?$WebSocket@$00@uWS@@@uWS@@CAEPAD@Z (private: static unsigned char __cdecl uWS::WebSocketProtocol<1,struct uWS::WebSocket<1> >::getOpCode(char *))
      111    ?getOpCode@?$WebSocketProtocol@$0A@U?$WebSocket@$0A@@uWS@@@uWS@@CAEPAD@Z (private: static unsigned char __cdecl uWS::WebSocketProtocol<0,struct uWS::WebSocket<0> >::getOpCode(char *))
      112    ?getPoll@Socket@uS@@IAEHXZ (protected: int __thiscall uS::Socket::getPoll(void))
      113    ?getSmallMemoryBlock@NodeData@uS@@QAEPADH@Z (public: char * __thiscall uS::NodeData::getSmallMemoryBlock(int))
      114    ?getUserData@?$Group@$00@uWS@@QAEPAXXZ (public: void * __thiscall uWS::Group<1>::getUserData(void))
      115    ?getUserData@?$Group@$0A@@uWS@@QAEPAXXZ (public: void * __thiscall uWS::Group<0>::getUserData(void))
      116    ?getUserData@Socket@uS@@QAEPAXXZ (public: void * __thiscall uS::Socket::getUserData(void))
      117    ?handleFragment@?$WebSocket@$00@uWS@@KA_NPADIIH_NPAU?$WebSocketState@$00@2@@Z (protected: static bool __cdecl uWS::WebSocket<1>::handleFragment(char *,unsigned int,unsigned int,int,bool,struct uWS::WebSocketState<1> *))
      118    ?handleFragment@?$WebSocket@$0A@@uWS@@KA_NPADIIH_NPAU?$WebSocketState@$0A@@2@@Z (protected: static bool __cdecl uWS::WebSocket<0>::handleFragment(char *,unsigned int,unsigned int,int,bool,struct uWS::WebSocketState<0> *))
      119    ?hasEmptyQueue@Socket@uS@@IAE_NXZ (protected: bool __thiscall uS::Socket::hasEmptyQueue(void))
      120    ?inflate@Hub@uWS@@IAEPADPADAAII@Z (protected: char * __thiscall uWS::Hub::inflate(char *,unsigned int &,unsigned int))
      121    ?isFin@?$WebSocketProtocol@$00U?$WebSocket@$00@uWS@@@uWS@@CA_NPAD@Z (private: static bool __cdecl uWS::WebSocketProtocol<1,struct uWS::WebSocket<1> >::isFin(char *))
      122    ?isFin@?$WebSocketProtocol@$0A@U?$WebSocket@$0A@@uWS@@@uWS@@CA_NPAD@Z (private: static bool __cdecl uWS::WebSocketProtocol<0,struct uWS::WebSocket<0> >::isFin(char *))
      123    ?isShuttingDown@Socket@uS@@QAE_NXZ (public: bool __thiscall uS::Socket::isShuttingDown(void))
      124    ?isValidUtf8@?$WebSocketProtocol@$00U?$WebSocket@$00@uWS@@@uWS@@SA_NPAEI@Z (public: static bool __cdecl uWS::WebSocketProtocol<1,struct uWS::WebSocket<1> >::isValidUtf8(unsigned char *,unsigned int))
      125    ?isValidUtf8@?$WebSocketProtocol@$0A@U?$WebSocket@$0A@@uWS@@@uWS@@SA_NPAEI@Z (public: static bool __cdecl uWS::WebSocketProtocol<0,struct uWS::WebSocket<0> >::isValidUtf8(unsigned char *,unsigned int))
      126    ?listen@?$Group@$00@uWS@@QAEXW4ListenOptions@2@@Z (public: void __thiscall uWS::Group<1>::listen(enum uWS::ListenOptions))
      127    ?listen@?$Group@$0A@@uWS@@QAEXW4ListenOptions@2@@Z (public: void __thiscall uWS::Group<0>::listen(enum uWS::ListenOptions))
      128    ?listen@Hub@uWS@@QAE_NHVContext@TLS@uS@@HPAU?$Group@$00@2@@Z (public: bool __thiscall uWS::Hub::listen(int,class uS::TLS::Context,int,struct uWS::Group<1> *))
      129    ?listen@Hub@uWS@@QAE_NPBDHVContext@TLS@uS@@HPAU?$Group@$00@2@@Z (public: bool __thiscall uWS::Hub::listen(char const *,int,class uS::TLS::Context,int,struct uWS::Group<1> *))
      130    ?onCancelledHttpRequest@?$Group@$00@uWS@@QAEXV?$function@$$A6AXPAUHttpResponse@uWS@@@Z@std@@@Z (public: void __thiscall uWS::Group<1>::onCancelledHttpRequest(class std::function<void __cdecl(struct uWS::HttpResponse *)>))
      131    ?onCancelledHttpRequest@?$Group@$0A@@uWS@@QAEXV?$function@$$A6AXPAUHttpResponse@uWS@@@Z@std@@@Z (public: void __thiscall uWS::Group<0>::onCancelledHttpRequest(class std::function<void __cdecl(struct uWS::HttpResponse *)>))
      132    ?onClientConnection@Hub@uWS@@KAXPAUSocket@uS@@_N@Z (protected: static void __cdecl uWS::Hub::onClientConnection(struct uS::Socket *,bool))
      133    ?onConnection@?$Group@$00@uWS@@QAEXV?$function@$$A6AXPAU?$WebSocket@$00@uWS@@UHttpRequest@2@@Z@std@@@Z (public: void __thiscall uWS::Group<1>::onConnection(class std::function<void __cdecl(struct uWS::WebSocket<1> *,struct uWS::HttpRequest)>))
      134    ?onConnection@?$Group@$0A@@uWS@@QAEXV?$function@$$A6AXPAU?$WebSocket@$0A@@uWS@@UHttpRequest@2@@Z@std@@@Z (public: void __thiscall uWS::Group<0>::onConnection(class std::function<void __cdecl(struct uWS::WebSocket<0> *,struct uWS::HttpRequest)>))
      135    ?onData@?$HttpSocket@$00@uWS@@CAPAUSocket@uS@@PAU34@PADI@Z (private: static struct uS::Socket * __cdecl uWS::HttpSocket<1>::onData(struct uS::Socket *,char *,unsigned int))
      136    ?onData@?$HttpSocket@$0A@@uWS@@CAPAUSocket@uS@@PAU34@PADI@Z (private: static struct uS::Socket * __cdecl uWS::HttpSocket<0>::onData(struct uS::Socket *,char *,unsigned int))
      137    ?onData@?$WebSocket@$00@uWS@@KAPAUSocket@uS@@PAU34@PADI@Z (protected: static struct uS::Socket * __cdecl uWS::WebSocket<1>::onData(struct uS::Socket *,char *,unsigned int))
      138    ?onData@?$WebSocket@$0A@@uWS@@KAPAUSocket@uS@@PAU34@PADI@Z (protected: static struct uS::Socket * __cdecl uWS::WebSocket<0>::onData(struct uS::Socket *,char *,unsigned int))
      139    ?onDisconnection@?$Group@$00@uWS@@QAEXV?$function@$$A6AXPAU?$WebSocket@$00@uWS@@HPADI@Z@std@@@Z (public: void __thiscall uWS::Group<1>::onDisconnection(class std::function<void __cdecl(struct uWS::WebSocket<1> *,int,char *,unsigned int)>))
      140    ?onDisconnection@?$Group@$0A@@uWS@@QAEXV?$function@$$A6AXPAU?$WebSocket@$0A@@uWS@@HPADI@Z@std@@@Z (public: void __thiscall uWS::Group<0>::onDisconnection(class std::function<void __cdecl(struct uWS::WebSocket<0> *,int,char *,unsigned int)>))
      141    ?onEnd@?$HttpSocket@$00@uWS@@CAXPAUSocket@uS@@@Z (private: static void __cdecl uWS::HttpSocket<1>::onEnd(struct uS::Socket *))
      142    ?onEnd@?$HttpSocket@$0A@@uWS@@CAXPAUSocket@uS@@@Z (private: static void __cdecl uWS::HttpSocket<0>::onEnd(struct uS::Socket *))
      143    ?onEnd@?$WebSocket@$00@uWS@@KAXPAUSocket@uS@@@Z (protected: static void __cdecl uWS::WebSocket<1>::onEnd(struct uS::Socket *))
      144    ?onEnd@?$WebSocket@$0A@@uWS@@KAXPAUSocket@uS@@@Z (protected: static void __cdecl uWS::WebSocket<0>::onEnd(struct uS::Socket *))
      145    ?onError@?$Group@$00@uWS@@QAEXV?$function@$$A6AXH@Z@std@@@Z (public: void __thiscall uWS::Group<1>::onError(class std::function<void __cdecl(int)>))
      146    ?onError@?$Group@$0A@@uWS@@QAEXV?$function@$$A6AXPAX@Z@std@@@Z (public: void __thiscall uWS::Group<0>::onError(class std::function<void __cdecl(void *)>))
      147    ?onHttpConnection@?$Group@$00@uWS@@QAEXV?$function@$$A6AXPAU?$HttpSocket@$00@uWS@@@Z@std@@@Z (public: void __thiscall uWS::Group<1>::onHttpConnection(class std::function<void __cdecl(struct uWS::HttpSocket<1> *)>))
      148    ?onHttpConnection@?$Group@$0A@@uWS@@QAEXV?$function@$$A6AXPAU?$HttpSocket@$0A@@uWS@@@Z@std@@@Z (public: void __thiscall uWS::Group<0>::onHttpConnection(class std::function<void __cdecl(struct uWS::HttpSocket<0> *)>))
      149    ?onHttpData@?$Group@$00@uWS@@QAEXV?$function@$$A6AXPAUHttpResponse@uWS@@PADII@Z@std@@@Z (public: void __thiscall uWS::Group<1>::onHttpData(class std::function<void __cdecl(struct uWS::HttpResponse *,char *,unsigned int,unsigned int)>))
      150    ?onHttpData@?$Group@$0A@@uWS@@QAEXV?$function@$$A6AXPAUHttpResponse@uWS@@PADII@Z@std@@@Z (public: void __thiscall uWS::Group<0>::onHttpData(class std::function<void __cdecl(struct uWS::HttpResponse *,char *,unsigned int,unsigned int)>))
      151    ?onHttpDisconnection@?$Group@$00@uWS@@QAEXV?$function@$$A6AXPAU?$HttpSocket@$00@uWS@@@Z@std@@@Z (public: void __thiscall uWS::Group<1>::onHttpDisconnection(class std::function<void __cdecl(struct uWS::HttpSocket<1> *)>))
      152    ?onHttpDisconnection@?$Group@$0A@@uWS@@QAEXV?$function@$$A6AXPAU?$HttpSocket@$0A@@uWS@@@Z@std@@@Z (public: void __thiscall uWS::Group<0>::onHttpDisconnection(class std::function<void __cdecl(struct uWS::HttpSocket<0> *)>))
      153    ?onHttpRequest@?$Group@$00@uWS@@QAEXV?$function@$$A6AXPAUHttpResponse@uWS@@UHttpRequest@2@PADII@Z@std@@@Z (public: void __thiscall uWS::Group<1>::onHttpRequest(class std::function<void __cdecl(struct uWS::HttpResponse *,struct uWS::HttpRequest,char *,unsigned int,unsigned int)>))
      154    ?onHttpRequest@?$Group@$0A@@uWS@@QAEXV?$function@$$A6AXPAUHttpResponse@uWS@@UHttpRequest@2@PADII@Z@std@@@Z (public: void __thiscall uWS::Group<0>::onHttpRequest(class std::function<void __cdecl(struct uWS::HttpResponse *,struct uWS::HttpRequest,char *,unsigned int,unsigned int)>))
      155    ?onHttpUpgrade@?$Group@$00@uWS@@QAEXV?$function@$$A6AXPAU?$HttpSocket@$00@uWS@@UHttpRequest@2@@Z@std@@@Z (public: void __thiscall uWS::Group<1>::onHttpUpgrade(class std::function<void __cdecl(struct uWS::HttpSocket<1> *,struct uWS::HttpRequest)>))
      156    ?onHttpUpgrade@?$Group@$0A@@uWS@@QAEXV?$function@$$A6AXPAU?$HttpSocket@$0A@@uWS@@UHttpRequest@2@@Z@std@@@Z (public: void __thiscall uWS::Group<0>::onHttpUpgrade(class std::function<void __cdecl(struct uWS::HttpSocket<0> *,struct uWS::HttpRequest)>))
      157    ?onMessage@?$Group@$00@uWS@@QAEXV?$function@$$A6AXPAU?$WebSocket@$00@uWS@@PADIW4OpCode@2@@Z@std@@@Z (public: void __thiscall uWS::Group<1>::onMessage(class std::function<void __cdecl(struct uWS::WebSocket<1> *,char *,unsigned int,enum uWS::OpCode)>))
      158    ?onMessage@?$Group@$0A@@uWS@@QAEXV?$function@$$A6AXPAU?$WebSocket@$0A@@uWS@@PADIW4OpCode@2@@Z@std@@@Z (public: void __thiscall uWS::Group<0>::onMessage(class std::function<void __cdecl(struct uWS::WebSocket<0> *,char *,unsigned int,enum uWS::OpCode)>))
      159    ?onPing@?$Group@$00@uWS@@QAEXV?$function@$$A6AXPAU?$WebSocket@$00@uWS@@PADI@Z@std@@@Z (public: void __thiscall uWS::Group<1>::onPing(class std::function<void __cdecl(struct uWS::WebSocket<1> *,char *,unsigned int)>))
      160    ?onPing@?$Group@$0A@@uWS@@QAEXV?$function@$$A6AXPAU?$WebSocket@$0A@@uWS@@PADI@Z@std@@@Z (public: void __thiscall uWS::Group<0>::onPing(class std::function<void __cdecl(struct uWS::WebSocket<0> *,char *,unsigned int)>))
      161    ?onPong@?$Group@$00@uWS@@QAEXV?$function@$$A6AXPAU?$WebSocket@$00@uWS@@PADI@Z@std@@@Z (public: void __thiscall uWS::Group<1>::onPong(class std::function<void __cdecl(struct uWS::WebSocket<1> *,char *,unsigned int)>))
      162    ?onPong@?$Group@$0A@@uWS@@QAEXV?$function@$$A6AXPAU?$WebSocket@$0A@@uWS@@PADI@Z@std@@@Z (public: void __thiscall uWS::Group<0>::onPong(class std::function<void __cdecl(struct uWS::WebSocket<0> *,char *,unsigned int)>))
      163    ?onServerAccept@Hub@uWS@@KAXPAUSocket@uS@@@Z (protected: static void __cdecl uWS::Hub::onServerAccept(struct uS::Socket *))
      164    ?onTransfer@?$Group@$00@uWS@@QAEXV?$function@$$A6AXPAU?$WebSocket@$00@uWS@@@Z@std@@@Z (public: void __thiscall uWS::Group<1>::onTransfer(class std::function<void __cdecl(struct uWS::WebSocket<1> *)>))
      165    ?onTransfer@?$Group@$0A@@uWS@@QAEXV?$function@$$A6AXPAU?$WebSocket@$0A@@uWS@@@Z@std@@@Z (public: void __thiscall uWS::Group<0>::onTransfer(class std::function<void __cdecl(struct uWS::WebSocket<0> *)>))
      166    ?parseClosePayload@?$WebSocketProtocol@$00U?$WebSocket@$00@uWS@@@uWS@@SA?AUCloseFrame@12@PADI@Z (public: static struct uWS::WebSocketProtocol<1,struct uWS::WebSocket<1> >::CloseFrame __cdecl uWS::WebSocketProtocol<1,struct uWS::WebSocket<1> >::parseClosePayload(char *,unsigned int))
      167    ?parseClosePayload@?$WebSocketProtocol@$0A@U?$WebSocket@$0A@@uWS@@@uWS@@SA?AUCloseFrame@12@PADI@Z (public: static struct uWS::WebSocketProtocol<0,struct uWS::WebSocket<0> >::CloseFrame __cdecl uWS::WebSocketProtocol<0,struct uWS::WebSocket<0> >::parseClosePayload(char *,unsigned int))
      168    ?passwordCallback@Context@TLS@uS@@CAHPADHHPAX@Z (private: static int __cdecl uS::TLS::Context::passwordCallback(char *,int,int,void *))
      169    ?payloadLength@?$WebSocketProtocol@$00U?$WebSocket@$00@uWS@@@uWS@@CAEPAD@Z (private: static unsigned char __cdecl uWS::WebSocketProtocol<1,struct uWS::WebSocket<1> >::payloadLength(char *))
      170    ?payloadLength@?$WebSocketProtocol@$0A@U?$WebSocket@$0A@@uWS@@@uWS@@CAEPAD@Z (private: static unsigned char __cdecl uWS::WebSocketProtocol<0,struct uWS::WebSocket<0> >::payloadLength(char *))
      171    ?ping@?$WebSocket@$00@uWS@@QAEXPBD@Z (public: void __thiscall uWS::WebSocket<1>::ping(char const *))
      172    ?ping@?$WebSocket@$0A@@uWS@@QAEXPBD@Z (public: void __thiscall uWS::WebSocket<0>::ping(char const *))
      173    ?preAllocMaxSize@NodeData@uS@@2HB (public: static int const uS::NodeData::preAllocMaxSize)
      174    ?prepareMessage@?$WebSocket@$00@uWS@@SAPAUPreparedMessage@12@PADIW4OpCode@2@_NP6AXPAU12@PAX24@Z@Z (public: static struct uWS::WebSocket<1>::PreparedMessage * __cdecl uWS::WebSocket<1>::prepareMessage(char *,unsigned int,enum uWS::OpCode,bool,void (__cdecl*)(struct uWS::WebSocket<1> *,void *,bool,void *)))
      175    ?prepareMessage@?$WebSocket@$0A@@uWS@@SAPAUPreparedMessage@12@PADIW4OpCode@2@_NP6AXPAU12@PAX24@Z@Z (public: static struct uWS::WebSocket<0>::PreparedMessage * __cdecl uWS::WebSocket<0>::prepareMessage(char *,unsigned int,enum uWS::OpCode,bool,void (__cdecl*)(struct uWS::WebSocket<0> *,void *,bool,void *)))
      176    ?prepareMessageBatch@?$WebSocket@$00@uWS@@SAPAUPreparedMessage@12@AAV?$vector@V?$basic_string@DU?$char_traits@D@std@@V?$allocator@D@2@@std@@V?$allocator@V?$basic_string@DU?$char_traits@D@std@@V?$allocator@D@2@@std@@@2@@std@@AAV?$vector@HV?$allocator@H@std@@@5@W4OpCode@2@_NP6AXPAU12@PAX35@Z@Z (public: static struct uWS::WebSocket<1>::PreparedMessage * __cdecl uWS::WebSocket<1>::prepareMessageBatch(class std::vector<class std::basic_string<char,struct std::char_traits<char>,class std::allocator<char> >,class std::allocator<class std::basic_string<char,struct std::char_traits<char>,class std::allocator<char> > > > &,class std::vector<int,class std::allocator<int> > &,enum uWS::OpCode,bool,void (__cdecl*)(struct uWS::WebSocket<1> *,void *,bool,void *)))
      177    ?prepareMessageBatch@?$WebSocket@$0A@@uWS@@SAPAUPreparedMessage@12@AAV?$vector@V?$basic_string@DU?$char_traits@D@std@@V?$allocator@D@2@@std@@V?$allocator@V?$basic_string@DU?$char_traits@D@std@@V?$allocator@D@2@@std@@@2@@std@@AAV?$vector@HV?$allocator@H@std@@@5@W4OpCode@2@_NP6AXPAU12@PAX35@Z@Z (public: static struct uWS::WebSocket<0>::PreparedMessage * __cdecl uWS::WebSocket<0>::prepareMessageBatch(class std::vector<class std::basic_string<char,struct std::char_traits<char>,class std::allocator<char> >,class std::allocator<class std::basic_string<char,struct std::char_traits<char>,class std::allocator<char> > > > &,class std::vector<int,class std::allocator<int> > &,enum uWS::OpCode,bool,void (__cdecl*)(struct uWS::WebSocket<0> *,void *,bool,void *)))
      178    ?refusePayloadLength@?$WebSocket@$00@uWS@@KA_N_KPAU?$WebSocketState@$00@2@@Z (protected: static bool __cdecl uWS::WebSocket<1>::refusePayloadLength(unsigned __int64,struct uWS::WebSocketState<1> *))
      179    ?refusePayloadLength@?$WebSocket@$0A@@uWS@@KA_N_KPAU?$WebSocketState@$0A@@2@@Z (protected: static bool __cdecl uWS::WebSocket<0>::refusePayloadLength(unsigned __int64,struct uWS::WebSocketState<0> *))
      180    ?removeHttpSocket@?$Group@$00@uWS@@IAEXPAU?$HttpSocket@$00@2@@Z (protected: void __thiscall uWS::Group<1>::removeHttpSocket(struct uWS::HttpSocket<1> *))
      181    ?removeHttpSocket@?$Group@$0A@@uWS@@IAEXPAU?$HttpSocket@$0A@@2@@Z (protected: void __thiscall uWS::Group<0>::removeHttpSocket(struct uWS::HttpSocket<0> *))
      182    ?removeWebSocket@?$Group@$00@uWS@@IAEXPAU?$WebSocket@$00@2@@Z (protected: void __thiscall uWS::Group<1>::removeWebSocket(struct uWS::WebSocket<1> *))
      183    ?removeWebSocket@?$Group@$0A@@uWS@@IAEXPAU?$WebSocket@$0A@@2@@Z (protected: void __thiscall uWS::Group<0>::removeWebSocket(struct uWS::WebSocket<0> *))
      184    ?rotateMask@?$WebSocketProtocol@$00U?$WebSocket@$00@uWS@@@uWS@@CAXIPAD@Z (private: static void __cdecl uWS::WebSocketProtocol<1,struct uWS::WebSocket<1> >::rotateMask(unsigned int,char *))
      185    ?rotateMask@?$WebSocketProtocol@$0A@U?$WebSocket@$0A@@uWS@@@uWS@@CAXIPAD@Z (private: static void __cdecl uWS::WebSocketProtocol<0,struct uWS::WebSocket<0> >::rotateMask(unsigned int,char *))
      186    ?rsv1@?$WebSocketProtocol@$00U?$WebSocket@$00@uWS@@@uWS@@CA_NPAD@Z (private: static bool __cdecl uWS::WebSocketProtocol<1,struct uWS::WebSocket<1> >::rsv1(char *))
      187    ?rsv1@?$WebSocketProtocol@$0A@U?$WebSocket@$0A@@uWS@@@uWS@@CA_NPAD@Z (private: static bool __cdecl uWS::WebSocketProtocol<0,struct uWS::WebSocket<0> >::rsv1(char *))
      188    ?rsv23@?$WebSocketProtocol@$00U?$WebSocket@$00@uWS@@@uWS@@CA_NPAD@Z (private: static bool __cdecl uWS::WebSocketProtocol<1,struct uWS::WebSocket<1> >::rsv23(char *))
      189    ?rsv23@?$WebSocketProtocol@$0A@U?$WebSocket@$0A@@uWS@@@uWS@@CA_NPAD@Z (private: static bool __cdecl uWS::WebSocketProtocol<0,struct uWS::WebSocket<0> >::rsv23(char *))
      190    ?run@Node@uS@@QAEXXZ (public: void __thiscall uS::Node::run(void))
      191    ?send@?$WebSocket@$00@uWS@@QAEXPBDIW4OpCode@2@P6AXPAU12@PAX_N3@Z3@Z (public: void __thiscall uWS::WebSocket<1>::send(char const *,unsigned int,enum uWS::OpCode,void (__cdecl*)(struct uWS::WebSocket<1> *,void *,bool,void *),void *))
      192    ?send@?$WebSocket@$00@uWS@@QAEXPBDW4OpCode@2@@Z (public: void __thiscall uWS::WebSocket<1>::send(char const *,enum uWS::OpCode))
      193    ?send@?$WebSocket@$0A@@uWS@@QAEXPBDIW4OpCode@2@P6AXPAU12@PAX_N3@Z3@Z (public: void __thiscall uWS::WebSocket<0>::send(char const *,unsigned int,enum uWS::OpCode,void (__cdecl*)(struct uWS::WebSocket<0> *,void *,bool,void *),void *))
      194    ?send@?$WebSocket@$0A@@uWS@@QAEXPBDW4OpCode@2@@Z (public: void __thiscall uWS::WebSocket<0>::send(char const *,enum uWS::OpCode))
      195    ?sendPrepared@?$WebSocket@$00@uWS@@QAEXPAUPreparedMessage@12@PAX@Z (public: void __thiscall uWS::WebSocket<1>::sendPrepared(struct uWS::WebSocket<1>::PreparedMessage *,void *))
      196    ?sendPrepared@?$WebSocket@$0A@@uWS@@QAEXPAUPreparedMessage@12@PAX@Z (public: void __thiscall uWS::WebSocket<0>::sendPrepared(struct uWS::WebSocket<0>::PreparedMessage *,void *))
      197    ?setCompressed@?$WebSocket@$00@uWS@@KA_NPAU?$WebSocketState@$00@2@@Z (protected: static bool __cdecl uWS::WebSocket<1>::setCompressed(struct uWS::WebSocketState<1> *))
      198    ?setCompressed@?$WebSocket@$0A@@uWS@@KA_NPAU?$WebSocketState@$0A@@2@@Z (protected: static bool __cdecl uWS::WebSocket<0>::setCompressed(struct uWS::WebSocketState<0> *))
      199    ?setNoDelay@Socket@uS@@QAEXH@Z (public: void __thiscall uS::Socket::setNoDelay(int))
      200    ?setPoll@Socket@uS@@IAEHH@Z (protected: int __thiscall uS::Socket::setPoll(int))
      201    ?setShuttingDown@Socket@uS@@IAEX_N@Z (protected: void __thiscall uS::Socket::setShuttingDown(bool))
      202    ?setUserData@?$Group@$00@uWS@@QAEXPAX@Z (public: void __thiscall uWS::Group<1>::setUserData(void *))
      203    ?setUserData@?$Group@$0A@@uWS@@QAEXPAX@Z (public: void __thiscall uWS::Group<0>::setUserData(void *))
      204    ?setUserData@Socket@uS@@QAEXPAX@Z (public: void __thiscall uS::Socket::setUserData(void *))
      205    ?shutdown@Socket@uS@@QAEXXZ (public: void __thiscall uS::Socket::shutdown(void))
      206    ?startAutoPing@?$Group@$00@uWS@@QAEXHV?$basic_string@DU?$char_traits@D@std@@V?$allocator@D@2@@std@@@Z (public: void __thiscall uWS::Group<1>::startAutoPing(int,class std::basic_string<char,struct std::char_traits<char>,class std::allocator<char> >))
      207    ?startAutoPing@?$Group@$0A@@uWS@@QAEXHV?$basic_string@DU?$char_traits@D@std@@V?$allocator@D@2@@std@@@Z (public: void __thiscall uWS::Group<0>::startAutoPing(int,class std::basic_string<char,struct std::char_traits<char>,class std::allocator<char> >))
      208    ?stopListening@?$Group@$00@uWS@@IAEXXZ (protected: void __thiscall uWS::Group<1>::stopListening(void))
      209    ?stopListening@?$Group@$0A@@uWS@@IAEXXZ (protected: void __thiscall uWS::Group<0>::stopListening(void))
      210    ?terminate@?$Group@$00@uWS@@QAEXXZ (public: void __thiscall uWS::Group<1>::terminate(void))
      211    ?terminate@?$Group@$0A@@uWS@@QAEXXZ (public: void __thiscall uWS::Group<0>::terminate(void))
      212    ?terminate@?$HttpSocket@$00@uWS@@QAEXXZ (public: void __thiscall uWS::HttpSocket<1>::terminate(void))
      213    ?terminate@?$HttpSocket@$0A@@uWS@@QAEXXZ (public: void __thiscall uWS::HttpSocket<0>::terminate(void))
      214    ?terminate@?$WebSocket@$00@uWS@@QAEXXZ (public: void __thiscall uWS::WebSocket<1>::terminate(void))
      215    ?terminate@?$WebSocket@$0A@@uWS@@QAEXXZ (public: void __thiscall uWS::WebSocket<0>::terminate(void))
      216    ?timerCallback@?$Group@$00@uWS@@KAXPAUTimer@@@Z (protected: static void __cdecl uWS::Group<1>::timerCallback(struct Timer *))
      217    ?timerCallback@?$Group@$0A@@uWS@@KAXPAUTimer@@@Z (protected: static void __cdecl uWS::Group<0>::timerCallback(struct Timer *))
      218    ?transfer@?$WebSocket@$00@uWS@@QAEXPAU?$Group@$00@2@@Z (public: void __thiscall uWS::WebSocket<1>::transfer(struct uWS::Group<1> *))
      219    ?transfer@?$WebSocket@$0A@@uWS@@QAEXPAU?$Group@$0A@@2@@Z (public: void __thiscall uWS::WebSocket<0>::transfer(struct uWS::Group<0> *))
      220    ?transfer@Socket@uS@@IAEXPAUNodeData@2@P6AXPAUPoll@@@Z@Z (protected: void __thiscall uS::Socket::transfer(struct uS::NodeData *,void (__cdecl*)(struct Poll *)))
      221    ?unmaskImprecise@?$WebSocketProtocol@$00U?$WebSocket@$00@uWS@@@uWS@@CAXPAD00I@Z (private: static void __cdecl uWS::WebSocketProtocol<1,struct uWS::WebSocket<1> >::unmaskImprecise(char *,char *,char *,unsigned int))
      222    ?unmaskImprecise@?$WebSocketProtocol@$0A@U?$WebSocket@$0A@@uWS@@@uWS@@CAXPAD00I@Z (private: static void __cdecl uWS::WebSocketProtocol<0,struct uWS::WebSocket<0> >::unmaskImprecise(char *,char *,char *,unsigned int))
      223    ?unmaskImpreciseCopyMask@?$WebSocketProtocol@$00U?$WebSocket@$00@uWS@@@uWS@@CAXPAD00I@Z (private: static void __cdecl uWS::WebSocketProtocol<1,struct uWS::WebSocket<1> >::unmaskImpreciseCopyMask(char *,char *,char *,unsigned int))
      224    ?unmaskImpreciseCopyMask@?$WebSocketProtocol@$0A@U?$WebSocket@$0A@@uWS@@@uWS@@CAXPAD00I@Z (private: static void __cdecl uWS::WebSocketProtocol<0,struct uWS::WebSocket<0> >::unmaskImpreciseCopyMask(char *,char *,char *,unsigned int))
      225    ?unmaskInplace@?$WebSocketProtocol@$00U?$WebSocket@$00@uWS@@@uWS@@CAXPAD00@Z (private: static void __cdecl uWS::WebSocketProtocol<1,struct uWS::WebSocket<1> >::unmaskInplace(char *,char *,char *))
      226    ?unmaskInplace@?$WebSocketProtocol@$0A@U?$WebSocket@$0A@@uWS@@@uWS@@CAXPAD00@Z (private: static void __cdecl uWS::WebSocketProtocol<0,struct uWS::WebSocket<0> >::unmaskInplace(char *,char *,char *))
      227    ?upgrade@?$HttpSocket@$00@uWS@@QAEXPBD0I0IPA_N@Z (public: void __thiscall uWS::HttpSocket<1>::upgrade(char const *,char const *,unsigned int,char const *,unsigned int,bool *))
      228    ?upgrade@?$HttpSocket@$0A@@uWS@@QAEXPBD0I0IPA_N@Z (public: void __thiscall uWS::HttpSocket<0>::upgrade(char const *,char const *,unsigned int,char const *,unsigned int,bool *))
      229    ?upgrade@Hub@uWS@@QAEXIPBDPAUssl_st@@0I0IPAU?$Group@$00@2@@Z (public: void __thiscall uWS::Hub::upgrade(unsigned int,char const *,struct ssl_st *,char const *,unsigned int,char const *,unsigned int,struct uWS::Group<1> *))
      230    ?write@Socket@uS@@IAE_NPAUMessage@Queue@12@AA_N@Z (protected: bool __thiscall uS::Socket::write(struct uS::Socket::Queue::Message *,bool &))
      231    __register_uws_
               exported name: _register_uws_
